
build/main.elf:     file format elf32-avr

Sections:
Idx Name          Size      VMA       LMA       File off  Algn
  0 .data         00000000  00800100  000070b4  00007148  2**0
                  CONTENTS, ALLOC, LOAD, DATA
  1 .text         000070b4  00000000  00000000  00000094  2**1
                  CONTENTS, ALLOC, LOAD, READONLY, CODE
  2 .bss          000005ce  00800100  00800100  00007148  2**0
                  ALLOC
  3 .comment      00000011  00000000  00000000  00007148  2**0
                  CONTENTS, READONLY

Disassembly of section .text:

00000000 <__vectors>:
       0:	0c 94 26 04 	jmp	0x84c	; 0x84c <__ctors_end>
       4:	0c 94 38 04 	jmp	0x870	; 0x870 <__bad_interrupt>
       8:	0c 94 38 04 	jmp	0x870	; 0x870 <__bad_interrupt>
       c:	0c 94 67 29 	jmp	0x52ce	; 0x52ce <__vector_3>
      10:	0c 94 ff 31 	jmp	0x63fe	; 0x63fe <__vector_4>
      14:	0c 94 38 04 	jmp	0x870	; 0x870 <__bad_interrupt>
      18:	0c 94 38 04 	jmp	0x870	; 0x870 <__bad_interrupt>
      1c:	0c 94 38 04 	jmp	0x870	; 0x870 <__bad_interrupt>
      20:	0c 94 38 04 	jmp	0x870	; 0x870 <__bad_interrupt>
      24:	0c 94 38 04 	jmp	0x870	; 0x870 <__bad_interrupt>
      28:	0c 94 38 04 	jmp	0x870	; 0x870 <__bad_interrupt>
      2c:	0c 94 e1 16 	jmp	0x2dc2	; 0x2dc2 <__vector_11>
      30:	0c 94 38 04 	jmp	0x870	; 0x870 <__bad_interrupt>
      34:	0c 94 38 04 	jmp	0x870	; 0x870 <__bad_interrupt>
      38:	0c 94 38 04 	jmp	0x870	; 0x870 <__bad_interrupt>
      3c:	0c 94 38 04 	jmp	0x870	; 0x870 <__bad_interrupt>
      40:	0c 94 fa 18 	jmp	0x31f4	; 0x31f4 <__vector_16>
      44:	0c 94 38 04 	jmp	0x870	; 0x870 <__bad_interrupt>
      48:	0c 94 71 14 	jmp	0x28e2	; 0x28e2 <__vector_18>
      4c:	0c 94 33 14 	jmp	0x2866	; 0x2866 <__vector_19>
      50:	0c 94 38 04 	jmp	0x870	; 0x870 <__bad_interrupt>
      54:	0c 94 38 04 	jmp	0x870	; 0x870 <__bad_interrupt>
      58:	0c 94 38 04 	jmp	0x870	; 0x870 <__bad_interrupt>
      5c:	0c 94 38 04 	jmp	0x870	; 0x870 <__bad_interrupt>
      60:	0c 94 38 04 	jmp	0x870	; 0x870 <__bad_interrupt>
      64:	0c 94 38 04 	jmp	0x870	; 0x870 <__bad_interrupt>
      68:	3a 0b       	sbc	r19, r26
      6a:	1e 13       	cpse	r17, r30
      6c:	1e 13       	cpse	r17, r30
      6e:	44 0b       	sbc	r20, r20
      70:	51 0b       	sbc	r21, r17
      72:	5e 0b       	sbc	r21, r30
      74:	6b 0b       	sbc	r22, r27
      76:	1e 13       	cpse	r17, r30
      78:	6f 0b       	sbc	r22, r31
      7a:	1e 13       	cpse	r17, r30
      7c:	7d 0b       	sbc	r23, r29
      7e:	1e 13       	cpse	r17, r30
      80:	87 0b       	sbc	r24, r23
      82:	91 0b       	sbc	r25, r17
      84:	c2 0b       	sbc	r28, r18
      86:	1e 13       	cpse	r17, r30
      88:	1e 13       	cpse	r17, r30
      8a:	1e 13       	cpse	r17, r30
      8c:	9b 0b       	sbc	r25, r27
      8e:	a8 0b       	sbc	r26, r24
      90:	b5 0b       	sbc	r27, r21
      92:	e2 11       	cpse	r30, r2
      94:	f3 11       	cpse	r31, r3
      96:	12 12       	cpse	r1, r18
      98:	f3 11       	cpse	r31, r3
      9a:	16 12       	cpse	r1, r22
      9c:	29 12       	cpse	r2, r25
      9e:	1c 12       	cpse	r1, r28
      a0:	22 12       	cpse	r2, r18
      a2:	3e 12       	cpse	r3, r30
      a4:	44 12       	cpse	r4, r20
      a6:	53 12       	cpse	r5, r19
      a8:	6a 12       	cpse	r6, r26
      aa:	8e 12       	cpse	r8, r30
      ac:	98 12       	cpse	r9, r24
      ae:	a4 12       	cpse	r10, r20
      b0:	ae 12       	cpse	r10, r30
      b2:	b5 22       	and	r11, r21
      b4:	bb 22       	and	r11, r27
      b6:	be 22       	and	r11, r30
      b8:	c1 22       	and	r12, r17
      ba:	c6 22       	and	r12, r22
      bc:	ce 22       	and	r12, r30
      be:	d8 22       	and	r13, r24
      c0:	44 23       	and	r20, r20
      c2:	44 23       	and	r20, r20
      c4:	44 23       	and	r20, r20
      c6:	e0 22       	and	r14, r16
      c8:	e3 22       	and	r14, r19
      ca:	ec 22       	and	r14, r28
      cc:	f5 22       	and	r15, r21
      ce:	44 23       	and	r20, r20
      d0:	44 23       	and	r20, r20
      d2:	44 23       	and	r20, r20
      d4:	44 23       	and	r20, r20
      d6:	44 23       	and	r20, r20
      d8:	44 23       	and	r20, r20
      da:	fd 22       	and	r15, r29
      dc:	07 23       	and	r16, r23
      de:	13 23       	and	r17, r19
      e0:	1b 23       	and	r17, r27
      e2:	1e 23       	and	r17, r30
      e4:	27 23       	and	r18, r23
      e6:	30 23       	and	r19, r16
      e8:	36 23       	and	r19, r22
      ea:	5a 2d       	mov	r21, r10
      ec:	5d 2d       	mov	r21, r13
      ee:	62 2d       	mov	r22, r2
      f0:	65 2d       	mov	r22, r5
      f2:	68 2d       	mov	r22, r8
      f4:	6b 2d       	mov	r22, r11
      f6:	6e 2d       	mov	r22, r14
      f8:	71 2d       	mov	r23, r1
      fa:	74 2d       	mov	r23, r4
      fc:	77 2d       	mov	r23, r7
      fe:	7a 2d       	mov	r23, r10
     100:	86 2d       	mov	r24, r6
     102:	86 2d       	mov	r24, r6
     104:	86 2d       	mov	r24, r6
     106:	86 2d       	mov	r24, r6
     108:	86 2d       	mov	r24, r6
     10a:	86 2d       	mov	r24, r6
     10c:	86 2d       	mov	r24, r6
     10e:	86 2d       	mov	r24, r6
     110:	80 2d       	mov	r24, r0
     112:	7d 2d       	mov	r23, r13
     114:	83 2d       	mov	r24, r3
     116:	cd 2d       	mov	r28, r13
     118:	d0 2d       	mov	r29, r0
     11a:	d3 2d       	mov	r29, r3
     11c:	d6 2d       	mov	r29, r6
     11e:	d9 2d       	mov	r29, r9
     120:	dc 2d       	mov	r29, r12
     122:	df 2d       	mov	r29, r15
     124:	e2 2d       	mov	r30, r2
     126:	08 4a       	sbci	r16, 0xA8	; 168
     128:	d7 3b       	cpi	r29, 0xB7	; 183
     12a:	3b ce       	rjmp	.-906    	; 0xfffffda2 <__eeprom_end+0xff7efda2>
     12c:	01 6e       	ori	r16, 0xE1	; 225
     12e:	84 bc       	out	0x24, r8	; 36
     130:	bf fd       	.word	0xfdbf	; ????
     132:	c1 2f       	mov	r28, r17
     134:	3d 6c       	ori	r19, 0xCD	; 205
     136:	74 31       	cpi	r23, 0x14	; 20
     138:	9a bd       	out	0x2a, r25	; 42
     13a:	56 83       	std	Z+6, r21	; 0x06
     13c:	3d da       	rcall	.-2950   	; 0xfffff5b8 <__eeprom_end+0xff7ef5b8>
     13e:	3d 00       	.word	0x003d	; ????
     140:	c7 7f       	andi	r28, 0xF7	; 247
     142:	11 be       	out	0x31, r1	; 49
     144:	d9 e4       	ldi	r29, 0x49	; 73
     146:	bb 4c       	sbci	r27, 0xCB	; 203
     148:	3e 91       	ld	r19, -X
     14a:	6b aa       	std	Y+51, r6	; 0x33
     14c:	aa be       	out	0x3a, r10	; 58
     14e:	00 00       	nop
     150:	00 80       	ld	r0, Z
     152:	3f 05       	cpc	r19, r15
     154:	a8 4c       	sbci	r26, 0xC8	; 200
     156:	cd b2       	in	r12, 0x1d	; 29
     158:	d4 4e       	sbci	r29, 0xE4	; 228
     15a:	b9 38       	cpi	r27, 0x89	; 137
     15c:	36 a9       	ldd	r19, Z+54	; 0x36
     15e:	02 0c       	add	r0, r2
     160:	50 b9       	out	0x00, r21	; 0
     162:	91 86       	std	Z+9, r9	; 0x09
     164:	88 08       	sbc	r8, r8
     166:	3c a6       	std	Y+44, r3	; 0x2c
     168:	aa aa       	std	Y+50, r10	; 0x32
     16a:	2a be       	out	0x3a, r2	; 58
     16c:	00 00       	nop
     16e:	00 80       	ld	r0, Z
     170:	3f 00       	.word	0x003f	; ????

00000172 <__trampolines_end>:
     172:	3e 0d       	add	r19, r14
     174:	0a 00       	.word	0x000a	; ????

00000176 <__c.2725>:
     176:	2c 4c 69 6d 3a 00                                   ,Lim:.

0000017c <__c.2723>:
     17c:	2c 52 58 3a 00                                      ,RX:.

00000181 <__c.2721>:
     181:	2c 42 75 66 3a 00                                   ,Buf:.

00000187 <__c.2716>:
     187:	2c 00                                               ,.

00000189 <__c.2714>:
     189:	2c 57 50 6f 73 3a 00                                ,WPos:.

00000190 <__c.2709>:
     190:	2c 00                                               ,.

00000192 <__c.2707>:
     192:	2c 4d 50 6f 73 3a 00                                ,MPos:.

00000199 <__c.2705>:
     199:	3c 44 6f 6f 72 00                                   <Door.

0000019f <__c.2702>:
     19f:	3c 43 68 65 63 6b 00                                <Check.

000001a6 <__c.2699>:
     1a6:	3c 41 6c 61 72 6d 00                                <Alarm.

000001ad <__c.2696>:
     1ad:	3c 48 6f 6d 65 00                                   <Home.

000001b3 <__c.2693>:
     1b3:	3c 48 6f 6c 64 00                                   <Hold.

000001b9 <__c.2690>:
     1b9:	3c 52 75 6e 00                                      <Run.

000001be <__c.2685>:
     1be:	3c 49 64 6c 65 00                                   <Idle.

000001c4 <__c.2670>:
     1c4:	5d 0d 0a 00                                         ]...

000001c8 <__c.2668>:
     1c8:	5b 30 2e 39 6a 2e 32 30 31 36 30 33 31 37 3a 00     [0.9j.20160317:.

000001d8 <__c.2663>:
     1d8:	0d 0a 00                                            ...

000001db <__c.2661>:
     1db:	3d 00                                               =.

000001dd <__c.2659>:
     1dd:	24 4e 00                                            $N.

000001e0 <__c.2653>:
     1e0:	5d 0d 0a 00                                         ]...

000001e4 <__c.2651>:
     1e4:	20 53 00                                             S.

000001e7 <__c.2649>:
     1e7:	20 46 00                                             F.

000001ea <__c.2647>:
     1ea:	20 54 00                                             T.

000001ed <__c.2645>:
     1ed:	20 4d 38 00                                          M8.

000001f1 <__c.2641>:
     1f1:	20 4d 39 00                                          M9.

000001f5 <__c.2638>:
     1f5:	20 4d 35 00                                          M5.

000001f9 <__c.2635>:
     1f9:	20 4d 34 00                                          M4.

000001fd <__c.2631>:
     1fd:	20 4d 33 00                                          M3.

00000201 <__c.2628>:
     201:	20 4d 32 00                                          M2.

00000205 <__c.2625>:
     205:	20 4d 31 00                                          M1.

00000209 <__c.2621>:
     209:	20 4d 30 00                                          M0.

0000020d <__c.2618>:
     20d:	20 47 39 34 00                                       G94.

00000212 <__c.2616>:
     212:	20 47 39 33 00                                       G93.

00000217 <__c.2614>:
     217:	20 47 39 31 00                                       G91.

0000021c <__c.2612>:
     21c:	20 47 39 30 00                                       G90.

00000221 <__c.2610>:
     221:	20 47 32 30 00                                       G20.

00000226 <__c.2608>:
     226:	20 47 32 31 00                                       G21.

0000022b <__c.2606>:
     22b:	20 47 31 39 00                                       G19.

00000230 <__c.2603>:
     230:	20 47 31 38 00                                       G18.

00000235 <__c.2599>:
     235:	20 47 31 37 00                                       G17.

0000023a <__c.2596>:
     23a:	20 47 00                                             G.

0000023d <__c.2594>:
     23d:	47 33 38 2e 00                                      G38..

00000242 <__c.2591>:
     242:	47 38 30 00                                         G80.

00000246 <__c.2588>:
     246:	47 33 00                                            G3.

00000249 <__c.2585>:
     249:	47 32 00                                            G2.

0000024c <__c.2582>:
     24c:	47 31 00                                            G1.

0000024f <__c.2578>:
     24f:	47 30 00                                            G0.

00000252 <__c.2575>:
     252:	5b 00                                               [.

00000254 <__c.2571>:
     254:	5d 0d 0a 00                                         ]...

00000258 <__c.2569>:
     258:	5b 54 4c 4f 3a 00                                   [TLO:.

0000025e <__c.2564>:
     25e:	5d 0d 0a 00                                         ]...

00000262 <__c.2562>:
     262:	2c 00                                               ,.

00000264 <__c.2560>:
     264:	5b 47 39 32 3a 00                                   [G92:.

0000026a <__c.2552>:
     26a:	5d 0d 0a 00                                         ]...

0000026e <__c.2550>:
     26e:	2c 00                                               ,.

00000270 <__c.2548>:
     270:	3a 00                                               :.

00000272 <__c.2545>:
     272:	33 30 00                                            30.

00000275 <__c.2541>:
     275:	32 38 00                                            28.

00000278 <__c.2538>:
     278:	5b 47 00                                            [G.

0000027b <__c.2531>:
     27b:	5d 0d 0a 00                                         ]...

0000027f <__c.2529>:
     27f:	3a 00                                               :.

00000281 <__c.2524>:
     281:	2c 00                                               ,.

00000283 <__c.2522>:
     283:	5b 50 52 42 3a 00                                   [PRB:.

00000289 <__c.2510>:
     289:	29 0d 0a 00                                         )...

0000028d <__c.2508>:
     28d:	20 6d 61 78 20 74 72 61 76 65 6c 2c 20 6d 6d 00      max travel, mm.

0000029d <__c.2505>:
     29d:	20 61 63 63 65 6c 2c 20 6d 6d 2f 73 65 63 5e 32      accel, mm/sec^2
     2ad:	00                                                  .

000002ae <__c.2502>:
     2ae:	20 6d 61 78 20 72 61 74 65 2c 20 6d 6d 2f 6d 69      max rate, mm/mi
     2be:	6e 00                                               n.

000002c0 <__c.2498>:
     2c0:	2c 20 73 74 65 70 2f 6d 6d 00                       , step/mm.

000002ca <__c.2495>:
     2ca:	7a 00                                               z.

000002cc <__c.2492>:
     2cc:	79 00                                               y.

000002ce <__c.2488>:
     2ce:	78 00                                               x.

000002d0 <__c.2485>:
     2d0:	20 28 00                                             (.

000002d3 <__c.2478>:
     2d3:	3d 00                                               =.

000002d5 <__c.2476>:
     2d5:	24 00                                               $.

000002d7 <__c.2471>:
     2d7:	20 28 68 6f 6d 69 6e 67 20 70 75 6c 6c 2d 6f 66      (homing pull-of
     2e7:	66 2c 20 6d 6d 29 0d 0a 00                          f, mm)...

000002f0 <__c.2469>:
     2f0:	20 28 68 6f 6d 69 6e 67 20 64 65 62 6f 75 6e 63      (homing debounc
     300:	65 2c 20 6d 73 65 63 29 0d 0a 24 32 37 3d 00        e, msec)..$27=.

0000030f <__c.2467>:
     30f:	20 28 68 6f 6d 69 6e 67 20 73 65 65 6b 2c 20 6d      (homing seek, m
     31f:	6d 2f 6d 69 6e 29 0d 0a 24 32 36 3d 00              m/min)..$26=.

0000032c <__c.2465>:
     32c:	20 28 68 6f 6d 69 6e 67 20 66 65 65 64 2c 20 6d      (homing feed, m
     33c:	6d 2f 6d 69 6e 29 0d 0a 24 32 35 3d 00              m/min)..$25=.

00000349 <__c.2463>:
     349:	29 0d 0a 24 32 34 3d 00                             )..$24=.

00000351 <__c.2461>:
     351:	20 28 68 6f 6d 69 6e 67 20 64 69 72 20 69 6e 76      (homing dir inv
     361:	65 72 74 20 6d 61 73 6b 3a 00                       ert mask:.

0000036b <__c.2459>:
     36b:	20 28 68 6f 6d 69 6e 67 20 63 79 63 6c 65 2c 20      (homing cycle, 
     37b:	62 6f 6f 6c 29 0d 0a 24 32 33 3d 00                 bool)..$23=.

00000387 <__c.2457>:
     387:	20 28 68 61 72 64 20 6c 69 6d 69 74 73 2c 20 62      (hard limits, b
     397:	6f 6f 6c 29 0d 0a 24 32 32 3d 00                    ool)..$22=.

000003a2 <__c.2455>:
     3a2:	20 28 73 6f 66 74 20 6c 69 6d 69 74 73 2c 20 62      (soft limits, b
     3b2:	6f 6f 6c 29 0d 0a 24 32 31 3d 00                    ool)..$21=.

000003bd <__c.2453>:
     3bd:	20 28 72 65 70 6f 72 74 20 69 6e 63 68 65 73 2c      (report inches,
     3cd:	20 62 6f 6f 6c 29 0d 0a 24 32 30 3d 00               bool)..$20=.

000003da <__c.2451>:
     3da:	20 28 61 72 63 20 74 6f 6c 65 72 61 6e 63 65 2c      (arc tolerance,
     3ea:	20 6d 6d 29 0d 0a 24 31 33 3d 00                     mm)..$13=.

000003f5 <__c.2449>:
     3f5:	20 28 6a 75 6e 63 74 69 6f 6e 20 64 65 76 69 61      (junction devia
     405:	74 69 6f 6e 2c 20 6d 6d 29 0d 0a 24 31 32 3d 00     tion, mm)..$12=.

00000415 <__c.2447>:
     415:	29 0d 0a 24 31 31 3d 00                             )..$11=.

0000041d <__c.2445>:
     41d:	20 28 73 74 61 74 75 73 20 72 65 70 6f 72 74 20      (status report 
     42d:	6d 61 73 6b 3a 00                                   mask:.

00000433 <__c.2443>:
     433:	20 28 70 72 6f 62 65 20 70 69 6e 20 69 6e 76 65      (probe pin inve
     443:	72 74 2c 20 62 6f 6f 6c 29 0d 0a 24 31 30 3d 00     rt, bool)..$10=.

00000453 <__c.2441>:
     453:	20 28 6c 69 6d 69 74 20 70 69 6e 73 20 69 6e 76      (limit pins inv
     463:	65 72 74 2c 20 62 6f 6f 6c 29 0d 0a 24 36 3d 00     ert, bool)..$6=.

00000473 <__c.2439>:
     473:	20 28 73 74 65 70 20 65 6e 61 62 6c 65 20 69 6e      (step enable in
     483:	76 65 72 74 2c 20 62 6f 6f 6c 29 0d 0a 24 35 3d     vert, bool)..$5=
     493:	00                                                  .

00000494 <__c.2437>:
     494:	29 0d 0a 24 34 3d 00                                )..$4=.

0000049b <__c.2435>:
     49b:	20 28 64 69 72 20 70 6f 72 74 20 69 6e 76 65 72      (dir port inver
     4ab:	74 20 6d 61 73 6b 3a 00                             t mask:.

000004b3 <__c.2433>:
     4b3:	29 0d 0a 24 33 3d 00                                )..$3=.

000004ba <__c.2431>:
     4ba:	20 28 73 74 65 70 20 70 6f 72 74 20 69 6e 76 65      (step port inve
     4ca:	72 74 20 6d 61 73 6b 3a 00                          rt mask:.

000004d3 <__c.2429>:
     4d3:	20 28 73 74 65 70 20 69 64 6c 65 20 64 65 6c 61      (step idle dela
     4e3:	79 2c 20 6d 73 65 63 29 0d 0a 24 32 3d 00           y, msec)..$2=.

000004f1 <__c.2427>:
     4f1:	20 28 73 74 65 70 20 70 75 6c 73 65 2c 20 75 73      (step pulse, us
     501:	65 63 29 0d 0a 24 31 3d 00                          ec)..$1=.

0000050a <__c.2425>:
     50a:	24 30 3d 00                                         $0=.

0000050e <__c.2421>:
     50e:	24 24 20 28 76 69 65 77 20 47 72 62 6c 20 73 65     $$ (view Grbl se
     51e:	74 74 69 6e 67 73 29 0d 0a 24 23 20 28 76 69 65     ttings)..$# (vie
     52e:	77 20 23 20 70 61 72 61 6d 65 74 65 72 73 29 0d     w # parameters).
     53e:	0a 24 47 20 28 76 69 65 77 20 70 61 72 73 65 72     .$G (view parser
     54e:	20 73 74 61 74 65 29 0d 0a 24 49 20 28 76 69 65      state)..$I (vie
     55e:	77 20 62 75 69 6c 64 20 69 6e 66 6f 29 0d 0a 24     w build info)..$
     56e:	4e 20 28 76 69 65 77 20 73 74 61 72 74 75 70 20     N (view startup 
     57e:	62 6c 6f 63 6b 73 29 0d 0a 24 78 3d 76 61 6c 75     blocks)..$x=valu
     58e:	65 20 28 73 61 76 65 20 47 72 62 6c 20 73 65 74     e (save Grbl set
     59e:	74 69 6e 67 29 0d 0a 24 4e 78 3d 6c 69 6e 65 20     ting)..$Nx=line 
     5ae:	28 73 61 76 65 20 73 74 61 72 74 75 70 20 62 6c     (save startup bl
     5be:	6f 63 6b 29 0d 0a 24 43 20 28 63 68 65 63 6b 20     ock)..$C (check 
     5ce:	67 63 6f 64 65 20 6d 6f 64 65 29 0d 0a 24 58 20     gcode mode)..$X 
     5de:	28 6b 69 6c 6c 20 61 6c 61 72 6d 20 6c 6f 63 6b     (kill alarm lock
     5ee:	29 0d 0a 24 48 20 28 72 75 6e 20 68 6f 6d 69 6e     )..$H (run homin
     5fe:	67 20 63 79 63 6c 65 29 0d 0a 7e 20 28 63 79 63     g cycle)..~ (cyc
     60e:	6c 65 20 73 74 61 72 74 29 0d 0a 21 20 28 66 65     le start)..! (fe
     61e:	65 64 20 68 6f 6c 64 29 0d 0a 3f 20 28 63 75 72     ed hold)..? (cur
     62e:	72 65 6e 74 20 73 74 61 74 75 73 29 0d 0a 63 74     rent status)..ct
     63e:	72 6c 2d 78 20 28 72 65 73 65 74 20 47 72 62 6c     rl-x (reset Grbl
     64e:	29 0d 0a 00                                         )...

00000652 <__c.2417>:
     652:	0d 0a 47 72 62 6c 20 30 2e 39 6a 20 5b 27 24 27     ..Grbl 0.9j ['$'
     662:	20 66 6f 72 20 68 65 6c 70 5d 0d 0a 00               for help]...

0000066f <__c.2413>:
     66f:	5d 0d 0a 00                                         ]...

00000673 <__c.2411>:
     673:	52 65 73 74 6f 72 69 6e 67 20 64 65 66 61 75 6c     Restoring defaul
     683:	74 73 00                                            ts.

00000686 <__c.2408>:
     686:	50 67 6d 20 45 6e 64 00                             Pgm End.

0000068e <__c.2405>:
     68e:	43 68 65 63 6b 20 44 6f 6f 72 00                    Check Door.

00000699 <__c.2402>:
     699:	44 69 73 61 62 6c 65 64 00                          Disabled.

000006a2 <__c.2399>:
     6a2:	45 6e 61 62 6c 65 64 00                             Enabled.

000006aa <__c.2396>:
     6aa:	43 61 75 74 69 6f 6e 3a 20 55 6e 6c 6f 63 6b 65     Caution: Unlocke
     6ba:	64 00                                               d.

000006bc <__c.2393>:
     6bc:	27 24 48 27 7c 27 24 58 27 20 74 6f 20 75 6e 6c     '$H'|'$X' to unl
     6cc:	6f 63 6b 00                                         ock.

000006d0 <__c.2389>:
     6d0:	52 65 73 65 74 20 74 6f 20 63 6f 6e 74 69 6e 75     Reset to continu
     6e0:	65 00                                               e.

000006e2 <__c.2386>:
     6e2:	5b 00                                               [.

000006e4 <__c.2381>:
     6e4:	0d 0a 00                                            ...

000006e7 <__c.2379>:
     6e7:	48 6f 6d 69 6e 67 20 66 61 69 6c 00                 Homing fail.

000006f3 <__c.2376>:
     6f3:	50 72 6f 62 65 20 66 61 69 6c 00                    Probe fail.

000006fe <__c.2373>:
     6fe:	41 62 6f 72 74 20 64 75 72 69 6e 67 20 63 79 63     Abort during cyc
     70e:	6c 65 00                                            le.

00000711 <__c.2370>:
     711:	53 6f 66 74 20 6c 69 6d 69 74 00                    Soft limit.

0000071c <__c.2366>:
     71c:	48 61 72 64 20 6c 69 6d 69 74 00                    Hard limit.

00000727 <__c.2363>:
     727:	41 4c 41 52 4d 3a 20 00                             ALARM: .

0000072f <__c.2358>:
     72f:	0d 0a 00                                            ...

00000732 <__c.2356>:
     732:	49 6e 76 61 6c 69 64 20 67 63 6f 64 65 20 49 44     Invalid gcode ID
     742:	3a 00                                               :.

00000744 <__c.2353>:
     744:	55 6e 64 65 66 69 6e 65 64 20 66 65 65 64 20 72     Undefined feed r
     754:	61 74 65 00                                         ate.

00000758 <__c.2350>:
     758:	55 6e 73 75 70 70 6f 72 74 65 64 20 63 6f 6d 6d     Unsupported comm
     768:	61 6e 64 00                                         and.

0000076c <__c.2347>:
     76c:	4d 6f 64 61 6c 20 67 72 6f 75 70 20 76 69 6f 6c     Modal group viol
     77c:	61 74 69 6f 6e 00                                   ation.

00000782 <__c.2344>:
     782:	4c 69 6e 65 20 6f 76 65 72 66 6c 6f 77 00           Line overflow.

00000790 <__c.2341>:
     790:	48 6f 6d 69 6e 67 20 6e 6f 74 20 65 6e 61 62 6c     Homing not enabl
     7a0:	65 64 00                                            ed.

000007a3 <__c.2338>:
     7a3:	41 6c 61 72 6d 20 6c 6f 63 6b 00                    Alarm lock.

000007ae <__c.2335>:
     7ae:	4e 6f 74 20 69 64 6c 65 00                          Not idle.

000007b7 <__c.2332>:
     7b7:	45 45 50 52 4f 4d 20 72 65 61 64 20 66 61 69 6c     EEPROM read fail
     7c7:	2e 20 55 73 69 6e 67 20 64 65 66 61 75 6c 74 73     . Using defaults
     7d7:	00                                                  .

000007d8 <__c.2329>:
     7d8:	56 61 6c 75 65 20 3c 20 33 20 75 73 65 63 00        Value < 3 usec.

000007e7 <__c.2326>:
     7e7:	53 65 74 74 69 6e 67 20 64 69 73 61 62 6c 65 64     Setting disabled
     7f7:	00                                                  .

000007f8 <__c.2323>:
     7f8:	56 61 6c 75 65 20 3c 20 30 00                       Value < 0.

00000802 <__c.2320>:
     802:	49 6e 76 61 6c 69 64 20 73 74 61 74 65 6d 65 6e     Invalid statemen
     812:	74 00                                               t.

00000814 <__c.2317>:
     814:	42 61 64 20 6e 75 6d 62 65 72 20 66 6f 72 6d 61     Bad number forma
     824:	74 00                                               t.

00000826 <__c.2313>:
     826:	45 78 70 65 63 74 65 64 20 63 6f 6d 6d 61 6e 64     Expected command
     836:	20 6c 65 74 74 65 72 00                              letter.

0000083e <__c.2310>:
     83e:	65 72 72 6f 72 3a 20 00                             error: .

00000846 <__c.2308>:
     846:	6f 6b 0d 0a 00 00                                   ok....

0000084c <__ctors_end>:
     84c:	11 24       	eor	r1, r1
     84e:	1f be       	out	0x3f, r1	; 63
     850:	cf ef       	ldi	r28, 0xFF	; 255
     852:	d8 e0       	ldi	r29, 0x08	; 8
     854:	de bf       	out	0x3e, r29	; 62
     856:	cd bf       	out	0x3d, r28	; 61

00000858 <__do_clear_bss>:
     858:	26 e0       	ldi	r18, 0x06	; 6
     85a:	a0 e0       	ldi	r26, 0x00	; 0
     85c:	b1 e0       	ldi	r27, 0x01	; 1
     85e:	01 c0       	rjmp	.+2      	; 0x862 <.do_clear_bss_start>

00000860 <.do_clear_bss_loop>:
     860:	1d 92       	st	X+, r1

00000862 <.do_clear_bss_start>:
     862:	ae 3c       	cpi	r26, 0xCE	; 206
     864:	b2 07       	cpc	r27, r18
     866:	e1 f7       	brne	.-8      	; 0x860 <.do_clear_bss_loop>
     868:	0e 94 3a 04 	call	0x874	; 0x874 <main>
     86c:	0c 94 58 38 	jmp	0x70b0	; 0x70b0 <_exit>

00000870 <__bad_interrupt>:
     870:	0c 94 00 00 	jmp	0	; 0x0 <__vectors>

00000874 <main>:
     874:	0e 94 01 14 	call	0x2802	; 0x2802 <serial_init>
     878:	0e 94 50 23 	call	0x46a0	; 0x46a0 <settings_init>
     87c:	0e 94 78 19 	call	0x32f0	; 0x32f0 <stepper_init>
     880:	0e 94 ee 31 	call	0x63dc	; 0x63dc <system_init>
     884:	8e e1       	ldi	r24, 0x1E	; 30
     886:	e7 e2       	ldi	r30, 0x27	; 39
     888:	f5 e0       	ldi	r31, 0x05	; 5
     88a:	df 01       	movw	r26, r30
     88c:	1d 92       	st	X+, r1
     88e:	8a 95       	dec	r24
     890:	e9 f7       	brne	.-6      	; 0x88c <main+0x18>
     892:	81 e0       	ldi	r24, 0x01	; 1
     894:	80 93 27 05 	sts	0x0527, r24
     898:	78 94       	sei
     89a:	80 91 bd 06 	lds	r24, 0x06BD
     89e:	84 ff       	sbrs	r24, 4
     8a0:	03 c0       	rjmp	.+6      	; 0x8a8 <main+0x34>
     8a2:	81 e0       	ldi	r24, 0x01	; 1
     8a4:	80 93 28 05 	sts	0x0528, r24
     8a8:	0e 94 cf 14 	call	0x299e	; 0x299e <serial_reset_read_buffer>
     8ac:	0e 94 fd 08 	call	0x11fa	; 0x11fa <gc_init>
     8b0:	0e 94 50 13 	call	0x26a0	; 0x26a0 <spindle_init>
     8b4:	0e 94 d9 13 	call	0x27b2	; 0x27b2 <coolant_init>
     8b8:	0e 94 16 29 	call	0x522c	; 0x522c <limits_init>
     8bc:	0e 94 10 2d 	call	0x5a20	; 0x5a20 <probe_init>
     8c0:	0e 94 96 24 	call	0x492c	; 0x492c <plan_reset>
     8c4:	0e 94 4c 19 	call	0x3298	; 0x3298 <st_reset>
     8c8:	0e 94 e6 27 	call	0x4fcc	; 0x4fcc <plan_sync_position>
     8cc:	0e 94 0f 09 	call	0x121e	; 0x121e <gc_sync_position>
     8d0:	10 92 27 05 	sts	0x0527, r1
     8d4:	10 92 45 05 	sts	0x0545, r1
     8d8:	10 92 47 05 	sts	0x0547, r1
     8dc:	10 92 29 05 	sts	0x0529, r1
     8e0:	10 92 2a 05 	sts	0x052A, r1
     8e4:	0e 94 03 16 	call	0x2c06	; 0x2c06 <protocol_main_loop>
     8e8:	df cf       	rjmp	.-66     	; 0x8a8 <main+0x34>

000008ea <mc_line>:
     8ea:	ef 92       	push	r14
     8ec:	ff 92       	push	r15
     8ee:	1f 93       	push	r17
     8f0:	cf 93       	push	r28
     8f2:	df 93       	push	r29
     8f4:	00 d0       	rcall	.+0      	; 0x8f6 <mc_line+0xc>
     8f6:	00 d0       	rcall	.+0      	; 0x8f8 <mc_line+0xe>
     8f8:	cd b7       	in	r28, 0x3d	; 61
     8fa:	de b7       	in	r29, 0x3e	; 62
     8fc:	7c 01       	movw	r14, r24
     8fe:	12 2f       	mov	r17, r18
     900:	80 91 bd 06 	lds	r24, 0x06BD
     904:	85 ff       	sbrs	r24, 5
     906:	0b c0       	rjmp	.+22     	; 0x91e <__stack+0x1f>
     908:	c7 01       	movw	r24, r14
     90a:	49 83       	std	Y+1, r20	; 0x01
     90c:	5a 83       	std	Y+2, r21	; 0x02
     90e:	6b 83       	std	Y+3, r22	; 0x03
     910:	7c 83       	std	Y+4, r23	; 0x04
     912:	0e 94 74 2b 	call	0x56e8	; 0x56e8 <limits_soft_check>
     916:	7c 81       	ldd	r23, Y+4	; 0x04
     918:	6b 81       	ldd	r22, Y+3	; 0x03
     91a:	5a 81       	ldd	r21, Y+2	; 0x02
     91c:	49 81       	ldd	r20, Y+1	; 0x01
     91e:	80 91 28 05 	lds	r24, 0x0528
     922:	82 30       	cpi	r24, 0x02	; 2
     924:	31 f1       	breq	.+76     	; 0x972 <__stack+0x73>
     926:	49 83       	std	Y+1, r20	; 0x01
     928:	5a 83       	std	Y+2, r21	; 0x02
     92a:	6b 83       	std	Y+3, r22	; 0x03
     92c:	7c 83       	std	Y+4, r23	; 0x04
     92e:	0e 94 d4 14 	call	0x29a8	; 0x29a8 <protocol_execute_realtime>
     932:	80 91 27 05 	lds	r24, 0x0527
     936:	81 11       	cpse	r24, r1
     938:	1c c0       	rjmp	.+56     	; 0x972 <__stack+0x73>
     93a:	0e 94 e5 24 	call	0x49ca	; 0x49ca <plan_check_full_buffer>
     93e:	49 81       	ldd	r20, Y+1	; 0x01
     940:	5a 81       	ldd	r21, Y+2	; 0x02
     942:	6b 81       	ldd	r22, Y+3	; 0x03
     944:	7c 81       	ldd	r23, Y+4	; 0x04
     946:	88 23       	and	r24, r24
     948:	39 f0       	breq	.+14     	; 0x958 <__stack+0x59>
     94a:	0e 94 fa 15 	call	0x2bf4	; 0x2bf4 <protocol_auto_cycle_start>
     94e:	49 81       	ldd	r20, Y+1	; 0x01
     950:	5a 81       	ldd	r21, Y+2	; 0x02
     952:	6b 81       	ldd	r22, Y+3	; 0x03
     954:	7c 81       	ldd	r23, Y+4	; 0x04
     956:	e7 cf       	rjmp	.-50     	; 0x926 <__stack+0x27>
     958:	21 2f       	mov	r18, r17
     95a:	c7 01       	movw	r24, r14
     95c:	0f 90       	pop	r0
     95e:	0f 90       	pop	r0
     960:	0f 90       	pop	r0
     962:	0f 90       	pop	r0
     964:	df 91       	pop	r29
     966:	cf 91       	pop	r28
     968:	1f 91       	pop	r17
     96a:	ff 90       	pop	r15
     96c:	ef 90       	pop	r14
     96e:	0c 94 ed 24 	jmp	0x49da	; 0x49da <plan_buffer_line>
     972:	0f 90       	pop	r0
     974:	0f 90       	pop	r0
     976:	0f 90       	pop	r0
     978:	0f 90       	pop	r0
     97a:	df 91       	pop	r29
     97c:	cf 91       	pop	r28
     97e:	1f 91       	pop	r17
     980:	ff 90       	pop	r15
     982:	ef 90       	pop	r14
     984:	08 95       	ret

00000986 <mc_arc>:
     986:	2f 92       	push	r2
     988:	3f 92       	push	r3
     98a:	4f 92       	push	r4
     98c:	5f 92       	push	r5
     98e:	6f 92       	push	r6
     990:	7f 92       	push	r7
     992:	8f 92       	push	r8
     994:	9f 92       	push	r9
     996:	af 92       	push	r10
     998:	bf 92       	push	r11
     99a:	cf 92       	push	r12
     99c:	df 92       	push	r13
     99e:	ef 92       	push	r14
     9a0:	ff 92       	push	r15
     9a2:	0f 93       	push	r16
     9a4:	1f 93       	push	r17
     9a6:	cf 93       	push	r28
     9a8:	df 93       	push	r29
     9aa:	cd b7       	in	r28, 0x3d	; 61
     9ac:	de b7       	in	r29, 0x3e	; 62
     9ae:	e7 97       	sbiw	r28, 0x37	; 55
     9b0:	0f b6       	in	r0, 0x3f	; 63
     9b2:	f8 94       	cli
     9b4:	de bf       	out	0x3e, r29	; 62
     9b6:	0f be       	out	0x3f, r0	; 63
     9b8:	cd bf       	out	0x3d, r28	; 61
     9ba:	9c 8b       	std	Y+20, r25	; 0x14
     9bc:	8b 8b       	std	Y+19, r24	; 0x13
     9be:	1b 01       	movw	r2, r22
     9c0:	3a 01       	movw	r6, r20
     9c2:	09 87       	std	Y+9, r16	; 0x09
     9c4:	1a 87       	std	Y+10, r17	; 0x0a
     9c6:	2b 87       	std	Y+11, r18	; 0x0b
     9c8:	3c 87       	std	Y+12, r19	; 0x0c
     9ca:	af 8a       	std	Y+23, r10	; 0x17
     9cc:	2d 96       	adiw	r28, 0x0d	; 13
     9ce:	1f ad       	ldd	r17, Y+63	; 0x3f
     9d0:	2d 97       	sbiw	r28, 0x0d	; 13
     9d2:	2e 96       	adiw	r28, 0x0e	; 14
     9d4:	2f ad       	ldd	r18, Y+63	; 0x3f
     9d6:	2e 97       	sbiw	r28, 0x0e	; 14
     9d8:	29 8b       	std	Y+17, r18	; 0x11
     9da:	2f 96       	adiw	r28, 0x0f	; 15
     9dc:	3f ad       	ldd	r19, Y+63	; 0x3f
     9de:	2f 97       	sbiw	r28, 0x0f	; 15
     9e0:	3d 8b       	std	Y+21, r19	; 0x15
     9e2:	84 e0       	ldi	r24, 0x04	; 4
     9e4:	88 9e       	mul	r8, r24
     9e6:	a0 01       	movw	r20, r0
     9e8:	11 24       	eor	r1, r1
     9ea:	5a 83       	std	Y+2, r21	; 0x02
     9ec:	49 83       	std	Y+1, r20	; 0x01
     9ee:	ab 89       	ldd	r26, Y+19	; 0x13
     9f0:	bc 89       	ldd	r27, Y+20	; 0x14
     9f2:	a4 0f       	add	r26, r20
     9f4:	b5 1f       	adc	r27, r21
     9f6:	b9 8f       	std	Y+25, r27	; 0x19
     9f8:	a8 8f       	std	Y+24, r26	; 0x18
     9fa:	46 0d       	add	r20, r6
     9fc:	57 1d       	adc	r21, r7
     9fe:	5b 8f       	std	Y+27, r21	; 0x1b
     a00:	4a 8f       	std	Y+26, r20	; 0x1a
     a02:	fa 01       	movw	r30, r20
     a04:	80 80       	ld	r8, Z
     a06:	91 80       	ldd	r9, Z+1	; 0x01
     a08:	a2 80       	ldd	r10, Z+2	; 0x02
     a0a:	b3 80       	ldd	r11, Z+3	; 0x03
     a0c:	2d 91       	ld	r18, X+
     a0e:	3d 91       	ld	r19, X+
     a10:	4d 91       	ld	r20, X+
     a12:	5c 91       	ld	r21, X
     a14:	c5 01       	movw	r24, r10
     a16:	b4 01       	movw	r22, r8
     a18:	0e 94 06 34 	call	0x680c	; 0x680c <__addsf3>
     a1c:	6c 8f       	std	Y+28, r22	; 0x1c
     a1e:	7d 8f       	std	Y+29, r23	; 0x1d
     a20:	8e 8f       	std	Y+30, r24	; 0x1e
     a22:	9f 8f       	std	Y+31, r25	; 0x1f
     a24:	f4 e0       	ldi	r31, 0x04	; 4
     a26:	1f 9f       	mul	r17, r31
     a28:	80 01       	movw	r16, r0
     a2a:	11 24       	eor	r1, r1
     a2c:	2b 89       	ldd	r18, Y+19	; 0x13
     a2e:	3c 89       	ldd	r19, Y+20	; 0x14
     a30:	20 0f       	add	r18, r16
     a32:	31 1f       	adc	r19, r17
     a34:	39 a3       	std	Y+33, r19	; 0x21
     a36:	28 a3       	std	Y+32, r18	; 0x20
     a38:	a3 01       	movw	r20, r6
     a3a:	40 0f       	add	r20, r16
     a3c:	51 1f       	adc	r21, r17
     a3e:	5b a3       	std	Y+35, r21	; 0x23
     a40:	4a a3       	std	Y+34, r20	; 0x22
     a42:	da 01       	movw	r26, r20
     a44:	4d 90       	ld	r4, X+
     a46:	5d 90       	ld	r5, X+
     a48:	6d 90       	ld	r6, X+
     a4a:	7c 90       	ld	r7, X
     a4c:	f9 01       	movw	r30, r18
     a4e:	20 81       	ld	r18, Z
     a50:	31 81       	ldd	r19, Z+1	; 0x01
     a52:	42 81       	ldd	r20, Z+2	; 0x02
     a54:	53 81       	ldd	r21, Z+3	; 0x03
     a56:	c3 01       	movw	r24, r6
     a58:	b2 01       	movw	r22, r4
     a5a:	0e 94 06 34 	call	0x680c	; 0x680c <__addsf3>
     a5e:	6c a3       	std	Y+36, r22	; 0x24
     a60:	7d a3       	std	Y+37, r23	; 0x25
     a62:	8e a3       	std	Y+38, r24	; 0x26
     a64:	9f a3       	std	Y+39, r25	; 0x27
     a66:	a5 01       	movw	r20, r10
     a68:	94 01       	movw	r18, r8
     a6a:	50 58       	subi	r21, 0x80	; 128
     a6c:	2d 87       	std	Y+13, r18	; 0x0d
     a6e:	3e 87       	std	Y+14, r19	; 0x0e
     a70:	4f 87       	std	Y+15, r20	; 0x0f
     a72:	58 8b       	std	Y+16, r21	; 0x10
     a74:	d3 01       	movw	r26, r6
     a76:	c2 01       	movw	r24, r4
     a78:	b0 58       	subi	r27, 0x80	; 128
     a7a:	8d 83       	std	Y+5, r24	; 0x05
     a7c:	9e 83       	std	Y+6, r25	; 0x06
     a7e:	af 83       	std	Y+7, r26	; 0x07
     a80:	b8 87       	std	Y+8, r27	; 0x08
     a82:	e9 81       	ldd	r30, Y+1	; 0x01
     a84:	fa 81       	ldd	r31, Y+2	; 0x02
     a86:	e2 0d       	add	r30, r2
     a88:	f3 1d       	adc	r31, r3
     a8a:	2c 8d       	ldd	r18, Y+28	; 0x1c
     a8c:	3d 8d       	ldd	r19, Y+29	; 0x1d
     a8e:	4e 8d       	ldd	r20, Y+30	; 0x1e
     a90:	5f 8d       	ldd	r21, Y+31	; 0x1f
     a92:	60 81       	ld	r22, Z
     a94:	71 81       	ldd	r23, Z+1	; 0x01
     a96:	82 81       	ldd	r24, Z+2	; 0x02
     a98:	93 81       	ldd	r25, Z+3	; 0x03
     a9a:	0e 94 05 34 	call	0x680a	; 0x680a <__subsf3>
     a9e:	2b 01       	movw	r4, r22
     aa0:	3c 01       	movw	r6, r24
     aa2:	f1 01       	movw	r30, r2
     aa4:	e0 0f       	add	r30, r16
     aa6:	f1 1f       	adc	r31, r17
     aa8:	2c a1       	ldd	r18, Y+36	; 0x24
     aaa:	3d a1       	ldd	r19, Y+37	; 0x25
     aac:	4e a1       	ldd	r20, Y+38	; 0x26
     aae:	5f a1       	ldd	r21, Y+39	; 0x27
     ab0:	60 81       	ld	r22, Z
     ab2:	71 81       	ldd	r23, Z+1	; 0x01
     ab4:	82 81       	ldd	r24, Z+2	; 0x02
     ab6:	93 81       	ldd	r25, Z+3	; 0x03
     ab8:	0e 94 05 34 	call	0x680a	; 0x680a <__subsf3>
     abc:	4b 01       	movw	r8, r22
     abe:	5c 01       	movw	r10, r24
     ac0:	a3 01       	movw	r20, r6
     ac2:	92 01       	movw	r18, r4
     ac4:	6d 85       	ldd	r22, Y+13	; 0x0d
     ac6:	7e 85       	ldd	r23, Y+14	; 0x0e
     ac8:	8f 85       	ldd	r24, Y+15	; 0x0f
     aca:	98 89       	ldd	r25, Y+16	; 0x10
     acc:	0e 94 1d 37 	call	0x6e3a	; 0x6e3a <__mulsf3>
     ad0:	69 83       	std	Y+1, r22	; 0x01
     ad2:	7a 83       	std	Y+2, r23	; 0x02
     ad4:	8b 83       	std	Y+3, r24	; 0x03
     ad6:	9c 83       	std	Y+4, r25	; 0x04
     ad8:	a5 01       	movw	r20, r10
     ada:	94 01       	movw	r18, r8
     adc:	6d 81       	ldd	r22, Y+5	; 0x05
     ade:	7e 81       	ldd	r23, Y+6	; 0x06
     ae0:	8f 81       	ldd	r24, Y+7	; 0x07
     ae2:	98 85       	ldd	r25, Y+8	; 0x08
     ae4:	0e 94 1d 37 	call	0x6e3a	; 0x6e3a <__mulsf3>
     ae8:	9b 01       	movw	r18, r22
     aea:	ac 01       	movw	r20, r24
     aec:	69 81       	ldd	r22, Y+1	; 0x01
     aee:	7a 81       	ldd	r23, Y+2	; 0x02
     af0:	8b 81       	ldd	r24, Y+3	; 0x03
     af2:	9c 81       	ldd	r25, Y+4	; 0x04
     af4:	0e 94 06 34 	call	0x680c	; 0x680c <__addsf3>
     af8:	69 83       	std	Y+1, r22	; 0x01
     afa:	7a 83       	std	Y+2, r23	; 0x02
     afc:	8b 83       	std	Y+3, r24	; 0x03
     afe:	9c 83       	std	Y+4, r25	; 0x04
     b00:	a5 01       	movw	r20, r10
     b02:	94 01       	movw	r18, r8
     b04:	6d 85       	ldd	r22, Y+13	; 0x0d
     b06:	7e 85       	ldd	r23, Y+14	; 0x0e
     b08:	8f 85       	ldd	r24, Y+15	; 0x0f
     b0a:	98 89       	ldd	r25, Y+16	; 0x10
     b0c:	0e 94 1d 37 	call	0x6e3a	; 0x6e3a <__mulsf3>
     b10:	4b 01       	movw	r8, r22
     b12:	5c 01       	movw	r10, r24
     b14:	a3 01       	movw	r20, r6
     b16:	92 01       	movw	r18, r4
     b18:	6d 81       	ldd	r22, Y+5	; 0x05
     b1a:	7e 81       	ldd	r23, Y+6	; 0x06
     b1c:	8f 81       	ldd	r24, Y+7	; 0x07
     b1e:	98 85       	ldd	r25, Y+8	; 0x08
     b20:	0e 94 1d 37 	call	0x6e3a	; 0x6e3a <__mulsf3>
     b24:	9b 01       	movw	r18, r22
     b26:	ac 01       	movw	r20, r24
     b28:	c5 01       	movw	r24, r10
     b2a:	b4 01       	movw	r22, r8
     b2c:	0e 94 05 34 	call	0x680a	; 0x680a <__subsf3>
     b30:	29 81       	ldd	r18, Y+1	; 0x01
     b32:	3a 81       	ldd	r19, Y+2	; 0x02
     b34:	4b 81       	ldd	r20, Y+3	; 0x03
     b36:	5c 81       	ldd	r21, Y+4	; 0x04
     b38:	0e 94 79 34 	call	0x68f2	; 0x68f2 <atan2>
     b3c:	2b 01       	movw	r4, r22
     b3e:	3c 01       	movw	r6, r24
     b40:	9d 89       	ldd	r25, Y+21	; 0x15
     b42:	99 23       	and	r25, r25
     b44:	99 f0       	breq	.+38     	; 0xb6c <mc_arc+0x1e6>
     b46:	2d eb       	ldi	r18, 0xBD	; 189
     b48:	37 e3       	ldi	r19, 0x37	; 55
     b4a:	46 e0       	ldi	r20, 0x06	; 6
     b4c:	55 eb       	ldi	r21, 0xB5	; 181
     b4e:	c3 01       	movw	r24, r6
     b50:	b2 01       	movw	r22, r4
     b52:	0e 94 e2 36 	call	0x6dc4	; 0x6dc4 <__gesf2>
     b56:	87 fd       	sbrc	r24, 7
     b58:	1d c0       	rjmp	.+58     	; 0xb94 <mc_arc+0x20e>
     b5a:	2b ed       	ldi	r18, 0xDB	; 219
     b5c:	3f e0       	ldi	r19, 0x0F	; 15
     b5e:	49 ec       	ldi	r20, 0xC9	; 201
     b60:	50 e4       	ldi	r21, 0x40	; 64
     b62:	c3 01       	movw	r24, r6
     b64:	b2 01       	movw	r22, r4
     b66:	0e 94 05 34 	call	0x680a	; 0x680a <__subsf3>
     b6a:	12 c0       	rjmp	.+36     	; 0xb90 <mc_arc+0x20a>
     b6c:	2d eb       	ldi	r18, 0xBD	; 189
     b6e:	37 e3       	ldi	r19, 0x37	; 55
     b70:	46 e0       	ldi	r20, 0x06	; 6
     b72:	55 e3       	ldi	r21, 0x35	; 53
     b74:	c3 01       	movw	r24, r6
     b76:	b2 01       	movw	r22, r4
     b78:	0e 94 df 34 	call	0x69be	; 0x69be <__cmpsf2>
     b7c:	18 16       	cp	r1, r24
     b7e:	54 f0       	brlt	.+20     	; 0xb94 <mc_arc+0x20e>
     b80:	2b ed       	ldi	r18, 0xDB	; 219
     b82:	3f e0       	ldi	r19, 0x0F	; 15
     b84:	49 ec       	ldi	r20, 0xC9	; 201
     b86:	50 e4       	ldi	r21, 0x40	; 64
     b88:	c3 01       	movw	r24, r6
     b8a:	b2 01       	movw	r22, r4
     b8c:	0e 94 06 34 	call	0x680c	; 0x680c <__addsf3>
     b90:	2b 01       	movw	r4, r22
     b92:	3c 01       	movw	r6, r24
     b94:	80 90 b9 06 	lds	r8, 0x06B9
     b98:	90 90 ba 06 	lds	r9, 0x06BA
     b9c:	a0 90 bb 06 	lds	r10, 0x06BB
     ba0:	b0 90 bc 06 	lds	r11, 0x06BC
     ba4:	29 85       	ldd	r18, Y+9	; 0x09
     ba6:	3a 85       	ldd	r19, Y+10	; 0x0a
     ba8:	4b 85       	ldd	r20, Y+11	; 0x0b
     baa:	5c 85       	ldd	r21, Y+12	; 0x0c
     bac:	ca 01       	movw	r24, r20
     bae:	b9 01       	movw	r22, r18
     bb0:	0e 94 06 34 	call	0x680c	; 0x680c <__addsf3>
     bb4:	a5 01       	movw	r20, r10
     bb6:	94 01       	movw	r18, r8
     bb8:	0e 94 05 34 	call	0x680a	; 0x680a <__subsf3>
     bbc:	9b 01       	movw	r18, r22
     bbe:	ac 01       	movw	r20, r24
     bc0:	c5 01       	movw	r24, r10
     bc2:	b4 01       	movw	r22, r8
     bc4:	0e 94 1d 37 	call	0x6e3a	; 0x6e3a <__mulsf3>
     bc8:	0e 94 aa 37 	call	0x6f54	; 0x6f54 <sqrt>
     bcc:	4b 01       	movw	r8, r22
     bce:	5c 01       	movw	r10, r24
     bd0:	20 e0       	ldi	r18, 0x00	; 0
     bd2:	30 e0       	ldi	r19, 0x00	; 0
     bd4:	40 e0       	ldi	r20, 0x00	; 0
     bd6:	5f e3       	ldi	r21, 0x3F	; 63
     bd8:	c3 01       	movw	r24, r6
     bda:	b2 01       	movw	r22, r4
     bdc:	0e 94 1d 37 	call	0x6e3a	; 0x6e3a <__mulsf3>
     be0:	29 85       	ldd	r18, Y+9	; 0x09
     be2:	3a 85       	ldd	r19, Y+10	; 0x0a
     be4:	4b 85       	ldd	r20, Y+11	; 0x0b
     be6:	5c 85       	ldd	r21, Y+12	; 0x0c
     be8:	0e 94 1d 37 	call	0x6e3a	; 0x6e3a <__mulsf3>
     bec:	9f 77       	andi	r25, 0x7F	; 127
     bee:	a5 01       	movw	r20, r10
     bf0:	94 01       	movw	r18, r8
     bf2:	0e 94 e6 34 	call	0x69cc	; 0x69cc <__divsf3>
     bf6:	0e 94 bc 35 	call	0x6b78	; 0x6b78 <floor>
     bfa:	0e 94 53 35 	call	0x6aa6	; 0x6aa6 <__fixunssfsi>
     bfe:	7e 8b       	std	Y+22, r23	; 0x16
     c00:	6d 8b       	std	Y+21, r22	; 0x15
     c02:	db 01       	movw	r26, r22
     c04:	ab 2b       	or	r26, r27
     c06:	09 f4       	brne	.+2      	; 0xc0a <mc_arc+0x284>
     c08:	86 c1       	rjmp	.+780    	; 0xf16 <mc_arc+0x590>
     c0a:	4b 01       	movw	r8, r22
     c0c:	a1 2c       	mov	r10, r1
     c0e:	b1 2c       	mov	r11, r1
     c10:	bf 89       	ldd	r27, Y+23	; 0x17
     c12:	bb 23       	and	r27, r27
     c14:	61 f0       	breq	.+24     	; 0xc2e <mc_arc+0x2a8>
     c16:	c5 01       	movw	r24, r10
     c18:	b4 01       	movw	r22, r8
     c1a:	0e 94 7f 35 	call	0x6afe	; 0x6afe <__floatunsisf>
     c1e:	9b 01       	movw	r18, r22
     c20:	ac 01       	movw	r20, r24
     c22:	c7 01       	movw	r24, r14
     c24:	b6 01       	movw	r22, r12
     c26:	0e 94 1d 37 	call	0x6e3a	; 0x6e3a <__mulsf3>
     c2a:	6b 01       	movw	r12, r22
     c2c:	7c 01       	movw	r14, r24
     c2e:	c5 01       	movw	r24, r10
     c30:	b4 01       	movw	r22, r8
     c32:	0e 94 7f 35 	call	0x6afe	; 0x6afe <__floatunsisf>
     c36:	4b 01       	movw	r8, r22
     c38:	5c 01       	movw	r10, r24
     c3a:	9b 01       	movw	r18, r22
     c3c:	ac 01       	movw	r20, r24
     c3e:	c3 01       	movw	r24, r6
     c40:	b2 01       	movw	r22, r4
     c42:	0e 94 e6 34 	call	0x69cc	; 0x69cc <__divsf3>
     c46:	69 87       	std	Y+9, r22	; 0x09
     c48:	7a 87       	std	Y+10, r23	; 0x0a
     c4a:	8b 87       	std	Y+11, r24	; 0x0b
     c4c:	9c 87       	std	Y+12, r25	; 0x0c
     c4e:	f9 89       	ldd	r31, Y+17	; 0x11
     c50:	e4 e0       	ldi	r30, 0x04	; 4
     c52:	fe 9f       	mul	r31, r30
     c54:	c0 01       	movw	r24, r0
     c56:	11 24       	eor	r1, r1
     c58:	2b 89       	ldd	r18, Y+19	; 0x13
     c5a:	3c 89       	ldd	r19, Y+20	; 0x14
     c5c:	28 0f       	add	r18, r24
     c5e:	39 1f       	adc	r19, r25
     c60:	3a 8b       	std	Y+18, r19	; 0x12
     c62:	29 8b       	std	Y+17, r18	; 0x11
     c64:	f1 01       	movw	r30, r2
     c66:	e8 0f       	add	r30, r24
     c68:	f9 1f       	adc	r31, r25
     c6a:	d9 01       	movw	r26, r18
     c6c:	2d 91       	ld	r18, X+
     c6e:	3d 91       	ld	r19, X+
     c70:	4d 91       	ld	r20, X+
     c72:	5c 91       	ld	r21, X
     c74:	60 81       	ld	r22, Z
     c76:	71 81       	ldd	r23, Z+1	; 0x01
     c78:	82 81       	ldd	r24, Z+2	; 0x02
     c7a:	93 81       	ldd	r25, Z+3	; 0x03
     c7c:	0e 94 05 34 	call	0x680a	; 0x680a <__subsf3>
     c80:	a5 01       	movw	r20, r10
     c82:	94 01       	movw	r18, r8
     c84:	0e 94 e6 34 	call	0x69cc	; 0x69cc <__divsf3>
     c88:	6c ab       	std	Y+52, r22	; 0x34
     c8a:	7d ab       	std	Y+53, r23	; 0x35
     c8c:	8e ab       	std	Y+54, r24	; 0x36
     c8e:	9f ab       	std	Y+55, r25	; 0x37
     c90:	29 85       	ldd	r18, Y+9	; 0x09
     c92:	3a 85       	ldd	r19, Y+10	; 0x0a
     c94:	4b 85       	ldd	r20, Y+11	; 0x0b
     c96:	5c 85       	ldd	r21, Y+12	; 0x0c
     c98:	ca 01       	movw	r24, r20
     c9a:	b9 01       	movw	r22, r18
     c9c:	0e 94 1d 37 	call	0x6e3a	; 0x6e3a <__mulsf3>
     ca0:	9b 01       	movw	r18, r22
     ca2:	ac 01       	movw	r20, r24
     ca4:	60 e0       	ldi	r22, 0x00	; 0
     ca6:	70 e0       	ldi	r23, 0x00	; 0
     ca8:	80 e0       	ldi	r24, 0x00	; 0
     caa:	90 e4       	ldi	r25, 0x40	; 64
     cac:	0e 94 05 34 	call	0x680a	; 0x680a <__subsf3>
     cb0:	4b 01       	movw	r8, r22
     cb2:	5c 01       	movw	r10, r24
     cb4:	2b ea       	ldi	r18, 0xAB	; 171
     cb6:	3a ea       	ldi	r19, 0xAA	; 170
     cb8:	4a e2       	ldi	r20, 0x2A	; 42
     cba:	5e e3       	ldi	r21, 0x3E	; 62
     cbc:	69 85       	ldd	r22, Y+9	; 0x09
     cbe:	7a 85       	ldd	r23, Y+10	; 0x0a
     cc0:	8b 85       	ldd	r24, Y+11	; 0x0b
     cc2:	9c 85       	ldd	r25, Y+12	; 0x0c
     cc4:	0e 94 1d 37 	call	0x6e3a	; 0x6e3a <__mulsf3>
     cc8:	2b 01       	movw	r4, r22
     cca:	3c 01       	movw	r6, r24
     ccc:	20 e0       	ldi	r18, 0x00	; 0
     cce:	30 e0       	ldi	r19, 0x00	; 0
     cd0:	40 e8       	ldi	r20, 0x80	; 128
     cd2:	50 e4       	ldi	r21, 0x40	; 64
     cd4:	c5 01       	movw	r24, r10
     cd6:	b4 01       	movw	r22, r8
     cd8:	0e 94 06 34 	call	0x680c	; 0x680c <__addsf3>
     cdc:	9b 01       	movw	r18, r22
     cde:	ac 01       	movw	r20, r24
     ce0:	c3 01       	movw	r24, r6
     ce2:	b2 01       	movw	r22, r4
     ce4:	0e 94 1d 37 	call	0x6e3a	; 0x6e3a <__mulsf3>
     ce8:	68 a7       	std	Y+40, r22	; 0x28
     cea:	79 a7       	std	Y+41, r23	; 0x29
     cec:	8a a7       	std	Y+42, r24	; 0x2a
     cee:	9b a7       	std	Y+43, r25	; 0x2b
     cf0:	20 e0       	ldi	r18, 0x00	; 0
     cf2:	30 e0       	ldi	r19, 0x00	; 0
     cf4:	40 e0       	ldi	r20, 0x00	; 0
     cf6:	5f e3       	ldi	r21, 0x3F	; 63
     cf8:	c5 01       	movw	r24, r10
     cfa:	b4 01       	movw	r22, r8
     cfc:	0e 94 1d 37 	call	0x6e3a	; 0x6e3a <__mulsf3>
     d00:	6c a7       	std	Y+44, r22	; 0x2c
     d02:	7d a7       	std	Y+45, r23	; 0x2d
     d04:	8e a7       	std	Y+46, r24	; 0x2e
     d06:	9f a7       	std	Y+47, r25	; 0x2f
     d08:	19 82       	std	Y+1, r1	; 0x01
     d0a:	01 e0       	ldi	r16, 0x01	; 1
     d0c:	10 e0       	ldi	r17, 0x00	; 0
     d0e:	ed 89       	ldd	r30, Y+21	; 0x15
     d10:	fe 89       	ldd	r31, Y+22	; 0x16
     d12:	0e 17       	cp	r16, r30
     d14:	1f 07       	cpc	r17, r31
     d16:	09 f4       	brne	.+2      	; 0xd1a <mc_arc+0x394>
     d18:	fe c0       	rjmp	.+508    	; 0xf16 <mc_arc+0x590>
     d1a:	b9 81       	ldd	r27, Y+1	; 0x01
     d1c:	bc 30       	cpi	r27, 0x0C	; 12
     d1e:	08 f0       	brcs	.+2      	; 0xd22 <mc_arc+0x39c>
     d20:	4a c0       	rjmp	.+148    	; 0xdb6 <mc_arc+0x430>
     d22:	2c a5       	ldd	r18, Y+44	; 0x2c
     d24:	3d a5       	ldd	r19, Y+45	; 0x2d
     d26:	4e a5       	ldd	r20, Y+46	; 0x2e
     d28:	5f a5       	ldd	r21, Y+47	; 0x2f
     d2a:	6d 81       	ldd	r22, Y+5	; 0x05
     d2c:	7e 81       	ldd	r23, Y+6	; 0x06
     d2e:	8f 81       	ldd	r24, Y+7	; 0x07
     d30:	98 85       	ldd	r25, Y+8	; 0x08
     d32:	0e 94 1d 37 	call	0x6e3a	; 0x6e3a <__mulsf3>
     d36:	4b 01       	movw	r8, r22
     d38:	5c 01       	movw	r10, r24
     d3a:	28 a5       	ldd	r18, Y+40	; 0x28
     d3c:	39 a5       	ldd	r19, Y+41	; 0x29
     d3e:	4a a5       	ldd	r20, Y+42	; 0x2a
     d40:	5b a5       	ldd	r21, Y+43	; 0x2b
     d42:	6d 85       	ldd	r22, Y+13	; 0x0d
     d44:	7e 85       	ldd	r23, Y+14	; 0x0e
     d46:	8f 85       	ldd	r24, Y+15	; 0x0f
     d48:	98 89       	ldd	r25, Y+16	; 0x10
     d4a:	0e 94 1d 37 	call	0x6e3a	; 0x6e3a <__mulsf3>
     d4e:	a5 01       	movw	r20, r10
     d50:	94 01       	movw	r18, r8
     d52:	0e 94 06 34 	call	0x680c	; 0x680c <__addsf3>
     d56:	b6 2e       	mov	r11, r22
     d58:	a7 2e       	mov	r10, r23
     d5a:	98 2e       	mov	r9, r24
     d5c:	89 2e       	mov	r8, r25
     d5e:	2c a5       	ldd	r18, Y+44	; 0x2c
     d60:	3d a5       	ldd	r19, Y+45	; 0x2d
     d62:	4e a5       	ldd	r20, Y+46	; 0x2e
     d64:	5f a5       	ldd	r21, Y+47	; 0x2f
     d66:	6d 85       	ldd	r22, Y+13	; 0x0d
     d68:	7e 85       	ldd	r23, Y+14	; 0x0e
     d6a:	8f 85       	ldd	r24, Y+15	; 0x0f
     d6c:	98 89       	ldd	r25, Y+16	; 0x10
     d6e:	0e 94 1d 37 	call	0x6e3a	; 0x6e3a <__mulsf3>
     d72:	2b 01       	movw	r4, r22
     d74:	3c 01       	movw	r6, r24
     d76:	28 a5       	ldd	r18, Y+40	; 0x28
     d78:	39 a5       	ldd	r19, Y+41	; 0x29
     d7a:	4a a5       	ldd	r20, Y+42	; 0x2a
     d7c:	5b a5       	ldd	r21, Y+43	; 0x2b
     d7e:	6d 81       	ldd	r22, Y+5	; 0x05
     d80:	7e 81       	ldd	r23, Y+6	; 0x06
     d82:	8f 81       	ldd	r24, Y+7	; 0x07
     d84:	98 85       	ldd	r25, Y+8	; 0x08
     d86:	0e 94 1d 37 	call	0x6e3a	; 0x6e3a <__mulsf3>
     d8a:	9b 01       	movw	r18, r22
     d8c:	ac 01       	movw	r20, r24
     d8e:	c3 01       	movw	r24, r6
     d90:	b2 01       	movw	r22, r4
     d92:	0e 94 05 34 	call	0x680a	; 0x680a <__subsf3>
     d96:	6d 87       	std	Y+13, r22	; 0x0d
     d98:	7e 87       	std	Y+14, r23	; 0x0e
     d9a:	8f 87       	std	Y+15, r24	; 0x0f
     d9c:	98 8b       	std	Y+16, r25	; 0x10
     d9e:	e9 81       	ldd	r30, Y+1	; 0x01
     da0:	ef 5f       	subi	r30, 0xFF	; 255
     da2:	e9 83       	std	Y+1, r30	; 0x01
     da4:	8b 2d       	mov	r24, r11
     da6:	9a 2d       	mov	r25, r10
     da8:	a9 2d       	mov	r26, r9
     daa:	b8 2d       	mov	r27, r8
     dac:	8d 83       	std	Y+5, r24	; 0x05
     dae:	9e 83       	std	Y+6, r25	; 0x06
     db0:	af 83       	std	Y+7, r26	; 0x07
     db2:	b8 87       	std	Y+8, r27	; 0x08
     db4:	6e c0       	rjmp	.+220    	; 0xe92 <mc_arc+0x50c>
     db6:	b8 01       	movw	r22, r16
     db8:	80 e0       	ldi	r24, 0x00	; 0
     dba:	90 e0       	ldi	r25, 0x00	; 0
     dbc:	0e 94 7f 35 	call	0x6afe	; 0x6afe <__floatunsisf>
     dc0:	29 85       	ldd	r18, Y+9	; 0x09
     dc2:	3a 85       	ldd	r19, Y+10	; 0x0a
     dc4:	4b 85       	ldd	r20, Y+11	; 0x0b
     dc6:	5c 85       	ldd	r21, Y+12	; 0x0c
     dc8:	0e 94 1d 37 	call	0x6e3a	; 0x6e3a <__mulsf3>
     dcc:	4b 01       	movw	r8, r22
     dce:	5c 01       	movw	r10, r24
     dd0:	0e 94 e3 34 	call	0x69c6	; 0x69c6 <cos>
     dd4:	6d 83       	std	Y+5, r22	; 0x05
     dd6:	7e 83       	std	Y+6, r23	; 0x06
     dd8:	8f 83       	std	Y+7, r24	; 0x07
     dda:	98 87       	std	Y+8, r25	; 0x08
     ddc:	c5 01       	movw	r24, r10
     dde:	b4 01       	movw	r22, r8
     de0:	0e 94 a0 37 	call	0x6f40	; 0x6f40 <sin>
     de4:	4b 01       	movw	r8, r22
     de6:	5c 01       	movw	r10, r24
     de8:	ea 8d       	ldd	r30, Y+26	; 0x1a
     dea:	fb 8d       	ldd	r31, Y+27	; 0x1b
     dec:	80 81       	ld	r24, Z
     dee:	91 81       	ldd	r25, Z+1	; 0x01
     df0:	a2 81       	ldd	r26, Z+2	; 0x02
     df2:	b3 81       	ldd	r27, Z+3	; 0x03
     df4:	9c 01       	movw	r18, r24
     df6:	ad 01       	movw	r20, r26
     df8:	50 58       	subi	r21, 0x80	; 128
     dfa:	29 83       	std	Y+1, r18	; 0x01
     dfc:	3a 83       	std	Y+2, r19	; 0x02
     dfe:	4b 83       	std	Y+3, r20	; 0x03
     e00:	5c 83       	std	Y+4, r21	; 0x04
     e02:	aa a1       	ldd	r26, Y+34	; 0x22
     e04:	bb a1       	ldd	r27, Y+35	; 0x23
     e06:	8d 91       	ld	r24, X+
     e08:	9d 91       	ld	r25, X+
     e0a:	0d 90       	ld	r0, X+
     e0c:	bc 91       	ld	r27, X
     e0e:	a0 2d       	mov	r26, r0
     e10:	88 ab       	std	Y+48, r24	; 0x30
     e12:	99 ab       	std	Y+49, r25	; 0x31
     e14:	aa ab       	std	Y+50, r26	; 0x32
     e16:	bb ab       	std	Y+51, r27	; 0x33
     e18:	2d 81       	ldd	r18, Y+5	; 0x05
     e1a:	3e 81       	ldd	r19, Y+6	; 0x06
     e1c:	4f 81       	ldd	r20, Y+7	; 0x07
     e1e:	58 85       	ldd	r21, Y+8	; 0x08
     e20:	69 81       	ldd	r22, Y+1	; 0x01
     e22:	7a 81       	ldd	r23, Y+2	; 0x02
     e24:	8b 81       	ldd	r24, Y+3	; 0x03
     e26:	9c 81       	ldd	r25, Y+4	; 0x04
     e28:	0e 94 1d 37 	call	0x6e3a	; 0x6e3a <__mulsf3>
     e2c:	2b 01       	movw	r4, r22
     e2e:	3c 01       	movw	r6, r24
     e30:	a5 01       	movw	r20, r10
     e32:	94 01       	movw	r18, r8
     e34:	68 a9       	ldd	r22, Y+48	; 0x30
     e36:	79 a9       	ldd	r23, Y+49	; 0x31
     e38:	8a a9       	ldd	r24, Y+50	; 0x32
     e3a:	9b a9       	ldd	r25, Y+51	; 0x33
     e3c:	0e 94 1d 37 	call	0x6e3a	; 0x6e3a <__mulsf3>
     e40:	9b 01       	movw	r18, r22
     e42:	ac 01       	movw	r20, r24
     e44:	c3 01       	movw	r24, r6
     e46:	b2 01       	movw	r22, r4
     e48:	0e 94 06 34 	call	0x680c	; 0x680c <__addsf3>
     e4c:	6d 87       	std	Y+13, r22	; 0x0d
     e4e:	7e 87       	std	Y+14, r23	; 0x0e
     e50:	8f 87       	std	Y+15, r24	; 0x0f
     e52:	98 8b       	std	Y+16, r25	; 0x10
     e54:	a5 01       	movw	r20, r10
     e56:	94 01       	movw	r18, r8
     e58:	69 81       	ldd	r22, Y+1	; 0x01
     e5a:	7a 81       	ldd	r23, Y+2	; 0x02
     e5c:	8b 81       	ldd	r24, Y+3	; 0x03
     e5e:	9c 81       	ldd	r25, Y+4	; 0x04
     e60:	0e 94 1d 37 	call	0x6e3a	; 0x6e3a <__mulsf3>
     e64:	4b 01       	movw	r8, r22
     e66:	5c 01       	movw	r10, r24
     e68:	2d 81       	ldd	r18, Y+5	; 0x05
     e6a:	3e 81       	ldd	r19, Y+6	; 0x06
     e6c:	4f 81       	ldd	r20, Y+7	; 0x07
     e6e:	58 85       	ldd	r21, Y+8	; 0x08
     e70:	68 a9       	ldd	r22, Y+48	; 0x30
     e72:	79 a9       	ldd	r23, Y+49	; 0x31
     e74:	8a a9       	ldd	r24, Y+50	; 0x32
     e76:	9b a9       	ldd	r25, Y+51	; 0x33
     e78:	0e 94 1d 37 	call	0x6e3a	; 0x6e3a <__mulsf3>
     e7c:	9b 01       	movw	r18, r22
     e7e:	ac 01       	movw	r20, r24
     e80:	c5 01       	movw	r24, r10
     e82:	b4 01       	movw	r22, r8
     e84:	0e 94 05 34 	call	0x680a	; 0x680a <__subsf3>
     e88:	6d 83       	std	Y+5, r22	; 0x05
     e8a:	7e 83       	std	Y+6, r23	; 0x06
     e8c:	8f 83       	std	Y+7, r24	; 0x07
     e8e:	98 87       	std	Y+8, r25	; 0x08
     e90:	19 82       	std	Y+1, r1	; 0x01
     e92:	2d 85       	ldd	r18, Y+13	; 0x0d
     e94:	3e 85       	ldd	r19, Y+14	; 0x0e
     e96:	4f 85       	ldd	r20, Y+15	; 0x0f
     e98:	58 89       	ldd	r21, Y+16	; 0x10
     e9a:	6c 8d       	ldd	r22, Y+28	; 0x1c
     e9c:	7d 8d       	ldd	r23, Y+29	; 0x1d
     e9e:	8e 8d       	ldd	r24, Y+30	; 0x1e
     ea0:	9f 8d       	ldd	r25, Y+31	; 0x1f
     ea2:	0e 94 06 34 	call	0x680c	; 0x680c <__addsf3>
     ea6:	e8 8d       	ldd	r30, Y+24	; 0x18
     ea8:	f9 8d       	ldd	r31, Y+25	; 0x19
     eaa:	60 83       	st	Z, r22
     eac:	71 83       	std	Z+1, r23	; 0x01
     eae:	82 83       	std	Z+2, r24	; 0x02
     eb0:	93 83       	std	Z+3, r25	; 0x03
     eb2:	2d 81       	ldd	r18, Y+5	; 0x05
     eb4:	3e 81       	ldd	r19, Y+6	; 0x06
     eb6:	4f 81       	ldd	r20, Y+7	; 0x07
     eb8:	58 85       	ldd	r21, Y+8	; 0x08
     eba:	6c a1       	ldd	r22, Y+36	; 0x24
     ebc:	7d a1       	ldd	r23, Y+37	; 0x25
     ebe:	8e a1       	ldd	r24, Y+38	; 0x26
     ec0:	9f a1       	ldd	r25, Y+39	; 0x27
     ec2:	0e 94 06 34 	call	0x680c	; 0x680c <__addsf3>
     ec6:	a8 a1       	ldd	r26, Y+32	; 0x20
     ec8:	b9 a1       	ldd	r27, Y+33	; 0x21
     eca:	6d 93       	st	X+, r22
     ecc:	7d 93       	st	X+, r23
     ece:	8d 93       	st	X+, r24
     ed0:	9c 93       	st	X, r25
     ed2:	13 97       	sbiw	r26, 0x03	; 3
     ed4:	2c a9       	ldd	r18, Y+52	; 0x34
     ed6:	3d a9       	ldd	r19, Y+53	; 0x35
     ed8:	4e a9       	ldd	r20, Y+54	; 0x36
     eda:	5f a9       	ldd	r21, Y+55	; 0x37
     edc:	e9 89       	ldd	r30, Y+17	; 0x11
     ede:	fa 89       	ldd	r31, Y+18	; 0x12
     ee0:	60 81       	ld	r22, Z
     ee2:	71 81       	ldd	r23, Z+1	; 0x01
     ee4:	82 81       	ldd	r24, Z+2	; 0x02
     ee6:	93 81       	ldd	r25, Z+3	; 0x03
     ee8:	0e 94 06 34 	call	0x680c	; 0x680c <__addsf3>
     eec:	a9 89       	ldd	r26, Y+17	; 0x11
     eee:	ba 89       	ldd	r27, Y+18	; 0x12
     ef0:	6d 93       	st	X+, r22
     ef2:	7d 93       	st	X+, r23
     ef4:	8d 93       	st	X+, r24
     ef6:	9c 93       	st	X, r25
     ef8:	13 97       	sbiw	r26, 0x03	; 3
     efa:	2f 89       	ldd	r18, Y+23	; 0x17
     efc:	b7 01       	movw	r22, r14
     efe:	a6 01       	movw	r20, r12
     f00:	8b 89       	ldd	r24, Y+19	; 0x13
     f02:	9c 89       	ldd	r25, Y+20	; 0x14
     f04:	0e 94 75 04 	call	0x8ea	; 0x8ea <mc_line>
     f08:	80 91 27 05 	lds	r24, 0x0527
     f0c:	81 11       	cpse	r24, r1
     f0e:	21 c0       	rjmp	.+66     	; 0xf52 <mc_arc+0x5cc>
     f10:	0f 5f       	subi	r16, 0xFF	; 255
     f12:	1f 4f       	sbci	r17, 0xFF	; 255
     f14:	fc ce       	rjmp	.-520    	; 0xd0e <mc_arc+0x388>
     f16:	2f 89       	ldd	r18, Y+23	; 0x17
     f18:	b7 01       	movw	r22, r14
     f1a:	a6 01       	movw	r20, r12
     f1c:	c1 01       	movw	r24, r2
     f1e:	e7 96       	adiw	r28, 0x37	; 55
     f20:	0f b6       	in	r0, 0x3f	; 63
     f22:	f8 94       	cli
     f24:	de bf       	out	0x3e, r29	; 62
     f26:	0f be       	out	0x3f, r0	; 63
     f28:	cd bf       	out	0x3d, r28	; 61
     f2a:	df 91       	pop	r29
     f2c:	cf 91       	pop	r28
     f2e:	1f 91       	pop	r17
     f30:	0f 91       	pop	r16
     f32:	ff 90       	pop	r15
     f34:	ef 90       	pop	r14
     f36:	df 90       	pop	r13
     f38:	cf 90       	pop	r12
     f3a:	bf 90       	pop	r11
     f3c:	af 90       	pop	r10
     f3e:	9f 90       	pop	r9
     f40:	8f 90       	pop	r8
     f42:	7f 90       	pop	r7
     f44:	6f 90       	pop	r6
     f46:	5f 90       	pop	r5
     f48:	4f 90       	pop	r4
     f4a:	3f 90       	pop	r3
     f4c:	2f 90       	pop	r2
     f4e:	0c 94 75 04 	jmp	0x8ea	; 0x8ea <mc_line>
     f52:	e7 96       	adiw	r28, 0x37	; 55
     f54:	0f b6       	in	r0, 0x3f	; 63
     f56:	f8 94       	cli
     f58:	de bf       	out	0x3e, r29	; 62
     f5a:	0f be       	out	0x3f, r0	; 63
     f5c:	cd bf       	out	0x3d, r28	; 61
     f5e:	df 91       	pop	r29
     f60:	cf 91       	pop	r28
     f62:	1f 91       	pop	r17
     f64:	0f 91       	pop	r16
     f66:	ff 90       	pop	r15
     f68:	ef 90       	pop	r14
     f6a:	df 90       	pop	r13
     f6c:	cf 90       	pop	r12
     f6e:	bf 90       	pop	r11
     f70:	af 90       	pop	r10
     f72:	9f 90       	pop	r9
     f74:	8f 90       	pop	r8
     f76:	7f 90       	pop	r7
     f78:	6f 90       	pop	r6
     f7a:	5f 90       	pop	r5
     f7c:	4f 90       	pop	r4
     f7e:	3f 90       	pop	r3
     f80:	2f 90       	pop	r2
     f82:	08 95       	ret

00000f84 <mc_dwell>:
     f84:	8f 92       	push	r8
     f86:	9f 92       	push	r9
     f88:	af 92       	push	r10
     f8a:	bf 92       	push	r11
     f8c:	cf 92       	push	r12
     f8e:	df 92       	push	r13
     f90:	ef 92       	push	r14
     f92:	ff 92       	push	r15
     f94:	4b 01       	movw	r8, r22
     f96:	5c 01       	movw	r10, r24
     f98:	80 91 28 05 	lds	r24, 0x0528
     f9c:	82 30       	cpi	r24, 0x02	; 2
     f9e:	09 f4       	brne	.+2      	; 0xfa2 <mc_dwell+0x1e>
     fa0:	47 c0       	rjmp	.+142    	; 0x1030 <mc_dwell+0xac>
     fa2:	20 e0       	ldi	r18, 0x00	; 0
     fa4:	30 e0       	ldi	r19, 0x00	; 0
     fa6:	40 ea       	ldi	r20, 0xA0	; 160
     fa8:	51 e4       	ldi	r21, 0x41	; 65
     faa:	c5 01       	movw	r24, r10
     fac:	b4 01       	movw	r22, r8
     fae:	0e 94 1d 37 	call	0x6e3a	; 0x6e3a <__mulsf3>
     fb2:	0e 94 bc 35 	call	0x6b78	; 0x6b78 <floor>
     fb6:	0e 94 53 35 	call	0x6aa6	; 0x6aa6 <__fixunssfsi>
     fba:	6b 01       	movw	r12, r22
     fbc:	7c 01       	movw	r14, r24
     fbe:	0e 94 85 16 	call	0x2d0a	; 0x2d0a <protocol_buffer_synchronize>
     fc2:	20 e0       	ldi	r18, 0x00	; 0
     fc4:	30 e0       	ldi	r19, 0x00	; 0
     fc6:	4a e7       	ldi	r20, 0x7A	; 122
     fc8:	54 e4       	ldi	r21, 0x44	; 68
     fca:	c5 01       	movw	r24, r10
     fcc:	b4 01       	movw	r22, r8
     fce:	0e 94 1d 37 	call	0x6e3a	; 0x6e3a <__mulsf3>
     fd2:	4b 01       	movw	r8, r22
     fd4:	5c 01       	movw	r10, r24
     fd6:	82 e3       	ldi	r24, 0x32	; 50
     fd8:	8c 9d       	mul	r24, r12
     fda:	b0 01       	movw	r22, r0
     fdc:	8d 9d       	mul	r24, r13
     fde:	70 0d       	add	r23, r0
     fe0:	11 24       	eor	r1, r1
     fe2:	80 e0       	ldi	r24, 0x00	; 0
     fe4:	90 e0       	ldi	r25, 0x00	; 0
     fe6:	0e 94 7f 35 	call	0x6afe	; 0x6afe <__floatunsisf>
     fea:	9b 01       	movw	r18, r22
     fec:	ac 01       	movw	r20, r24
     fee:	c5 01       	movw	r24, r10
     ff0:	b4 01       	movw	r22, r8
     ff2:	0e 94 05 34 	call	0x680a	; 0x680a <__subsf3>
     ff6:	0e 94 bc 35 	call	0x6b78	; 0x6b78 <floor>
     ffa:	0e 94 53 35 	call	0x6aa6	; 0x6aa6 <__fixunssfsi>
     ffe:	cb 01       	movw	r24, r22
    1000:	0e 94 da 28 	call	0x51b4	; 0x51b4 <delay_ms>
    1004:	c1 14       	cp	r12, r1
    1006:	d1 04       	cpc	r13, r1
    1008:	99 f0       	breq	.+38     	; 0x1030 <mc_dwell+0xac>
    100a:	0e 94 d4 14 	call	0x29a8	; 0x29a8 <protocol_execute_realtime>
    100e:	21 e0       	ldi	r18, 0x01	; 1
    1010:	c2 1a       	sub	r12, r18
    1012:	d1 08       	sbc	r13, r1
    1014:	80 91 27 05 	lds	r24, 0x0527
    1018:	81 11       	cpse	r24, r1
    101a:	0a c0       	rjmp	.+20     	; 0x1030 <mc_dwell+0xac>
    101c:	8f ef       	ldi	r24, 0xFF	; 255
    101e:	90 e7       	ldi	r25, 0x70	; 112
    1020:	22 e0       	ldi	r18, 0x02	; 2
    1022:	81 50       	subi	r24, 0x01	; 1
    1024:	90 40       	sbci	r25, 0x00	; 0
    1026:	20 40       	sbci	r18, 0x00	; 0
    1028:	e1 f7       	brne	.-8      	; 0x1022 <mc_dwell+0x9e>
    102a:	00 c0       	rjmp	.+0      	; 0x102c <mc_dwell+0xa8>
    102c:	00 00       	nop
    102e:	ea cf       	rjmp	.-44     	; 0x1004 <mc_dwell+0x80>
    1030:	ff 90       	pop	r15
    1032:	ef 90       	pop	r14
    1034:	df 90       	pop	r13
    1036:	cf 90       	pop	r12
    1038:	bf 90       	pop	r11
    103a:	af 90       	pop	r10
    103c:	9f 90       	pop	r9
    103e:	8f 90       	pop	r8
    1040:	08 95       	ret

00001042 <mc_homing_cycle>:
    1042:	0e 94 0b 29 	call	0x5216	; 0x5216 <limits_disable>
    1046:	84 e0       	ldi	r24, 0x04	; 4
    1048:	0e 94 9b 29 	call	0x5336	; 0x5336 <limits_go_home>
    104c:	83 e0       	ldi	r24, 0x03	; 3
    104e:	0e 94 9b 29 	call	0x5336	; 0x5336 <limits_go_home>
    1052:	0e 94 d4 14 	call	0x29a8	; 0x29a8 <protocol_execute_realtime>
    1056:	80 91 27 05 	lds	r24, 0x0527
    105a:	81 11       	cpse	r24, r1
    105c:	04 c0       	rjmp	.+8      	; 0x1066 <mc_homing_cycle+0x24>
    105e:	0e 94 0f 09 	call	0x121e	; 0x121e <gc_sync_position>
    1062:	0c 94 16 29 	jmp	0x522c	; 0x522c <limits_init>
    1066:	08 95       	ret

00001068 <mc_probe_cycle>:
    1068:	cf 92       	push	r12
    106a:	df 92       	push	r13
    106c:	ef 92       	push	r14
    106e:	0f 93       	push	r16
    1070:	cf 93       	push	r28
    1072:	df 93       	push	r29
    1074:	00 d0       	rcall	.+0      	; 0x1076 <mc_probe_cycle+0xe>
    1076:	00 d0       	rcall	.+0      	; 0x1078 <mc_probe_cycle+0x10>
    1078:	1f 92       	push	r1
    107a:	cd b7       	in	r28, 0x3d	; 61
    107c:	de b7       	in	r29, 0x3e	; 62
    107e:	6c 01       	movw	r12, r24
    1080:	80 91 28 05 	lds	r24, 0x0528
    1084:	82 30       	cpi	r24, 0x02	; 2
    1086:	09 f4       	brne	.+2      	; 0x108a <mc_probe_cycle+0x22>
    1088:	81 c0       	rjmp	.+258    	; 0x118c <mc_probe_cycle+0x124>
    108a:	2d 83       	std	Y+5, r18	; 0x05
    108c:	49 83       	std	Y+1, r20	; 0x01
    108e:	5a 83       	std	Y+2, r21	; 0x02
    1090:	6b 83       	std	Y+3, r22	; 0x03
    1092:	7c 83       	std	Y+4, r23	; 0x04
    1094:	0e 94 85 16 	call	0x2d0a	; 0x2d0a <protocol_buffer_synchronize>
    1098:	10 92 43 05 	sts	0x0543, r1
    109c:	80 2f       	mov	r24, r16
    109e:	0e 94 13 2d 	call	0x5a26	; 0x5a26 <probe_configure_invert_mask>
    10a2:	0e 94 25 2d 	call	0x5a4a	; 0x5a4a <probe_get_state>
    10a6:	2d 81       	ldd	r18, Y+5	; 0x05
    10a8:	49 81       	ldd	r20, Y+1	; 0x01
    10aa:	5a 81       	ldd	r21, Y+2	; 0x02
    10ac:	6b 81       	ldd	r22, Y+3	; 0x03
    10ae:	7c 81       	ldd	r23, Y+4	; 0x04
    10b0:	88 23       	and	r24, r24
    10b2:	a1 f0       	breq	.+40     	; 0x10dc <mc_probe_cycle+0x74>
    10b4:	9f b7       	in	r25, 0x3f	; 63
    10b6:	f8 94       	cli
    10b8:	80 91 47 05 	lds	r24, 0x0547
    10bc:	80 61       	ori	r24, 0x10	; 16
    10be:	80 93 47 05 	sts	0x0547, r24
    10c2:	9f bf       	out	0x3f, r25	; 63
    10c4:	2d 83       	std	Y+5, r18	; 0x05
    10c6:	49 83       	std	Y+1, r20	; 0x01
    10c8:	5a 83       	std	Y+2, r21	; 0x02
    10ca:	6b 83       	std	Y+3, r22	; 0x03
    10cc:	7c 83       	std	Y+4, r23	; 0x04
    10ce:	0e 94 d4 14 	call	0x29a8	; 0x29a8 <protocol_execute_realtime>
    10d2:	7c 81       	ldd	r23, Y+4	; 0x04
    10d4:	6b 81       	ldd	r22, Y+3	; 0x03
    10d6:	5a 81       	ldd	r21, Y+2	; 0x02
    10d8:	49 81       	ldd	r20, Y+1	; 0x01
    10da:	2d 81       	ldd	r18, Y+5	; 0x05
    10dc:	80 91 27 05 	lds	r24, 0x0527
    10e0:	81 11       	cpse	r24, r1
    10e2:	54 c0       	rjmp	.+168    	; 0x118c <mc_probe_cycle+0x124>
    10e4:	c6 01       	movw	r24, r12
    10e6:	0e 94 75 04 	call	0x8ea	; 0x8ea <mc_line>
    10ea:	81 e0       	ldi	r24, 0x01	; 1
    10ec:	80 93 46 05 	sts	0x0546, r24
    10f0:	9f b7       	in	r25, 0x3f	; 63
    10f2:	f8 94       	cli
    10f4:	80 91 45 05 	lds	r24, 0x0545
    10f8:	82 60       	ori	r24, 0x02	; 2
    10fa:	80 93 45 05 	sts	0x0545, r24
    10fe:	9f bf       	out	0x3f, r25	; 63
    1100:	0e 94 d4 14 	call	0x29a8	; 0x29a8 <protocol_execute_realtime>
    1104:	80 91 27 05 	lds	r24, 0x0527
    1108:	81 11       	cpse	r24, r1
    110a:	40 c0       	rjmp	.+128    	; 0x118c <mc_probe_cycle+0x124>
    110c:	80 91 28 05 	lds	r24, 0x0528
    1110:	81 11       	cpse	r24, r1
    1112:	f6 cf       	rjmp	.-20     	; 0x1100 <mc_probe_cycle+0x98>
    1114:	80 91 46 05 	lds	r24, 0x0546
    1118:	81 30       	cpi	r24, 0x01	; 1
    111a:	a9 f4       	brne	.+42     	; 0x1146 <mc_probe_cycle+0xde>
    111c:	ee 20       	and	r14, r14
    111e:	51 f0       	breq	.+20     	; 0x1134 <mc_probe_cycle+0xcc>
    1120:	8c e0       	ldi	r24, 0x0C	; 12
    1122:	eb e2       	ldi	r30, 0x2B	; 43
    1124:	f5 e0       	ldi	r31, 0x05	; 5
    1126:	a7 e3       	ldi	r26, 0x37	; 55
    1128:	b5 e0       	ldi	r27, 0x05	; 5
    112a:	01 90       	ld	r0, Z+
    112c:	0d 92       	st	X+, r0
    112e:	8a 95       	dec	r24
    1130:	e1 f7       	brne	.-8      	; 0x112a <mc_probe_cycle+0xc2>
    1132:	0c c0       	rjmp	.+24     	; 0x114c <mc_probe_cycle+0xe4>
    1134:	9f b7       	in	r25, 0x3f	; 63
    1136:	f8 94       	cli
    1138:	80 91 47 05 	lds	r24, 0x0547
    113c:	80 61       	ori	r24, 0x10	; 16
    113e:	80 93 47 05 	sts	0x0547, r24
    1142:	9f bf       	out	0x3f, r25	; 63
    1144:	03 c0       	rjmp	.+6      	; 0x114c <mc_probe_cycle+0xe4>
    1146:	81 e0       	ldi	r24, 0x01	; 1
    1148:	80 93 43 05 	sts	0x0543, r24
    114c:	10 92 46 05 	sts	0x0546, r1
    1150:	0e 94 d4 14 	call	0x29a8	; 0x29a8 <protocol_execute_realtime>
    1154:	80 91 27 05 	lds	r24, 0x0527
    1158:	81 11       	cpse	r24, r1
    115a:	18 c0       	rjmp	.+48     	; 0x118c <mc_probe_cycle+0x124>
    115c:	0e 94 4c 19 	call	0x3298	; 0x3298 <st_reset>
    1160:	0e 94 96 24 	call	0x492c	; 0x492c <plan_reset>
    1164:	0e 94 e6 27 	call	0x4fcc	; 0x4fcc <plan_sync_position>
    1168:	6b e2       	ldi	r22, 0x2B	; 43
    116a:	75 e0       	ldi	r23, 0x05	; 5
    116c:	c6 01       	movw	r24, r12
    116e:	0e 94 eb 33 	call	0x67d6	; 0x67d6 <system_convert_array_steps_to_mpos>
    1172:	0f 90       	pop	r0
    1174:	0f 90       	pop	r0
    1176:	0f 90       	pop	r0
    1178:	0f 90       	pop	r0
    117a:	0f 90       	pop	r0
    117c:	df 91       	pop	r29
    117e:	cf 91       	pop	r28
    1180:	0f 91       	pop	r16
    1182:	ef 90       	pop	r14
    1184:	df 90       	pop	r13
    1186:	cf 90       	pop	r12
    1188:	0c 94 54 2f 	jmp	0x5ea8	; 0x5ea8 <report_probe_parameters>
    118c:	0f 90       	pop	r0
    118e:	0f 90       	pop	r0
    1190:	0f 90       	pop	r0
    1192:	0f 90       	pop	r0
    1194:	0f 90       	pop	r0
    1196:	df 91       	pop	r29
    1198:	cf 91       	pop	r28
    119a:	0f 91       	pop	r16
    119c:	ef 90       	pop	r14
    119e:	df 90       	pop	r13
    11a0:	cf 90       	pop	r12
    11a2:	08 95       	ret

000011a4 <mc_reset>:
    11a4:	80 91 45 05 	lds	r24, 0x0545
    11a8:	84 fd       	sbrc	r24, 4
    11aa:	26 c0       	rjmp	.+76     	; 0x11f8 <mc_reset+0x54>
    11ac:	9f b7       	in	r25, 0x3f	; 63
    11ae:	f8 94       	cli
    11b0:	80 91 45 05 	lds	r24, 0x0545
    11b4:	80 61       	ori	r24, 0x10	; 16
    11b6:	80 93 45 05 	sts	0x0545, r24
    11ba:	9f bf       	out	0x3f, r25	; 63
    11bc:	0e 94 4a 13 	call	0x2694	; 0x2694 <spindle_stop>
    11c0:	0e 94 d7 13 	call	0x27ae	; 0x27ae <coolant_stop>
    11c4:	80 91 28 05 	lds	r24, 0x0528
    11c8:	98 2f       	mov	r25, r24
    11ca:	9c 70       	andi	r25, 0x0C	; 12
    11cc:	21 f4       	brne	.+8      	; 0x11d6 <mc_reset+0x32>
    11ce:	90 91 29 05 	lds	r25, 0x0529
    11d2:	91 30       	cpi	r25, 0x01	; 1
    11d4:	89 f4       	brne	.+34     	; 0x11f8 <mc_reset+0x54>
    11d6:	9f b7       	in	r25, 0x3f	; 63
    11d8:	84 30       	cpi	r24, 0x04	; 4
    11da:	29 f4       	brne	.+10     	; 0x11e6 <mc_reset+0x42>
    11dc:	f8 94       	cli
    11de:	80 91 47 05 	lds	r24, 0x0547
    11e2:	80 62       	ori	r24, 0x20	; 32
    11e4:	04 c0       	rjmp	.+8      	; 0x11ee <mc_reset+0x4a>
    11e6:	f8 94       	cli
    11e8:	80 91 47 05 	lds	r24, 0x0547
    11ec:	88 60       	ori	r24, 0x08	; 8
    11ee:	80 93 47 05 	sts	0x0547, r24
    11f2:	9f bf       	out	0x3f, r25	; 63
    11f4:	0c 94 b6 16 	jmp	0x2d6c	; 0x2d6c <st_go_idle>
    11f8:	08 95       	ret

000011fa <gc_init>:
    11fa:	8f e3       	ldi	r24, 0x3F	; 63
    11fc:	e8 e4       	ldi	r30, 0x48	; 72
    11fe:	f5 e0       	ldi	r31, 0x05	; 5
    1200:	df 01       	movw	r26, r30
    1202:	1d 92       	st	X+, r1
    1204:	8a 95       	dec	r24
    1206:	e9 f7       	brne	.-6      	; 0x1202 <gc_init+0x8>
    1208:	6b e6       	ldi	r22, 0x6B	; 107
    120a:	75 e0       	ldi	r23, 0x05	; 5
    120c:	80 e0       	ldi	r24, 0x00	; 0
    120e:	0e 94 15 22 	call	0x442a	; 0x442a <settings_read_coord_data>
    1212:	81 11       	cpse	r24, r1
    1214:	03 c0       	rjmp	.+6      	; 0x121c <gc_init+0x22>
    1216:	87 e0       	ldi	r24, 0x07	; 7
    1218:	0c 94 44 2d 	jmp	0x5a88	; 0x5a88 <report_status_message>
    121c:	08 95       	ret

0000121e <gc_sync_position>:
    121e:	6b e2       	ldi	r22, 0x2B	; 43
    1220:	75 e0       	ldi	r23, 0x05	; 5
    1222:	8f e5       	ldi	r24, 0x5F	; 95
    1224:	95 e0       	ldi	r25, 0x05	; 5
    1226:	0c 94 eb 33 	jmp	0x67d6	; 0x67d6 <system_convert_array_steps_to_mpos>

0000122a <gc_execute_line>:
    122a:	2f 92       	push	r2
    122c:	3f 92       	push	r3
    122e:	4f 92       	push	r4
    1230:	5f 92       	push	r5
    1232:	6f 92       	push	r6
    1234:	7f 92       	push	r7
    1236:	8f 92       	push	r8
    1238:	9f 92       	push	r9
    123a:	af 92       	push	r10
    123c:	bf 92       	push	r11
    123e:	cf 92       	push	r12
    1240:	df 92       	push	r13
    1242:	ef 92       	push	r14
    1244:	ff 92       	push	r15
    1246:	0f 93       	push	r16
    1248:	1f 93       	push	r17
    124a:	cf 93       	push	r28
    124c:	df 93       	push	r29
    124e:	cd b7       	in	r28, 0x3d	; 61
    1250:	de b7       	in	r29, 0x3e	; 62
    1252:	ab 97       	sbiw	r28, 0x2b	; 43
    1254:	0f b6       	in	r0, 0x3f	; 63
    1256:	f8 94       	cli
    1258:	de bf       	out	0x3e, r29	; 62
    125a:	0f be       	out	0x3f, r0	; 63
    125c:	cd bf       	out	0x3d, r28	; 61
    125e:	98 a3       	std	Y+32, r25	; 0x20
    1260:	8f 8f       	std	Y+31, r24	; 0x1f
    1262:	89 e3       	ldi	r24, 0x39	; 57
    1264:	e7 e8       	ldi	r30, 0x87	; 135
    1266:	f5 e0       	ldi	r31, 0x05	; 5
    1268:	df 01       	movw	r26, r30
    126a:	1d 92       	st	X+, r1
    126c:	8a 95       	dec	r24
    126e:	e9 f7       	brne	.-6      	; 0x126a <gc_execute_line+0x40>
    1270:	8a e0       	ldi	r24, 0x0A	; 10
    1272:	e8 e4       	ldi	r30, 0x48	; 72
    1274:	f5 e0       	ldi	r31, 0x05	; 5
    1276:	a8 e8       	ldi	r26, 0x88	; 136
    1278:	b5 e0       	ldi	r27, 0x05	; 5
    127a:	01 90       	ld	r0, Z+
    127c:	0d 92       	st	X+, r0
    127e:	8a 95       	dec	r24
    1280:	e1 f7       	brne	.-8      	; 0x127a <gc_execute_line+0x50>
    1282:	1d 8e       	std	Y+29, r1	; 0x1d
    1284:	21 2c       	mov	r2, r1
    1286:	31 2c       	mov	r3, r1
    1288:	a1 2c       	mov	r10, r1
    128a:	b1 2c       	mov	r11, r1
    128c:	19 a2       	std	Y+33, r1	; 0x21
    128e:	51 2c       	mov	r5, r1
    1290:	1e 8e       	std	Y+30, r1	; 0x1e
    1292:	66 24       	eor	r6, r6
    1294:	63 94       	inc	r6
    1296:	71 2c       	mov	r7, r1
    1298:	08 e0       	ldi	r16, 0x08	; 8
    129a:	40 2e       	mov	r4, r16
    129c:	99 24       	eor	r9, r9
    129e:	93 94       	inc	r9
    12a0:	85 e0       	ldi	r24, 0x05	; 5
    12a2:	88 2e       	mov	r8, r24
    12a4:	8d 8d       	ldd	r24, Y+29	; 0x1d
    12a6:	ef 8d       	ldd	r30, Y+31	; 0x1f
    12a8:	f8 a1       	ldd	r31, Y+32	; 0x20
    12aa:	e8 0f       	add	r30, r24
    12ac:	f1 1d       	adc	r31, r1
    12ae:	00 81       	ld	r16, Z
    12b0:	00 23       	and	r16, r16
    12b2:	09 f4       	brne	.+2      	; 0x12b6 <gc_execute_line+0x8c>
    12b4:	8a c2       	rjmp	.+1300   	; 0x17ca <gc_execute_line+0x5a0>
    12b6:	9f eb       	ldi	r25, 0xBF	; 191
    12b8:	90 0f       	add	r25, r16
    12ba:	9a 31       	cpi	r25, 0x1A	; 26
    12bc:	10 f0       	brcs	.+4      	; 0x12c2 <gc_execute_line+0x98>
    12be:	0c 94 10 13 	jmp	0x2620	; 0x2620 <gc_execute_line+0x13f6>
    12c2:	8f 5f       	subi	r24, 0xFF	; 255
    12c4:	8d 8f       	std	Y+29, r24	; 0x1d
    12c6:	ae 01       	movw	r20, r28
    12c8:	47 5e       	subi	r20, 0xE7	; 231
    12ca:	5f 4f       	sbci	r21, 0xFF	; 255
    12cc:	be 01       	movw	r22, r28
    12ce:	63 5e       	subi	r22, 0xE3	; 227
    12d0:	7f 4f       	sbci	r23, 0xFF	; 255
    12d2:	8f 8d       	ldd	r24, Y+31	; 0x1f
    12d4:	98 a1       	ldd	r25, Y+32	; 0x20
    12d6:	0e 94 28 28 	call	0x5050	; 0x5050 <read_float>
    12da:	88 23       	and	r24, r24
    12dc:	11 f4       	brne	.+4      	; 0x12e2 <gc_execute_line+0xb8>
    12de:	0c 94 12 13 	jmp	0x2624	; 0x2624 <gc_execute_line+0x13fa>
    12e2:	c9 8c       	ldd	r12, Y+25	; 0x19
    12e4:	da 8c       	ldd	r13, Y+26	; 0x1a
    12e6:	eb 8c       	ldd	r14, Y+27	; 0x1b
    12e8:	fc 8c       	ldd	r15, Y+28	; 0x1c
    12ea:	c7 01       	movw	r24, r14
    12ec:	b6 01       	movw	r22, r12
    12ee:	0e 94 eb 37 	call	0x6fd6	; 0x6fd6 <trunc>
    12f2:	0e 94 53 35 	call	0x6aa6	; 0x6aa6 <__fixunssfsi>
    12f6:	16 2f       	mov	r17, r22
    12f8:	70 e0       	ldi	r23, 0x00	; 0
    12fa:	80 e0       	ldi	r24, 0x00	; 0
    12fc:	90 e0       	ldi	r25, 0x00	; 0
    12fe:	0e 94 81 35 	call	0x6b02	; 0x6b02 <__floatsisf>
    1302:	9b 01       	movw	r18, r22
    1304:	ac 01       	movw	r20, r24
    1306:	c7 01       	movw	r24, r14
    1308:	b6 01       	movw	r22, r12
    130a:	0e 94 05 34 	call	0x680a	; 0x680a <__subsf3>
    130e:	20 e0       	ldi	r18, 0x00	; 0
    1310:	30 e0       	ldi	r19, 0x00	; 0
    1312:	48 ec       	ldi	r20, 0xC8	; 200
    1314:	52 e4       	ldi	r21, 0x42	; 66
    1316:	0e 94 1d 37 	call	0x6e3a	; 0x6e3a <__mulsf3>
    131a:	0e 94 80 37 	call	0x6f00	; 0x6f00 <round>
    131e:	0e 94 53 35 	call	0x6aa6	; 0x6aa6 <__fixunssfsi>
    1322:	07 34       	cpi	r16, 0x47	; 71
    1324:	21 f0       	breq	.+8      	; 0x132e <gc_execute_line+0x104>
    1326:	0d 34       	cpi	r16, 0x4D	; 77
    1328:	09 f4       	brne	.+2      	; 0x132c <gc_execute_line+0x102>
    132a:	50 c1       	rjmp	.+672    	; 0x15cc <gc_execute_line+0x3a2>
    132c:	92 c1       	rjmp	.+804    	; 0x1652 <gc_execute_line+0x428>
    132e:	18 32       	cpi	r17, 0x28	; 40
    1330:	09 f4       	brne	.+2      	; 0x1334 <gc_execute_line+0x10a>
    1332:	32 c1       	rjmp	.+612    	; 0x1598 <gc_execute_line+0x36e>
    1334:	e8 f4       	brcc	.+58     	; 0x1370 <gc_execute_line+0x146>
    1336:	14 31       	cpi	r17, 0x14	; 20
    1338:	60 f4       	brcc	.+24     	; 0x1352 <gc_execute_line+0x128>
    133a:	11 31       	cpi	r17, 0x11	; 17
    133c:	08 f0       	brcs	.+2      	; 0x1340 <gc_execute_line+0x116>
    133e:	d7 c0       	rjmp	.+430    	; 0x14ee <gc_execute_line+0x2c4>
    1340:	14 30       	cpi	r17, 0x04	; 4
    1342:	09 f4       	brne	.+2      	; 0x1346 <gc_execute_line+0x11c>
    1344:	5a c0       	rjmp	.+180    	; 0x13fa <gc_execute_line+0x1d0>
    1346:	08 f4       	brcc	.+2      	; 0x134a <gc_execute_line+0x120>
    1348:	8e c0       	rjmp	.+284    	; 0x1466 <gc_execute_line+0x23c>
    134a:	1a 30       	cpi	r17, 0x0A	; 10
    134c:	d9 f1       	breq	.+118    	; 0x13c4 <gc_execute_line+0x19a>
    134e:	0c 94 1e 13 	jmp	0x263c	; 0x263c <gc_execute_line+0x1412>
    1352:	1c 31       	cpi	r17, 0x1C	; 28
    1354:	b9 f1       	breq	.+110    	; 0x13c4 <gc_execute_line+0x19a>
    1356:	28 f4       	brcc	.+10     	; 0x1362 <gc_execute_line+0x138>
    1358:	16 31       	cpi	r17, 0x16	; 22
    135a:	08 f4       	brcc	.+2      	; 0x135e <gc_execute_line+0x134>
    135c:	f7 c0       	rjmp	.+494    	; 0x154c <gc_execute_line+0x322>
    135e:	0c 94 1e 13 	jmp	0x263c	; 0x263c <gc_execute_line+0x1412>
    1362:	1e 31       	cpi	r17, 0x1E	; 30
    1364:	79 f1       	breq	.+94     	; 0x13c4 <gc_execute_line+0x19a>
    1366:	16 32       	cpi	r17, 0x26	; 38
    1368:	09 f4       	brne	.+2      	; 0x136c <gc_execute_line+0x142>
    136a:	7d c0       	rjmp	.+250    	; 0x1466 <gc_execute_line+0x23c>
    136c:	0c 94 1e 13 	jmp	0x263c	; 0x263c <gc_execute_line+0x1412>
    1370:	1d 33       	cpi	r17, 0x3D	; 61
    1372:	09 f4       	brne	.+2      	; 0x1376 <gc_execute_line+0x14c>
    1374:	0b c1       	rjmp	.+534    	; 0x158c <gc_execute_line+0x362>
    1376:	a8 f4       	brcc	.+42     	; 0x13a2 <gc_execute_line+0x178>
    1378:	15 33       	cpi	r17, 0x35	; 53
    137a:	09 f4       	brne	.+2      	; 0x137e <gc_execute_line+0x154>
    137c:	61 c0       	rjmp	.+194    	; 0x1440 <gc_execute_line+0x216>
    137e:	40 f4       	brcc	.+16     	; 0x1390 <gc_execute_line+0x166>
    1380:	1b 32       	cpi	r17, 0x2B	; 43
    1382:	09 f4       	brne	.+2      	; 0x1386 <gc_execute_line+0x15c>
    1384:	ec c0       	rjmp	.+472    	; 0x155e <gc_execute_line+0x334>
    1386:	11 33       	cpi	r17, 0x31	; 49
    1388:	09 f4       	brne	.+2      	; 0x138c <gc_execute_line+0x162>
    138a:	e9 c0       	rjmp	.+466    	; 0x155e <gc_execute_line+0x334>
    138c:	0c 94 1e 13 	jmp	0x263c	; 0x263c <gc_execute_line+0x1412>
    1390:	1c 33       	cpi	r17, 0x3C	; 60
    1392:	10 f0       	brcs	.+4      	; 0x1398 <gc_execute_line+0x16e>
    1394:	0c 94 1e 13 	jmp	0x263c	; 0x263c <gc_execute_line+0x1412>
    1398:	16 53       	subi	r17, 0x36	; 54
    139a:	10 93 8e 05 	sts	0x058E, r17
    139e:	89 e0       	ldi	r24, 0x09	; 9
    13a0:	00 c1       	rjmp	.+512    	; 0x15a2 <gc_execute_line+0x378>
    13a2:	1c 35       	cpi	r17, 0x5C	; 92
    13a4:	40 f4       	brcc	.+16     	; 0x13b6 <gc_execute_line+0x18c>
    13a6:	1a 35       	cpi	r17, 0x5A	; 90
    13a8:	08 f0       	brcs	.+2      	; 0x13ac <gc_execute_line+0x182>
    13aa:	b0 c0       	rjmp	.+352    	; 0x150c <gc_execute_line+0x2e2>
    13ac:	10 35       	cpi	r17, 0x50	; 80
    13ae:	09 f4       	brne	.+2      	; 0x13b2 <gc_execute_line+0x188>
    13b0:	9b c0       	rjmp	.+310    	; 0x14e8 <gc_execute_line+0x2be>
    13b2:	0c 94 1e 13 	jmp	0x263c	; 0x263c <gc_execute_line+0x1412>
    13b6:	1c 35       	cpi	r17, 0x5C	; 92
    13b8:	29 f0       	breq	.+10     	; 0x13c4 <gc_execute_line+0x19a>
    13ba:	1f 35       	cpi	r17, 0x5F	; 95
    13bc:	08 f4       	brcc	.+2      	; 0x13c0 <gc_execute_line+0x196>
    13be:	bd c0       	rjmp	.+378    	; 0x153a <gc_execute_line+0x310>
    13c0:	0c 94 1e 13 	jmp	0x263c	; 0x263c <gc_execute_line+0x1412>
    13c4:	61 15       	cp	r22, r1
    13c6:	71 05       	cpc	r23, r1
    13c8:	31 f4       	brne	.+12     	; 0x13d6 <gc_execute_line+0x1ac>
    13ca:	be 8d       	ldd	r27, Y+30	; 0x1e
    13cc:	b1 11       	cpse	r27, r1
    13ce:	0c 94 14 13 	jmp	0x2628	; 0x2628 <gc_execute_line+0x13fe>
    13d2:	e1 e0       	ldi	r30, 0x01	; 1
    13d4:	ee 8f       	std	Y+30, r30	; 0x1e
    13d6:	1c 31       	cpi	r17, 0x1C	; 28
    13d8:	99 f0       	breq	.+38     	; 0x1400 <gc_execute_line+0x1d6>
    13da:	38 f4       	brcc	.+14     	; 0x13ea <gc_execute_line+0x1c0>
    13dc:	14 30       	cpi	r17, 0x04	; 4
    13de:	69 f0       	breq	.+26     	; 0x13fa <gc_execute_line+0x1d0>
    13e0:	1a 30       	cpi	r17, 0x0A	; 10
    13e2:	09 f0       	breq	.+2      	; 0x13e6 <gc_execute_line+0x1bc>
    13e4:	db c0       	rjmp	.+438    	; 0x159c <gc_execute_line+0x372>
    13e6:	82 e0       	ldi	r24, 0x02	; 2
    13e8:	2c c0       	rjmp	.+88     	; 0x1442 <gc_execute_line+0x218>
    13ea:	15 33       	cpi	r17, 0x35	; 53
    13ec:	49 f1       	breq	.+82     	; 0x1440 <gc_execute_line+0x216>
    13ee:	1c 35       	cpi	r17, 0x5C	; 92
    13f0:	59 f1       	breq	.+86     	; 0x1448 <gc_execute_line+0x21e>
    13f2:	1e 31       	cpi	r17, 0x1E	; 30
    13f4:	09 f0       	breq	.+2      	; 0x13f8 <gc_execute_line+0x1ce>
    13f6:	d2 c0       	rjmp	.+420    	; 0x159c <gc_execute_line+0x372>
    13f8:	13 c0       	rjmp	.+38     	; 0x1420 <gc_execute_line+0x1f6>
    13fa:	90 92 87 05 	sts	0x0587, r9
    13fe:	ce c0       	rjmp	.+412    	; 0x159c <gc_execute_line+0x372>
    1400:	61 15       	cp	r22, r1
    1402:	71 05       	cpc	r23, r1
    1404:	49 f0       	breq	.+18     	; 0x1418 <gc_execute_line+0x1ee>
    1406:	6a 30       	cpi	r22, 0x0A	; 10
    1408:	71 05       	cpc	r23, r1
    140a:	11 f0       	breq	.+4      	; 0x1410 <gc_execute_line+0x1e6>
    140c:	0c 94 1e 13 	jmp	0x263c	; 0x263c <gc_execute_line+0x1412>
    1410:	24 e0       	ldi	r18, 0x04	; 4
    1412:	20 93 87 05 	sts	0x0587, r18
    1416:	09 c0       	rjmp	.+18     	; 0x142a <gc_execute_line+0x200>
    1418:	f3 e0       	ldi	r31, 0x03	; 3
    141a:	f0 93 87 05 	sts	0x0587, r31
    141e:	05 c0       	rjmp	.+10     	; 0x142a <gc_execute_line+0x200>
    1420:	61 15       	cp	r22, r1
    1422:	71 05       	cpc	r23, r1
    1424:	21 f4       	brne	.+8      	; 0x142e <gc_execute_line+0x204>
    1426:	80 92 87 05 	sts	0x0587, r8
    142a:	80 e0       	ldi	r24, 0x00	; 0
    142c:	bf c0       	rjmp	.+382    	; 0x15ac <gc_execute_line+0x382>
    142e:	6a 30       	cpi	r22, 0x0A	; 10
    1430:	71 05       	cpc	r23, r1
    1432:	11 f0       	breq	.+4      	; 0x1438 <gc_execute_line+0x20e>
    1434:	0c 94 1e 13 	jmp	0x263c	; 0x263c <gc_execute_line+0x1412>
    1438:	36 e0       	ldi	r19, 0x06	; 6
    143a:	30 93 87 05 	sts	0x0587, r19
    143e:	f5 cf       	rjmp	.-22     	; 0x142a <gc_execute_line+0x200>
    1440:	87 e0       	ldi	r24, 0x07	; 7
    1442:	80 93 87 05 	sts	0x0587, r24
    1446:	aa c0       	rjmp	.+340    	; 0x159c <gc_execute_line+0x372>
    1448:	61 15       	cp	r22, r1
    144a:	71 05       	cpc	r23, r1
    144c:	49 f0       	breq	.+18     	; 0x1460 <gc_execute_line+0x236>
    144e:	6a 30       	cpi	r22, 0x0A	; 10
    1450:	71 05       	cpc	r23, r1
    1452:	11 f0       	breq	.+4      	; 0x1458 <gc_execute_line+0x22e>
    1454:	0c 94 1e 13 	jmp	0x263c	; 0x263c <gc_execute_line+0x1412>
    1458:	99 e0       	ldi	r25, 0x09	; 9
    145a:	90 93 87 05 	sts	0x0587, r25
    145e:	e5 cf       	rjmp	.-54     	; 0x142a <gc_execute_line+0x200>
    1460:	40 92 87 05 	sts	0x0587, r4
    1464:	e2 cf       	rjmp	.-60     	; 0x142a <gc_execute_line+0x200>
    1466:	ae 8d       	ldd	r26, Y+30	; 0x1e
    1468:	a1 11       	cpse	r26, r1
    146a:	0c 94 14 13 	jmp	0x2628	; 0x2628 <gc_execute_line+0x13fe>
    146e:	b2 e0       	ldi	r27, 0x02	; 2
    1470:	be 8f       	std	Y+30, r27	; 0x1e
    1472:	12 30       	cpi	r17, 0x02	; 2
    1474:	89 f0       	breq	.+34     	; 0x1498 <gc_execute_line+0x26e>
    1476:	28 f4       	brcc	.+10     	; 0x1482 <gc_execute_line+0x258>
    1478:	11 23       	and	r17, r17
    147a:	59 f0       	breq	.+22     	; 0x1492 <gc_execute_line+0x268>
    147c:	11 30       	cpi	r17, 0x01	; 1
    147e:	81 f0       	breq	.+32     	; 0x14a0 <gc_execute_line+0x276>
    1480:	8f c0       	rjmp	.+286    	; 0x15a0 <gc_execute_line+0x376>
    1482:	16 32       	cpi	r17, 0x26	; 38
    1484:	81 f0       	breq	.+32     	; 0x14a6 <gc_execute_line+0x27c>
    1486:	10 35       	cpi	r17, 0x50	; 80
    1488:	79 f1       	breq	.+94     	; 0x14e8 <gc_execute_line+0x2be>
    148a:	13 30       	cpi	r17, 0x03	; 3
    148c:	09 f0       	breq	.+2      	; 0x1490 <gc_execute_line+0x266>
    148e:	88 c0       	rjmp	.+272    	; 0x15a0 <gc_execute_line+0x376>
    1490:	07 c0       	rjmp	.+14     	; 0x14a0 <gc_execute_line+0x276>
    1492:	10 92 88 05 	sts	0x0588, r1
    1496:	84 c0       	rjmp	.+264    	; 0x15a0 <gc_execute_line+0x376>
    1498:	ee 8d       	ldd	r30, Y+30	; 0x1e
    149a:	e0 93 88 05 	sts	0x0588, r30
    149e:	80 c0       	rjmp	.+256    	; 0x15a0 <gc_execute_line+0x376>
    14a0:	10 93 88 05 	sts	0x0588, r17
    14a4:	7d c0       	rjmp	.+250    	; 0x15a0 <gc_execute_line+0x376>
    14a6:	6e 31       	cpi	r22, 0x1E	; 30
    14a8:	71 05       	cpc	r23, r1
    14aa:	b1 f0       	breq	.+44     	; 0x14d8 <gc_execute_line+0x2ae>
    14ac:	48 f4       	brcc	.+18     	; 0x14c0 <gc_execute_line+0x296>
    14ae:	64 31       	cpi	r22, 0x14	; 20
    14b0:	71 05       	cpc	r23, r1
    14b2:	11 f0       	breq	.+4      	; 0x14b8 <gc_execute_line+0x28e>
    14b4:	0c 94 1e 13 	jmp	0x263c	; 0x263c <gc_execute_line+0x1412>
    14b8:	f4 e0       	ldi	r31, 0x04	; 4
    14ba:	f0 93 88 05 	sts	0x0588, r31
    14be:	12 c0       	rjmp	.+36     	; 0x14e4 <gc_execute_line+0x2ba>
    14c0:	68 32       	cpi	r22, 0x28	; 40
    14c2:	71 05       	cpc	r23, r1
    14c4:	61 f0       	breq	.+24     	; 0x14de <gc_execute_line+0x2b4>
    14c6:	62 33       	cpi	r22, 0x32	; 50
    14c8:	71 05       	cpc	r23, r1
    14ca:	11 f0       	breq	.+4      	; 0x14d0 <gc_execute_line+0x2a6>
    14cc:	0c 94 1e 13 	jmp	0x263c	; 0x263c <gc_execute_line+0x1412>
    14d0:	37 e0       	ldi	r19, 0x07	; 7
    14d2:	30 93 88 05 	sts	0x0588, r19
    14d6:	06 c0       	rjmp	.+12     	; 0x14e4 <gc_execute_line+0x2ba>
    14d8:	80 92 88 05 	sts	0x0588, r8
    14dc:	03 c0       	rjmp	.+6      	; 0x14e4 <gc_execute_line+0x2ba>
    14de:	26 e0       	ldi	r18, 0x06	; 6
    14e0:	20 93 88 05 	sts	0x0588, r18
    14e4:	81 e0       	ldi	r24, 0x01	; 1
    14e6:	62 c0       	rjmp	.+196    	; 0x15ac <gc_execute_line+0x382>
    14e8:	40 92 88 05 	sts	0x0588, r4
    14ec:	59 c0       	rjmp	.+178    	; 0x15a0 <gc_execute_line+0x376>
    14ee:	12 31       	cpi	r17, 0x12	; 18
    14f0:	29 f0       	breq	.+10     	; 0x14fc <gc_execute_line+0x2d2>
    14f2:	13 31       	cpi	r17, 0x13	; 19
    14f4:	39 f0       	breq	.+14     	; 0x1504 <gc_execute_line+0x2da>
    14f6:	10 92 8c 05 	sts	0x058C, r1
    14fa:	02 c0       	rjmp	.+4      	; 0x1500 <gc_execute_line+0x2d6>
    14fc:	90 92 8c 05 	sts	0x058C, r9
    1500:	82 e0       	ldi	r24, 0x02	; 2
    1502:	4f c0       	rjmp	.+158    	; 0x15a2 <gc_execute_line+0x378>
    1504:	82 e0       	ldi	r24, 0x02	; 2
    1506:	80 93 8c 05 	sts	0x058C, r24
    150a:	4b c0       	rjmp	.+150    	; 0x15a2 <gc_execute_line+0x378>
    150c:	61 15       	cp	r22, r1
    150e:	71 05       	cpc	r23, r1
    1510:	49 f4       	brne	.+18     	; 0x1524 <gc_execute_line+0x2fa>
    1512:	1a 35       	cpi	r17, 0x5A	; 90
    1514:	19 f4       	brne	.+6      	; 0x151c <gc_execute_line+0x2f2>
    1516:	10 92 8b 05 	sts	0x058B, r1
    151a:	02 c0       	rjmp	.+4      	; 0x1520 <gc_execute_line+0x2f6>
    151c:	90 92 8b 05 	sts	0x058B, r9
    1520:	83 e0       	ldi	r24, 0x03	; 3
    1522:	44 c0       	rjmp	.+136    	; 0x15ac <gc_execute_line+0x382>
    1524:	6a 30       	cpi	r22, 0x0A	; 10
    1526:	71 05       	cpc	r23, r1
    1528:	11 f0       	breq	.+4      	; 0x152e <gc_execute_line+0x304>
    152a:	0c 94 1e 13 	jmp	0x263c	; 0x263c <gc_execute_line+0x1412>
    152e:	1a 35       	cpi	r17, 0x5A	; 90
    1530:	11 f4       	brne	.+4      	; 0x1536 <gc_execute_line+0x30c>
    1532:	0c 94 1e 13 	jmp	0x263c	; 0x263c <gc_execute_line+0x1412>
    1536:	84 e0       	ldi	r24, 0x04	; 4
    1538:	39 c0       	rjmp	.+114    	; 0x15ac <gc_execute_line+0x382>
    153a:	1d 35       	cpi	r17, 0x5D	; 93
    153c:	19 f4       	brne	.+6      	; 0x1544 <gc_execute_line+0x31a>
    153e:	90 92 89 05 	sts	0x0589, r9
    1542:	02 c0       	rjmp	.+4      	; 0x1548 <gc_execute_line+0x31e>
    1544:	10 92 89 05 	sts	0x0589, r1
    1548:	85 e0       	ldi	r24, 0x05	; 5
    154a:	2b c0       	rjmp	.+86     	; 0x15a2 <gc_execute_line+0x378>
    154c:	14 31       	cpi	r17, 0x14	; 20
    154e:	19 f4       	brne	.+6      	; 0x1556 <gc_execute_line+0x32c>
    1550:	90 92 8a 05 	sts	0x058A, r9
    1554:	02 c0       	rjmp	.+4      	; 0x155a <gc_execute_line+0x330>
    1556:	10 92 8a 05 	sts	0x058A, r1
    155a:	86 e0       	ldi	r24, 0x06	; 6
    155c:	22 c0       	rjmp	.+68     	; 0x15a2 <gc_execute_line+0x378>
    155e:	8e 8d       	ldd	r24, Y+30	; 0x1e
    1560:	81 11       	cpse	r24, r1
    1562:	0c 94 14 13 	jmp	0x2628	; 0x2628 <gc_execute_line+0x13fe>
    1566:	11 33       	cpi	r17, 0x31	; 49
    1568:	31 f4       	brne	.+12     	; 0x1576 <gc_execute_line+0x34c>
    156a:	10 92 8d 05 	sts	0x058D, r1
    156e:	88 e0       	ldi	r24, 0x08	; 8
    1570:	93 e0       	ldi	r25, 0x03	; 3
    1572:	9e 8f       	std	Y+30, r25	; 0x1e
    1574:	1b c0       	rjmp	.+54     	; 0x15ac <gc_execute_line+0x382>
    1576:	6a 30       	cpi	r22, 0x0A	; 10
    1578:	71 05       	cpc	r23, r1
    157a:	11 f0       	breq	.+4      	; 0x1580 <gc_execute_line+0x356>
    157c:	0c 94 1e 13 	jmp	0x263c	; 0x263c <gc_execute_line+0x1412>
    1580:	90 92 8d 05 	sts	0x058D, r9
    1584:	88 e0       	ldi	r24, 0x08	; 8
    1586:	a3 e0       	ldi	r26, 0x03	; 3
    1588:	ae 8f       	std	Y+30, r26	; 0x1e
    158a:	10 c0       	rjmp	.+32     	; 0x15ac <gc_execute_line+0x382>
    158c:	67 2b       	or	r22, r23
    158e:	11 f0       	breq	.+4      	; 0x1594 <gc_execute_line+0x36a>
    1590:	0c 94 1e 13 	jmp	0x263c	; 0x263c <gc_execute_line+0x1412>
    1594:	8a e0       	ldi	r24, 0x0A	; 10
    1596:	0a c0       	rjmp	.+20     	; 0x15ac <gc_execute_line+0x382>
    1598:	87 e0       	ldi	r24, 0x07	; 7
    159a:	03 c0       	rjmp	.+6      	; 0x15a2 <gc_execute_line+0x378>
    159c:	80 e0       	ldi	r24, 0x00	; 0
    159e:	01 c0       	rjmp	.+2      	; 0x15a2 <gc_execute_line+0x378>
    15a0:	81 e0       	ldi	r24, 0x01	; 1
    15a2:	67 2b       	or	r22, r23
    15a4:	19 f0       	breq	.+6      	; 0x15ac <gc_execute_line+0x382>
    15a6:	87 e1       	ldi	r24, 0x17	; 23
    15a8:	0c 94 31 13 	jmp	0x2662	; 0x2662 <gc_execute_line+0x1438>
    15ac:	f3 01       	movw	r30, r6
    15ae:	02 c0       	rjmp	.+4      	; 0x15b4 <gc_execute_line+0x38a>
    15b0:	ee 0f       	add	r30, r30
    15b2:	ff 1f       	adc	r31, r31
    15b4:	8a 95       	dec	r24
    15b6:	e2 f7       	brpl	.-8      	; 0x15b0 <gc_execute_line+0x386>
    15b8:	cf 01       	movw	r24, r30
    15ba:	9f 01       	movw	r18, r30
    15bc:	2a 21       	and	r18, r10
    15be:	3b 21       	and	r19, r11
    15c0:	23 2b       	or	r18, r19
    15c2:	09 f4       	brne	.+2      	; 0x15c6 <gc_execute_line+0x39c>
    15c4:	43 c0       	rjmp	.+134    	; 0x164c <gc_execute_line+0x422>
    15c6:	85 e1       	ldi	r24, 0x15	; 21
    15c8:	0c 94 31 13 	jmp	0x2662	; 0x2662 <gc_execute_line+0x1438>
    15cc:	67 2b       	or	r22, r23
    15ce:	59 f7       	brne	.-42     	; 0x15a6 <gc_execute_line+0x37c>
    15d0:	16 30       	cpi	r17, 0x06	; 6
    15d2:	18 f4       	brcc	.+6      	; 0x15da <gc_execute_line+0x3b0>
    15d4:	13 30       	cpi	r17, 0x03	; 3
    15d6:	58 f0       	brcs	.+22     	; 0x15ee <gc_execute_line+0x3c4>
    15d8:	17 c0       	rjmp	.+46     	; 0x1608 <gc_execute_line+0x3de>
    15da:	18 30       	cpi	r17, 0x08	; 8
    15dc:	10 f4       	brcc	.+4      	; 0x15e2 <gc_execute_line+0x3b8>
    15de:	0c 94 1e 13 	jmp	0x263c	; 0x263c <gc_execute_line+0x1412>
    15e2:	1a 30       	cpi	r17, 0x0A	; 10
    15e4:	00 f1       	brcs	.+64     	; 0x1626 <gc_execute_line+0x3fc>
    15e6:	1e 31       	cpi	r17, 0x1E	; 30
    15e8:	59 f0       	breq	.+22     	; 0x1600 <gc_execute_line+0x3d6>
    15ea:	0c 94 1e 13 	jmp	0x263c	; 0x263c <gc_execute_line+0x1412>
    15ee:	12 30       	cpi	r17, 0x02	; 2
    15f0:	39 f0       	breq	.+14     	; 0x1600 <gc_execute_line+0x3d6>
    15f2:	1e 31       	cpi	r17, 0x1E	; 30
    15f4:	29 f0       	breq	.+10     	; 0x1600 <gc_execute_line+0x3d6>
    15f6:	11 11       	cpse	r17, r1
    15f8:	20 c0       	rjmp	.+64     	; 0x163a <gc_execute_line+0x410>
    15fa:	90 92 8f 05 	sts	0x058F, r9
    15fe:	1d c0       	rjmp	.+58     	; 0x163a <gc_execute_line+0x410>
    1600:	82 e0       	ldi	r24, 0x02	; 2
    1602:	80 93 8f 05 	sts	0x058F, r24
    1606:	19 c0       	rjmp	.+50     	; 0x163a <gc_execute_line+0x410>
    1608:	14 30       	cpi	r17, 0x04	; 4
    160a:	29 f0       	breq	.+10     	; 0x1616 <gc_execute_line+0x3ec>
    160c:	15 30       	cpi	r17, 0x05	; 5
    160e:	39 f0       	breq	.+14     	; 0x161e <gc_execute_line+0x3f4>
    1610:	90 92 91 05 	sts	0x0591, r9
    1614:	06 c0       	rjmp	.+12     	; 0x1622 <gc_execute_line+0x3f8>
    1616:	82 e0       	ldi	r24, 0x02	; 2
    1618:	80 93 91 05 	sts	0x0591, r24
    161c:	02 c0       	rjmp	.+4      	; 0x1622 <gc_execute_line+0x3f8>
    161e:	10 92 91 05 	sts	0x0591, r1
    1622:	8c e0       	ldi	r24, 0x0C	; 12
    1624:	0b c0       	rjmp	.+22     	; 0x163c <gc_execute_line+0x412>
    1626:	19 30       	cpi	r17, 0x09	; 9
    1628:	21 f0       	breq	.+8      	; 0x1632 <gc_execute_line+0x408>
    162a:	82 e0       	ldi	r24, 0x02	; 2
    162c:	80 93 90 05 	sts	0x0590, r24
    1630:	02 c0       	rjmp	.+4      	; 0x1636 <gc_execute_line+0x40c>
    1632:	10 92 90 05 	sts	0x0590, r1
    1636:	8d e0       	ldi	r24, 0x0D	; 13
    1638:	01 c0       	rjmp	.+2      	; 0x163c <gc_execute_line+0x412>
    163a:	8b e0       	ldi	r24, 0x0B	; 11
    163c:	93 01       	movw	r18, r6
    163e:	02 c0       	rjmp	.+4      	; 0x1644 <gc_execute_line+0x41a>
    1640:	22 0f       	add	r18, r18
    1642:	33 1f       	adc	r19, r19
    1644:	8a 95       	dec	r24
    1646:	e2 f7       	brpl	.-8      	; 0x1640 <gc_execute_line+0x416>
    1648:	c9 01       	movw	r24, r18
    164a:	b8 cf       	rjmp	.-144    	; 0x15bc <gc_execute_line+0x392>
    164c:	a8 2a       	or	r10, r24
    164e:	b9 2a       	or	r11, r25
    1650:	29 ce       	rjmp	.-942    	; 0x12a4 <gc_execute_line+0x7a>
    1652:	80 2f       	mov	r24, r16
    1654:	99 27       	eor	r25, r25
    1656:	87 fd       	sbrc	r24, 7
    1658:	90 95       	com	r25
    165a:	a9 2f       	mov	r26, r25
    165c:	b9 2f       	mov	r27, r25
    165e:	fc 01       	movw	r30, r24
    1660:	e6 54       	subi	r30, 0x46	; 70
    1662:	f1 09       	sbc	r31, r1
    1664:	e5 31       	cpi	r30, 0x15	; 21
    1666:	f1 05       	cpc	r31, r1
    1668:	08 f0       	brcs	.+2      	; 0x166c <gc_execute_line+0x442>
    166a:	e8 c7       	rjmp	.+4048   	; 0x263c <gc_execute_line+0x1412>
    166c:	ec 5c       	subi	r30, 0xCC	; 204
    166e:	ff 4f       	sbci	r31, 0xFF	; 255
    1670:	0c 94 38 38 	jmp	0x7070	; 0x7070 <__tablejump2__>
    1674:	c0 92 92 05 	sts	0x0592, r12
    1678:	d0 92 93 05 	sts	0x0593, r13
    167c:	e0 92 94 05 	sts	0x0594, r14
    1680:	f0 92 95 05 	sts	0x0595, r15
    1684:	80 e0       	ldi	r24, 0x00	; 0
    1686:	7f c0       	rjmp	.+254    	; 0x1786 <gc_execute_line+0x55c>
    1688:	c0 92 96 05 	sts	0x0596, r12
    168c:	d0 92 97 05 	sts	0x0597, r13
    1690:	e0 92 98 05 	sts	0x0598, r14
    1694:	f0 92 99 05 	sts	0x0599, r15
    1698:	39 a1       	ldd	r19, Y+33	; 0x21
    169a:	31 60       	ori	r19, 0x01	; 1
    169c:	39 a3       	std	Y+33, r19	; 0x21
    169e:	81 e0       	ldi	r24, 0x01	; 1
    16a0:	72 c0       	rjmp	.+228    	; 0x1786 <gc_execute_line+0x55c>
    16a2:	c0 92 9a 05 	sts	0x059A, r12
    16a6:	d0 92 9b 05 	sts	0x059B, r13
    16aa:	e0 92 9c 05 	sts	0x059C, r14
    16ae:	f0 92 9d 05 	sts	0x059D, r15
    16b2:	89 a1       	ldd	r24, Y+33	; 0x21
    16b4:	82 60       	ori	r24, 0x02	; 2
    16b6:	89 a3       	std	Y+33, r24	; 0x21
    16b8:	82 e0       	ldi	r24, 0x02	; 2
    16ba:	65 c0       	rjmp	.+202    	; 0x1786 <gc_execute_line+0x55c>
    16bc:	c0 92 9e 05 	sts	0x059E, r12
    16c0:	d0 92 9f 05 	sts	0x059F, r13
    16c4:	e0 92 a0 05 	sts	0x05A0, r14
    16c8:	f0 92 a1 05 	sts	0x05A1, r15
    16cc:	99 a1       	ldd	r25, Y+33	; 0x21
    16ce:	94 60       	ori	r25, 0x04	; 4
    16d0:	99 a3       	std	Y+33, r25	; 0x21
    16d2:	83 e0       	ldi	r24, 0x03	; 3
    16d4:	58 c0       	rjmp	.+176    	; 0x1786 <gc_execute_line+0x55c>
    16d6:	10 93 a2 05 	sts	0x05A2, r17
    16da:	84 e0       	ldi	r24, 0x04	; 4
    16dc:	54 c0       	rjmp	.+168    	; 0x1786 <gc_execute_line+0x55c>
    16de:	c7 01       	movw	r24, r14
    16e0:	b6 01       	movw	r22, r12
    16e2:	0e 94 4e 35 	call	0x6a9c	; 0x6a9c <__fixsfsi>
    16e6:	60 93 a3 05 	sts	0x05A3, r22
    16ea:	70 93 a4 05 	sts	0x05A4, r23
    16ee:	80 93 a5 05 	sts	0x05A5, r24
    16f2:	90 93 a6 05 	sts	0x05A6, r25
    16f6:	85 e0       	ldi	r24, 0x05	; 5
    16f8:	46 c0       	rjmp	.+140    	; 0x1786 <gc_execute_line+0x55c>
    16fa:	c0 92 a7 05 	sts	0x05A7, r12
    16fe:	d0 92 a8 05 	sts	0x05A8, r13
    1702:	e0 92 a9 05 	sts	0x05A9, r14
    1706:	f0 92 aa 05 	sts	0x05AA, r15
    170a:	86 e0       	ldi	r24, 0x06	; 6
    170c:	3c c0       	rjmp	.+120    	; 0x1786 <gc_execute_line+0x55c>
    170e:	c0 92 ab 05 	sts	0x05AB, r12
    1712:	d0 92 ac 05 	sts	0x05AC, r13
    1716:	e0 92 ad 05 	sts	0x05AD, r14
    171a:	f0 92 ae 05 	sts	0x05AE, r15
    171e:	87 e0       	ldi	r24, 0x07	; 7
    1720:	32 c0       	rjmp	.+100    	; 0x1786 <gc_execute_line+0x55c>
    1722:	c0 92 af 05 	sts	0x05AF, r12
    1726:	d0 92 b0 05 	sts	0x05B0, r13
    172a:	e0 92 b1 05 	sts	0x05B1, r14
    172e:	f0 92 b2 05 	sts	0x05B2, r15
    1732:	88 e0       	ldi	r24, 0x08	; 8
    1734:	28 c0       	rjmp	.+80     	; 0x1786 <gc_execute_line+0x55c>
    1736:	c0 92 b4 05 	sts	0x05B4, r12
    173a:	d0 92 b5 05 	sts	0x05B5, r13
    173e:	e0 92 b6 05 	sts	0x05B6, r14
    1742:	f0 92 b7 05 	sts	0x05B7, r15
    1746:	a5 2d       	mov	r26, r5
    1748:	a1 60       	ori	r26, 0x01	; 1
    174a:	5a 2e       	mov	r5, r26
    174c:	8a e0       	ldi	r24, 0x0A	; 10
    174e:	1b c0       	rjmp	.+54     	; 0x1786 <gc_execute_line+0x55c>
    1750:	c0 92 b8 05 	sts	0x05B8, r12
    1754:	d0 92 b9 05 	sts	0x05B9, r13
    1758:	e0 92 ba 05 	sts	0x05BA, r14
    175c:	f0 92 bb 05 	sts	0x05BB, r15
    1760:	b5 2d       	mov	r27, r5
    1762:	b2 60       	ori	r27, 0x02	; 2
    1764:	5b 2e       	mov	r5, r27
    1766:	8b e0       	ldi	r24, 0x0B	; 11
    1768:	0e c0       	rjmp	.+28     	; 0x1786 <gc_execute_line+0x55c>
    176a:	c0 92 bc 05 	sts	0x05BC, r12
    176e:	d0 92 bd 05 	sts	0x05BD, r13
    1772:	e0 92 be 05 	sts	0x05BE, r14
    1776:	f0 92 bf 05 	sts	0x05BF, r15
    177a:	e5 2d       	mov	r30, r5
    177c:	e4 60       	ori	r30, 0x04	; 4
    177e:	5e 2e       	mov	r5, r30
    1780:	8c e0       	ldi	r24, 0x0C	; 12
    1782:	01 c0       	rjmp	.+2      	; 0x1786 <gc_execute_line+0x55c>
    1784:	89 e0       	ldi	r24, 0x09	; 9
    1786:	83 01       	movw	r16, r6
    1788:	08 2e       	mov	r0, r24
    178a:	02 c0       	rjmp	.+4      	; 0x1790 <gc_execute_line+0x566>
    178c:	00 0f       	add	r16, r16
    178e:	11 1f       	adc	r17, r17
    1790:	0a 94       	dec	r0
    1792:	e2 f7       	brpl	.-8      	; 0x178c <gc_execute_line+0x562>
    1794:	98 01       	movw	r18, r16
    1796:	22 21       	and	r18, r2
    1798:	33 21       	and	r19, r3
    179a:	23 2b       	or	r18, r19
    179c:	09 f0       	breq	.+2      	; 0x17a0 <gc_execute_line+0x576>
    179e:	46 c7       	rjmp	.+3724   	; 0x262c <gc_execute_line+0x1402>
    17a0:	21 e6       	ldi	r18, 0x61	; 97
    17a2:	33 e0       	ldi	r19, 0x03	; 3
    17a4:	02 c0       	rjmp	.+4      	; 0x17aa <gc_execute_line+0x580>
    17a6:	35 95       	asr	r19
    17a8:	27 95       	ror	r18
    17aa:	8a 95       	dec	r24
    17ac:	e2 f7       	brpl	.-8      	; 0x17a6 <gc_execute_line+0x57c>
    17ae:	20 ff       	sbrs	r18, 0
    17b0:	09 c0       	rjmp	.+18     	; 0x17c4 <gc_execute_line+0x59a>
    17b2:	20 e0       	ldi	r18, 0x00	; 0
    17b4:	30 e0       	ldi	r19, 0x00	; 0
    17b6:	a9 01       	movw	r20, r18
    17b8:	c7 01       	movw	r24, r14
    17ba:	b6 01       	movw	r22, r12
    17bc:	0e 94 df 34 	call	0x69be	; 0x69be <__cmpsf2>
    17c0:	87 fd       	sbrc	r24, 7
    17c2:	36 c7       	rjmp	.+3692   	; 0x2630 <gc_execute_line+0x1406>
    17c4:	20 2a       	or	r2, r16
    17c6:	31 2a       	or	r3, r17
    17c8:	6d cd       	rjmp	.-1318   	; 0x12a4 <gc_execute_line+0x7a>
    17ca:	55 20       	and	r5, r5
    17cc:	29 f0       	breq	.+10     	; 0x17d8 <gc_execute_line+0x5ae>
    17ce:	3e 8d       	ldd	r19, Y+30	; 0x1e
    17d0:	31 11       	cpse	r19, r1
    17d2:	02 c0       	rjmp	.+4      	; 0x17d8 <gc_execute_line+0x5ae>
    17d4:	82 e0       	ldi	r24, 0x02	; 2
    17d6:	8e 8f       	std	Y+30, r24	; 0x1e
    17d8:	25 fe       	sbrs	r2, 5
    17da:	0e c0       	rjmp	.+28     	; 0x17f8 <gc_execute_line+0x5ce>
    17dc:	80 91 a3 05 	lds	r24, 0x05A3
    17e0:	90 91 a4 05 	lds	r25, 0x05A4
    17e4:	a0 91 a5 05 	lds	r26, 0x05A5
    17e8:	b0 91 a6 05 	lds	r27, 0x05A6
    17ec:	80 38       	cpi	r24, 0x80	; 128
    17ee:	96 49       	sbci	r25, 0x96	; 150
    17f0:	a8 49       	sbci	r26, 0x98	; 152
    17f2:	b1 05       	cpc	r27, r1
    17f4:	0c f0       	brlt	.+2      	; 0x17f8 <gc_execute_line+0x5ce>
    17f6:	1e c7       	rjmp	.+3644   	; 0x2634 <gc_execute_line+0x140a>
    17f8:	80 91 89 05 	lds	r24, 0x0589
    17fc:	81 30       	cpi	r24, 0x01	; 1
    17fe:	31 f4       	brne	.+12     	; 0x180c <gc_execute_line+0x5e2>
    1800:	fe 8d       	ldd	r31, Y+30	; 0x1e
    1802:	f2 30       	cpi	r31, 0x02	; 2
    1804:	a1 f5       	brne	.+104    	; 0x186e <gc_execute_line+0x644>
    1806:	20 fe       	sbrs	r2, 0
    1808:	1f c7       	rjmp	.+3646   	; 0x2648 <gc_execute_line+0x141e>
    180a:	31 c0       	rjmp	.+98     	; 0x186e <gc_execute_line+0x644>
    180c:	80 91 49 05 	lds	r24, 0x0549
    1810:	81 11       	cpse	r24, r1
    1812:	2d c0       	rjmp	.+90     	; 0x186e <gc_execute_line+0x644>
    1814:	20 fe       	sbrs	r2, 0
    1816:	1b c0       	rjmp	.+54     	; 0x184e <gc_execute_line+0x624>
    1818:	80 91 8a 05 	lds	r24, 0x058A
    181c:	81 30       	cpi	r24, 0x01	; 1
    181e:	39 f5       	brne	.+78     	; 0x186e <gc_execute_line+0x644>
    1820:	23 e3       	ldi	r18, 0x33	; 51
    1822:	33 e3       	ldi	r19, 0x33	; 51
    1824:	4b ec       	ldi	r20, 0xCB	; 203
    1826:	51 e4       	ldi	r21, 0x41	; 65
    1828:	60 91 92 05 	lds	r22, 0x0592
    182c:	70 91 93 05 	lds	r23, 0x0593
    1830:	80 91 94 05 	lds	r24, 0x0594
    1834:	90 91 95 05 	lds	r25, 0x0595
    1838:	0e 94 1d 37 	call	0x6e3a	; 0x6e3a <__mulsf3>
    183c:	60 93 92 05 	sts	0x0592, r22
    1840:	70 93 93 05 	sts	0x0593, r23
    1844:	80 93 94 05 	sts	0x0594, r24
    1848:	90 93 95 05 	sts	0x0595, r25
    184c:	10 c0       	rjmp	.+32     	; 0x186e <gc_execute_line+0x644>
    184e:	80 91 56 05 	lds	r24, 0x0556
    1852:	90 91 57 05 	lds	r25, 0x0557
    1856:	a0 91 58 05 	lds	r26, 0x0558
    185a:	b0 91 59 05 	lds	r27, 0x0559
    185e:	80 93 92 05 	sts	0x0592, r24
    1862:	90 93 93 05 	sts	0x0593, r25
    1866:	a0 93 94 05 	sts	0x0594, r26
    186a:	b0 93 95 05 	sts	0x0595, r27
    186e:	30 fc       	sbrc	r3, 0
    1870:	10 c0       	rjmp	.+32     	; 0x1892 <gc_execute_line+0x668>
    1872:	80 91 52 05 	lds	r24, 0x0552
    1876:	90 91 53 05 	lds	r25, 0x0553
    187a:	a0 91 54 05 	lds	r26, 0x0554
    187e:	b0 91 55 05 	lds	r27, 0x0555
    1882:	80 93 af 05 	sts	0x05AF, r24
    1886:	90 93 b0 05 	sts	0x05B0, r25
    188a:	a0 93 b1 05 	sts	0x05B1, r26
    188e:	b0 93 b2 05 	sts	0x05B2, r27
    1892:	80 91 87 05 	lds	r24, 0x0587
    1896:	81 30       	cpi	r24, 0x01	; 1
    1898:	31 f4       	brne	.+12     	; 0x18a6 <gc_execute_line+0x67c>
    189a:	26 fc       	sbrc	r2, 6
    189c:	02 c0       	rjmp	.+4      	; 0x18a2 <gc_execute_line+0x678>
    189e:	8c e1       	ldi	r24, 0x1C	; 28
    18a0:	e0 c6       	rjmp	.+3520   	; 0x2662 <gc_execute_line+0x1438>
    18a2:	e8 94       	clt
    18a4:	26 f8       	bld	r2, 6
    18a6:	80 91 8c 05 	lds	r24, 0x058C
    18aa:	88 23       	and	r24, r24
    18ac:	41 f0       	breq	.+16     	; 0x18be <gc_execute_line+0x694>
    18ae:	81 30       	cpi	r24, 0x01	; 1
    18b0:	61 f0       	breq	.+24     	; 0x18ca <gc_execute_line+0x6a0>
    18b2:	19 a6       	std	Y+41, r1	; 0x29
    18b4:	82 e0       	ldi	r24, 0x02	; 2
    18b6:	88 a7       	std	Y+40, r24	; 0x28
    18b8:	91 e0       	ldi	r25, 0x01	; 1
    18ba:	9f a3       	std	Y+39, r25	; 0x27
    18bc:	0b c0       	rjmp	.+22     	; 0x18d4 <gc_execute_line+0x6aa>
    18be:	22 e0       	ldi	r18, 0x02	; 2
    18c0:	29 a7       	std	Y+41, r18	; 0x29
    18c2:	31 e0       	ldi	r19, 0x01	; 1
    18c4:	38 a7       	std	Y+40, r19	; 0x28
    18c6:	1f a2       	std	Y+39, r1	; 0x27
    18c8:	05 c0       	rjmp	.+10     	; 0x18d4 <gc_execute_line+0x6aa>
    18ca:	a1 e0       	ldi	r26, 0x01	; 1
    18cc:	a9 a7       	std	Y+41, r26	; 0x29
    18ce:	18 a6       	std	Y+40, r1	; 0x28
    18d0:	b2 e0       	ldi	r27, 0x02	; 2
    18d2:	bf a3       	std	Y+39, r27	; 0x27
    18d4:	80 91 8a 05 	lds	r24, 0x058A
    18d8:	81 30       	cpi	r24, 0x01	; 1
    18da:	21 f0       	breq	.+8      	; 0x18e4 <gc_execute_line+0x6ba>
    18dc:	ee 8d       	ldd	r30, Y+30	; 0x1e
    18de:	e3 30       	cpi	r30, 0x03	; 3
    18e0:	91 f5       	brne	.+100    	; 0x1946 <gc_execute_line+0x71c>
    18e2:	2a c0       	rjmp	.+84     	; 0x1938 <gc_execute_line+0x70e>
    18e4:	b4 eb       	ldi	r27, 0xB4	; 180
    18e6:	eb 2e       	mov	r14, r27
    18e8:	b5 e0       	ldi	r27, 0x05	; 5
    18ea:	fb 2e       	mov	r15, r27
    18ec:	00 e0       	ldi	r16, 0x00	; 0
    18ee:	10 e0       	ldi	r17, 0x00	; 0
    18f0:	c5 2c       	mov	r12, r5
    18f2:	d1 2c       	mov	r13, r1
    18f4:	c6 01       	movw	r24, r12
    18f6:	00 2e       	mov	r0, r16
    18f8:	02 c0       	rjmp	.+4      	; 0x18fe <gc_execute_line+0x6d4>
    18fa:	95 95       	asr	r25
    18fc:	87 95       	ror	r24
    18fe:	0a 94       	dec	r0
    1900:	e2 f7       	brpl	.-8      	; 0x18fa <gc_execute_line+0x6d0>
    1902:	80 ff       	sbrs	r24, 0
    1904:	10 c0       	rjmp	.+32     	; 0x1926 <gc_execute_line+0x6fc>
    1906:	23 e3       	ldi	r18, 0x33	; 51
    1908:	33 e3       	ldi	r19, 0x33	; 51
    190a:	4b ec       	ldi	r20, 0xCB	; 203
    190c:	51 e4       	ldi	r21, 0x41	; 65
    190e:	d7 01       	movw	r26, r14
    1910:	6d 91       	ld	r22, X+
    1912:	7d 91       	ld	r23, X+
    1914:	8d 91       	ld	r24, X+
    1916:	9c 91       	ld	r25, X
    1918:	0e 94 1d 37 	call	0x6e3a	; 0x6e3a <__mulsf3>
    191c:	f7 01       	movw	r30, r14
    191e:	60 83       	st	Z, r22
    1920:	71 83       	std	Z+1, r23	; 0x01
    1922:	82 83       	std	Z+2, r24	; 0x02
    1924:	93 83       	std	Z+3, r25	; 0x03
    1926:	0f 5f       	subi	r16, 0xFF	; 255
    1928:	1f 4f       	sbci	r17, 0xFF	; 255
    192a:	f4 e0       	ldi	r31, 0x04	; 4
    192c:	ef 0e       	add	r14, r31
    192e:	f1 1c       	adc	r15, r1
    1930:	03 30       	cpi	r16, 0x03	; 3
    1932:	11 05       	cpc	r17, r1
    1934:	f9 f6       	brne	.-66     	; 0x18f4 <gc_execute_line+0x6ca>
    1936:	d2 cf       	rjmp	.-92     	; 0x18dc <gc_execute_line+0x6b2>
    1938:	80 91 8d 05 	lds	r24, 0x058D
    193c:	81 30       	cpi	r24, 0x01	; 1
    193e:	19 f4       	brne	.+6      	; 0x1946 <gc_execute_line+0x71c>
    1940:	24 e0       	ldi	r18, 0x04	; 4
    1942:	52 12       	cpse	r5, r18
    1944:	79 c6       	rjmp	.+3314   	; 0x2638 <gc_execute_line+0x140e>
    1946:	8c e0       	ldi	r24, 0x0C	; 12
    1948:	eb e6       	ldi	r30, 0x6B	; 107
    194a:	f5 e0       	ldi	r31, 0x05	; 5
    194c:	de 01       	movw	r26, r28
    194e:	1d 96       	adiw	r26, 0x0d	; 13
    1950:	01 90       	ld	r0, Z+
    1952:	0d 92       	st	X+, r0
    1954:	8a 95       	dec	r24
    1956:	e1 f7       	brne	.-8      	; 0x1950 <gc_execute_line+0x726>
    1958:	b1 fc       	sbrc	r11, 1
    195a:	09 c0       	rjmp	.+18     	; 0x196e <gc_execute_line+0x744>
    195c:	30 91 87 05 	lds	r19, 0x0587
    1960:	3f 8f       	std	Y+31, r19	; 0x1f
    1962:	32 30       	cpi	r19, 0x02	; 2
    1964:	b9 f0       	breq	.+46     	; 0x1994 <gc_execute_line+0x76a>
    1966:	38 30       	cpi	r19, 0x08	; 8
    1968:	09 f4       	brne	.+2      	; 0x196c <gc_execute_line+0x742>
    196a:	b0 c0       	rjmp	.+352    	; 0x1acc <gc_execute_line+0x8a2>
    196c:	15 c1       	rjmp	.+554    	; 0x1b98 <gc_execute_line+0x96e>
    196e:	80 91 8e 05 	lds	r24, 0x058E
    1972:	87 30       	cpi	r24, 0x07	; 7
    1974:	10 f0       	brcs	.+4      	; 0x197a <gc_execute_line+0x750>
    1976:	8d e1       	ldi	r24, 0x1D	; 29
    1978:	74 c6       	rjmp	.+3304   	; 0x2662 <gc_execute_line+0x1438>
    197a:	90 91 4e 05 	lds	r25, 0x054E
    197e:	98 17       	cp	r25, r24
    1980:	69 f3       	breq	.-38     	; 0x195c <gc_execute_line+0x732>
    1982:	be 01       	movw	r22, r28
    1984:	63 5f       	subi	r22, 0xF3	; 243
    1986:	7f 4f       	sbci	r23, 0xFF	; 255
    1988:	0e 94 15 22 	call	0x442a	; 0x442a <settings_read_coord_data>
    198c:	88 23       	and	r24, r24
    198e:	09 f4       	brne	.+2      	; 0x1992 <gc_execute_line+0x768>
    1990:	65 c6       	rjmp	.+3274   	; 0x265c <gc_execute_line+0x1432>
    1992:	e4 cf       	rjmp	.-56     	; 0x195c <gc_execute_line+0x732>
    1994:	51 10       	cpse	r5, r1
    1996:	02 c0       	rjmp	.+4      	; 0x199c <gc_execute_line+0x772>
    1998:	8a e1       	ldi	r24, 0x1A	; 26
    199a:	63 c6       	rjmp	.+3270   	; 0x2662 <gc_execute_line+0x1438>
    199c:	c1 01       	movw	r24, r2
    199e:	80 75       	andi	r24, 0x50	; 80
    19a0:	99 27       	eor	r25, r25
    19a2:	89 2b       	or	r24, r25
    19a4:	09 f4       	brne	.+2      	; 0x19a8 <gc_execute_line+0x77e>
    19a6:	7b cf       	rjmp	.-266    	; 0x189e <gc_execute_line+0x674>
    19a8:	60 91 a7 05 	lds	r22, 0x05A7
    19ac:	70 91 a8 05 	lds	r23, 0x05A8
    19b0:	80 91 a9 05 	lds	r24, 0x05A9
    19b4:	90 91 aa 05 	lds	r25, 0x05AA
    19b8:	0e 94 eb 37 	call	0x6fd6	; 0x6fd6 <trunc>
    19bc:	0e 94 53 35 	call	0x6aa6	; 0x6aa6 <__fixunssfsi>
    19c0:	67 30       	cpi	r22, 0x07	; 7
    19c2:	c8 f6       	brcc	.-78     	; 0x1976 <gc_execute_line+0x74c>
    19c4:	80 91 a2 05 	lds	r24, 0x05A2
    19c8:	84 31       	cpi	r24, 0x14	; 20
    19ca:	29 f0       	breq	.+10     	; 0x19d6 <gc_execute_line+0x7ac>
    19cc:	82 30       	cpi	r24, 0x02	; 2
    19ce:	09 f0       	breq	.+2      	; 0x19d2 <gc_execute_line+0x7a8>
    19d0:	35 c6       	rjmp	.+3178   	; 0x263c <gc_execute_line+0x1412>
    19d2:	27 fc       	sbrc	r2, 7
    19d4:	33 c6       	rjmp	.+3174   	; 0x263c <gc_execute_line+0x1412>
    19d6:	8f ea       	ldi	r24, 0xAF	; 175
    19d8:	28 22       	and	r2, r24
    19da:	66 23       	and	r22, r22
    19dc:	19 f0       	breq	.+6      	; 0x19e4 <gc_execute_line+0x7ba>
    19de:	61 50       	subi	r22, 0x01	; 1
    19e0:	6f 8f       	std	Y+31, r22	; 0x1f
    19e2:	03 c0       	rjmp	.+6      	; 0x19ea <gc_execute_line+0x7c0>
    19e4:	90 91 8e 05 	lds	r25, 0x058E
    19e8:	9f 8f       	std	Y+31, r25	; 0x1f
    19ea:	be 01       	movw	r22, r28
    19ec:	6f 5f       	subi	r22, 0xFF	; 255
    19ee:	7f 4f       	sbci	r23, 0xFF	; 255
    19f0:	8f 8d       	ldd	r24, Y+31	; 0x1f
    19f2:	0e 94 15 22 	call	0x442a	; 0x442a <settings_read_coord_data>
    19f6:	88 23       	and	r24, r24
    19f8:	09 f4       	brne	.+2      	; 0x19fc <gc_execute_line+0x7d2>
    19fa:	30 c6       	rjmp	.+3168   	; 0x265c <gc_execute_line+0x1432>
    19fc:	40 90 a2 05 	lds	r4, 0x05A2
    1a00:	60 90 83 05 	lds	r6, 0x0583
    1a04:	70 90 84 05 	lds	r7, 0x0584
    1a08:	80 90 85 05 	lds	r8, 0x0585
    1a0c:	90 90 86 05 	lds	r9, 0x0586
    1a10:	de 01       	movw	r26, r28
    1a12:	11 96       	adiw	r26, 0x01	; 1
    1a14:	7d 01       	movw	r14, r26
    1a16:	f4 eb       	ldi	r31, 0xB4	; 180
    1a18:	cf 2e       	mov	r12, r31
    1a1a:	f5 e0       	ldi	r31, 0x05	; 5
    1a1c:	df 2e       	mov	r13, r31
    1a1e:	af e5       	ldi	r26, 0x5F	; 95
    1a20:	aa 2e       	mov	r10, r26
    1a22:	a5 e0       	ldi	r26, 0x05	; 5
    1a24:	ba 2e       	mov	r11, r26
    1a26:	00 e0       	ldi	r16, 0x00	; 0
    1a28:	10 e0       	ldi	r17, 0x00	; 0
    1a2a:	e5 2d       	mov	r30, r5
    1a2c:	f0 e0       	ldi	r31, 0x00	; 0
    1a2e:	fe a3       	std	Y+38, r31	; 0x26
    1a30:	ed a3       	std	Y+37, r30	; 0x25
    1a32:	8d a1       	ldd	r24, Y+37	; 0x25
    1a34:	9e a1       	ldd	r25, Y+38	; 0x26
    1a36:	00 2e       	mov	r0, r16
    1a38:	02 c0       	rjmp	.+4      	; 0x1a3e <gc_execute_line+0x814>
    1a3a:	95 95       	asr	r25
    1a3c:	87 95       	ror	r24
    1a3e:	0a 94       	dec	r0
    1a40:	e2 f7       	brpl	.-8      	; 0x1a3a <gc_execute_line+0x810>
    1a42:	80 ff       	sbrs	r24, 0
    1a44:	33 c0       	rjmp	.+102    	; 0x1aac <gc_execute_line+0x882>
    1a46:	f4 e1       	ldi	r31, 0x14	; 20
    1a48:	4f 12       	cpse	r4, r31
    1a4a:	26 c0       	rjmp	.+76     	; 0x1a98 <gc_execute_line+0x86e>
    1a4c:	d5 01       	movw	r26, r10
    1a4e:	58 96       	adiw	r26, 0x18	; 24
    1a50:	2d 91       	ld	r18, X+
    1a52:	3d 91       	ld	r19, X+
    1a54:	4d 91       	ld	r20, X+
    1a56:	5c 91       	ld	r21, X
    1a58:	5b 97       	sbiw	r26, 0x1b	; 27
    1a5a:	6d 91       	ld	r22, X+
    1a5c:	7d 91       	ld	r23, X+
    1a5e:	8d 91       	ld	r24, X+
    1a60:	9c 91       	ld	r25, X
    1a62:	0e 94 05 34 	call	0x680a	; 0x680a <__subsf3>
    1a66:	f6 01       	movw	r30, r12
    1a68:	20 81       	ld	r18, Z
    1a6a:	31 81       	ldd	r19, Z+1	; 0x01
    1a6c:	42 81       	ldd	r20, Z+2	; 0x02
    1a6e:	53 81       	ldd	r21, Z+3	; 0x03
    1a70:	0e 94 05 34 	call	0x680a	; 0x680a <__subsf3>
    1a74:	d7 01       	movw	r26, r14
    1a76:	6d 93       	st	X+, r22
    1a78:	7d 93       	st	X+, r23
    1a7a:	8d 93       	st	X+, r24
    1a7c:	9c 93       	st	X, r25
    1a7e:	13 97       	sbiw	r26, 0x03	; 3
    1a80:	02 30       	cpi	r16, 0x02	; 2
    1a82:	a1 f4       	brne	.+40     	; 0x1aac <gc_execute_line+0x882>
    1a84:	a4 01       	movw	r20, r8
    1a86:	93 01       	movw	r18, r6
    1a88:	0e 94 05 34 	call	0x680a	; 0x680a <__subsf3>
    1a8c:	f7 01       	movw	r30, r14
    1a8e:	60 83       	st	Z, r22
    1a90:	71 83       	std	Z+1, r23	; 0x01
    1a92:	82 83       	std	Z+2, r24	; 0x02
    1a94:	93 83       	std	Z+3, r25	; 0x03
    1a96:	0a c0       	rjmp	.+20     	; 0x1aac <gc_execute_line+0x882>
    1a98:	f6 01       	movw	r30, r12
    1a9a:	80 81       	ld	r24, Z
    1a9c:	91 81       	ldd	r25, Z+1	; 0x01
    1a9e:	a2 81       	ldd	r26, Z+2	; 0x02
    1aa0:	b3 81       	ldd	r27, Z+3	; 0x03
    1aa2:	f7 01       	movw	r30, r14
    1aa4:	80 83       	st	Z, r24
    1aa6:	91 83       	std	Z+1, r25	; 0x01
    1aa8:	a2 83       	std	Z+2, r26	; 0x02
    1aaa:	b3 83       	std	Z+3, r27	; 0x03
    1aac:	0f 5f       	subi	r16, 0xFF	; 255
    1aae:	1f 4f       	sbci	r17, 0xFF	; 255
    1ab0:	f4 e0       	ldi	r31, 0x04	; 4
    1ab2:	ef 0e       	add	r14, r31
    1ab4:	f1 1c       	adc	r15, r1
    1ab6:	24 e0       	ldi	r18, 0x04	; 4
    1ab8:	c2 0e       	add	r12, r18
    1aba:	d1 1c       	adc	r13, r1
    1abc:	34 e0       	ldi	r19, 0x04	; 4
    1abe:	a3 0e       	add	r10, r19
    1ac0:	b1 1c       	adc	r11, r1
    1ac2:	03 30       	cpi	r16, 0x03	; 3
    1ac4:	11 05       	cpc	r17, r1
    1ac6:	09 f0       	breq	.+2      	; 0x1aca <gc_execute_line+0x8a0>
    1ac8:	b4 cf       	rjmp	.-152    	; 0x1a32 <gc_execute_line+0x808>
    1aca:	0f c1       	rjmp	.+542    	; 0x1cea <gc_execute_line+0xac0>
    1acc:	55 20       	and	r5, r5
    1ace:	09 f4       	brne	.+2      	; 0x1ad2 <gc_execute_line+0x8a8>
    1ad0:	63 cf       	rjmp	.-314    	; 0x1998 <gc_execute_line+0x76e>
    1ad2:	60 90 83 05 	lds	r6, 0x0583
    1ad6:	70 90 84 05 	lds	r7, 0x0584
    1ada:	80 90 85 05 	lds	r8, 0x0585
    1ade:	90 90 86 05 	lds	r9, 0x0586
    1ae2:	04 eb       	ldi	r16, 0xB4	; 180
    1ae4:	15 e0       	ldi	r17, 0x05	; 5
    1ae6:	ef e5       	ldi	r30, 0x5F	; 95
    1ae8:	ce 2e       	mov	r12, r30
    1aea:	e5 e0       	ldi	r30, 0x05	; 5
    1aec:	de 2e       	mov	r13, r30
    1aee:	5e 01       	movw	r10, r28
    1af0:	8d e0       	ldi	r24, 0x0D	; 13
    1af2:	a8 0e       	add	r10, r24
    1af4:	b1 1c       	adc	r11, r1
    1af6:	e1 2c       	mov	r14, r1
    1af8:	f1 2c       	mov	r15, r1
    1afa:	a5 2d       	mov	r26, r5
    1afc:	b0 e0       	ldi	r27, 0x00	; 0
    1afe:	b8 a3       	std	Y+32, r27	; 0x20
    1b00:	af 8f       	std	Y+31, r26	; 0x1f
    1b02:	8f 8d       	ldd	r24, Y+31	; 0x1f
    1b04:	98 a1       	ldd	r25, Y+32	; 0x20
    1b06:	0e 2c       	mov	r0, r14
    1b08:	02 c0       	rjmp	.+4      	; 0x1b0e <gc_execute_line+0x8e4>
    1b0a:	95 95       	asr	r25
    1b0c:	87 95       	ror	r24
    1b0e:	0a 94       	dec	r0
    1b10:	e2 f7       	brpl	.-8      	; 0x1b0a <gc_execute_line+0x8e0>
    1b12:	80 ff       	sbrs	r24, 0
    1b14:	26 c0       	rjmp	.+76     	; 0x1b62 <gc_execute_line+0x938>
    1b16:	f5 01       	movw	r30, r10
    1b18:	20 81       	ld	r18, Z
    1b1a:	31 81       	ldd	r19, Z+1	; 0x01
    1b1c:	42 81       	ldd	r20, Z+2	; 0x02
    1b1e:	53 81       	ldd	r21, Z+3	; 0x03
    1b20:	d6 01       	movw	r26, r12
    1b22:	6d 91       	ld	r22, X+
    1b24:	7d 91       	ld	r23, X+
    1b26:	8d 91       	ld	r24, X+
    1b28:	9c 91       	ld	r25, X
    1b2a:	0e 94 05 34 	call	0x680a	; 0x680a <__subsf3>
    1b2e:	f8 01       	movw	r30, r16
    1b30:	20 81       	ld	r18, Z
    1b32:	31 81       	ldd	r19, Z+1	; 0x01
    1b34:	42 81       	ldd	r20, Z+2	; 0x02
    1b36:	53 81       	ldd	r21, Z+3	; 0x03
    1b38:	0e 94 05 34 	call	0x680a	; 0x680a <__subsf3>
    1b3c:	d8 01       	movw	r26, r16
    1b3e:	6d 93       	st	X+, r22
    1b40:	7d 93       	st	X+, r23
    1b42:	8d 93       	st	X+, r24
    1b44:	9c 93       	st	X, r25
    1b46:	13 97       	sbiw	r26, 0x03	; 3
    1b48:	b2 e0       	ldi	r27, 0x02	; 2
    1b4a:	eb 12       	cpse	r14, r27
    1b4c:	14 c0       	rjmp	.+40     	; 0x1b76 <gc_execute_line+0x94c>
    1b4e:	a4 01       	movw	r20, r8
    1b50:	93 01       	movw	r18, r6
    1b52:	0e 94 05 34 	call	0x680a	; 0x680a <__subsf3>
    1b56:	f8 01       	movw	r30, r16
    1b58:	60 83       	st	Z, r22
    1b5a:	71 83       	std	Z+1, r23	; 0x01
    1b5c:	82 83       	std	Z+2, r24	; 0x02
    1b5e:	93 83       	std	Z+3, r25	; 0x03
    1b60:	0a c0       	rjmp	.+20     	; 0x1b76 <gc_execute_line+0x94c>
    1b62:	f6 01       	movw	r30, r12
    1b64:	80 8d       	ldd	r24, Z+24	; 0x18
    1b66:	91 8d       	ldd	r25, Z+25	; 0x19
    1b68:	a2 8d       	ldd	r26, Z+26	; 0x1a
    1b6a:	b3 8d       	ldd	r27, Z+27	; 0x1b
    1b6c:	f8 01       	movw	r30, r16
    1b6e:	80 83       	st	Z, r24
    1b70:	91 83       	std	Z+1, r25	; 0x01
    1b72:	a2 83       	std	Z+2, r26	; 0x02
    1b74:	b3 83       	std	Z+3, r27	; 0x03
    1b76:	ff ef       	ldi	r31, 0xFF	; 255
    1b78:	ef 1a       	sub	r14, r31
    1b7a:	ff 0a       	sbc	r15, r31
    1b7c:	0c 5f       	subi	r16, 0xFC	; 252
    1b7e:	1f 4f       	sbci	r17, 0xFF	; 255
    1b80:	24 e0       	ldi	r18, 0x04	; 4
    1b82:	c2 0e       	add	r12, r18
    1b84:	d1 1c       	adc	r13, r1
    1b86:	34 e0       	ldi	r19, 0x04	; 4
    1b88:	a3 0e       	add	r10, r19
    1b8a:	b1 1c       	adc	r11, r1
    1b8c:	83 e0       	ldi	r24, 0x03	; 3
    1b8e:	e8 16       	cp	r14, r24
    1b90:	f1 04       	cpc	r15, r1
    1b92:	09 f0       	breq	.+2      	; 0x1b96 <gc_execute_line+0x96c>
    1b94:	b6 cf       	rjmp	.-148    	; 0x1b02 <gc_execute_line+0x8d8>
    1b96:	a8 c0       	rjmp	.+336    	; 0x1ce8 <gc_execute_line+0xabe>
    1b98:	9e 8d       	ldd	r25, Y+30	; 0x1e
    1b9a:	93 30       	cpi	r25, 0x03	; 3
    1b9c:	59 f4       	brne	.+22     	; 0x1bb4 <gc_execute_line+0x98a>
    1b9e:	af 8d       	ldd	r26, Y+31	; 0x1f
    1ba0:	a5 30       	cpi	r26, 0x05	; 5
    1ba2:	09 f4       	brne	.+2      	; 0x1ba6 <gc_execute_line+0x97c>
    1ba4:	8f c0       	rjmp	.+286    	; 0x1cc4 <gc_execute_line+0xa9a>
    1ba6:	a7 30       	cpi	r26, 0x07	; 7
    1ba8:	09 f4       	brne	.+2      	; 0x1bac <gc_execute_line+0x982>
    1baa:	99 c0       	rjmp	.+306    	; 0x1cde <gc_execute_line+0xab4>
    1bac:	a3 30       	cpi	r26, 0x03	; 3
    1bae:	09 f0       	breq	.+2      	; 0x1bb2 <gc_execute_line+0x988>
    1bb0:	9b c0       	rjmp	.+310    	; 0x1ce8 <gc_execute_line+0xabe>
    1bb2:	80 c0       	rjmp	.+256    	; 0x1cb4 <gc_execute_line+0xa8a>
    1bb4:	55 20       	and	r5, r5
    1bb6:	99 f3       	breq	.-26     	; 0x1b9e <gc_execute_line+0x974>
    1bb8:	40 90 8b 05 	lds	r4, 0x058B
    1bbc:	80 90 83 05 	lds	r8, 0x0583
    1bc0:	90 90 84 05 	lds	r9, 0x0584
    1bc4:	a0 90 85 05 	lds	r10, 0x0585
    1bc8:	b0 90 86 05 	lds	r11, 0x0586
    1bcc:	7f e5       	ldi	r23, 0x5F	; 95
    1bce:	c7 2e       	mov	r12, r23
    1bd0:	75 e0       	ldi	r23, 0x05	; 5
    1bd2:	d7 2e       	mov	r13, r23
    1bd4:	04 eb       	ldi	r16, 0xB4	; 180
    1bd6:	15 e0       	ldi	r17, 0x05	; 5
    1bd8:	3e 01       	movw	r6, r28
    1bda:	bd e0       	ldi	r27, 0x0D	; 13
    1bdc:	6b 0e       	add	r6, r27
    1bde:	71 1c       	adc	r7, r1
    1be0:	e1 2c       	mov	r14, r1
    1be2:	f1 2c       	mov	r15, r1
    1be4:	e5 2d       	mov	r30, r5
    1be6:	f0 e0       	ldi	r31, 0x00	; 0
    1be8:	fe a3       	std	Y+38, r31	; 0x26
    1bea:	ed a3       	std	Y+37, r30	; 0x25
    1bec:	8d a1       	ldd	r24, Y+37	; 0x25
    1bee:	9e a1       	ldd	r25, Y+38	; 0x26
    1bf0:	0e 2c       	mov	r0, r14
    1bf2:	02 c0       	rjmp	.+4      	; 0x1bf8 <gc_execute_line+0x9ce>
    1bf4:	95 95       	asr	r25
    1bf6:	87 95       	ror	r24
    1bf8:	0a 94       	dec	r0
    1bfa:	e2 f7       	brpl	.-8      	; 0x1bf4 <gc_execute_line+0x9ca>
    1bfc:	80 fd       	sbrc	r24, 0
    1bfe:	0b c0       	rjmp	.+22     	; 0x1c16 <gc_execute_line+0x9ec>
    1c00:	f6 01       	movw	r30, r12
    1c02:	80 81       	ld	r24, Z
    1c04:	91 81       	ldd	r25, Z+1	; 0x01
    1c06:	a2 81       	ldd	r26, Z+2	; 0x02
    1c08:	b3 81       	ldd	r27, Z+3	; 0x03
    1c0a:	f8 01       	movw	r30, r16
    1c0c:	80 83       	st	Z, r24
    1c0e:	91 83       	std	Z+1, r25	; 0x01
    1c10:	a2 83       	std	Z+2, r26	; 0x02
    1c12:	b3 83       	std	Z+3, r27	; 0x03
    1c14:	3e c0       	rjmp	.+124    	; 0x1c92 <gc_execute_line+0xa68>
    1c16:	ff 8d       	ldd	r31, Y+31	; 0x1f
    1c18:	f7 30       	cpi	r31, 0x07	; 7
    1c1a:	d9 f1       	breq	.+118    	; 0x1c92 <gc_execute_line+0xa68>
    1c1c:	41 10       	cpse	r4, r1
    1c1e:	28 c0       	rjmp	.+80     	; 0x1c70 <gc_execute_line+0xa46>
    1c20:	d6 01       	movw	r26, r12
    1c22:	58 96       	adiw	r26, 0x18	; 24
    1c24:	2d 91       	ld	r18, X+
    1c26:	3d 91       	ld	r19, X+
    1c28:	4d 91       	ld	r20, X+
    1c2a:	5c 91       	ld	r21, X
    1c2c:	5b 97       	sbiw	r26, 0x1b	; 27
    1c2e:	f3 01       	movw	r30, r6
    1c30:	60 81       	ld	r22, Z
    1c32:	71 81       	ldd	r23, Z+1	; 0x01
    1c34:	82 81       	ldd	r24, Z+2	; 0x02
    1c36:	93 81       	ldd	r25, Z+3	; 0x03
    1c38:	0e 94 06 34 	call	0x680c	; 0x680c <__addsf3>
    1c3c:	d8 01       	movw	r26, r16
    1c3e:	2d 91       	ld	r18, X+
    1c40:	3d 91       	ld	r19, X+
    1c42:	4d 91       	ld	r20, X+
    1c44:	5c 91       	ld	r21, X
    1c46:	0e 94 06 34 	call	0x680c	; 0x680c <__addsf3>
    1c4a:	f8 01       	movw	r30, r16
    1c4c:	60 83       	st	Z, r22
    1c4e:	71 83       	std	Z+1, r23	; 0x01
    1c50:	82 83       	std	Z+2, r24	; 0x02
    1c52:	93 83       	std	Z+3, r25	; 0x03
    1c54:	f2 e0       	ldi	r31, 0x02	; 2
    1c56:	ef 12       	cpse	r14, r31
    1c58:	1c c0       	rjmp	.+56     	; 0x1c92 <gc_execute_line+0xa68>
    1c5a:	a5 01       	movw	r20, r10
    1c5c:	94 01       	movw	r18, r8
    1c5e:	0e 94 06 34 	call	0x680c	; 0x680c <__addsf3>
    1c62:	d8 01       	movw	r26, r16
    1c64:	6d 93       	st	X+, r22
    1c66:	7d 93       	st	X+, r23
    1c68:	8d 93       	st	X+, r24
    1c6a:	9c 93       	st	X, r25
    1c6c:	13 97       	sbiw	r26, 0x03	; 3
    1c6e:	11 c0       	rjmp	.+34     	; 0x1c92 <gc_execute_line+0xa68>
    1c70:	f6 01       	movw	r30, r12
    1c72:	20 81       	ld	r18, Z
    1c74:	31 81       	ldd	r19, Z+1	; 0x01
    1c76:	42 81       	ldd	r20, Z+2	; 0x02
    1c78:	53 81       	ldd	r21, Z+3	; 0x03
    1c7a:	d8 01       	movw	r26, r16
    1c7c:	6d 91       	ld	r22, X+
    1c7e:	7d 91       	ld	r23, X+
    1c80:	8d 91       	ld	r24, X+
    1c82:	9c 91       	ld	r25, X
    1c84:	0e 94 06 34 	call	0x680c	; 0x680c <__addsf3>
    1c88:	f8 01       	movw	r30, r16
    1c8a:	60 83       	st	Z, r22
    1c8c:	71 83       	std	Z+1, r23	; 0x01
    1c8e:	82 83       	std	Z+2, r24	; 0x02
    1c90:	93 83       	std	Z+3, r25	; 0x03
    1c92:	ff ef       	ldi	r31, 0xFF	; 255
    1c94:	ef 1a       	sub	r14, r31
    1c96:	ff 0a       	sbc	r15, r31
    1c98:	24 e0       	ldi	r18, 0x04	; 4
    1c9a:	c2 0e       	add	r12, r18
    1c9c:	d1 1c       	adc	r13, r1
    1c9e:	0c 5f       	subi	r16, 0xFC	; 252
    1ca0:	1f 4f       	sbci	r17, 0xFF	; 255
    1ca2:	34 e0       	ldi	r19, 0x04	; 4
    1ca4:	63 0e       	add	r6, r19
    1ca6:	71 1c       	adc	r7, r1
    1ca8:	83 e0       	ldi	r24, 0x03	; 3
    1caa:	e8 16       	cp	r14, r24
    1cac:	f1 04       	cpc	r15, r1
    1cae:	09 f0       	breq	.+2      	; 0x1cb2 <gc_execute_line+0xa88>
    1cb0:	9d cf       	rjmp	.-198    	; 0x1bec <gc_execute_line+0x9c2>
    1cb2:	75 cf       	rjmp	.-278    	; 0x1b9e <gc_execute_line+0x974>
    1cb4:	51 10       	cpse	r5, r1
    1cb6:	01 c0       	rjmp	.+2      	; 0x1cba <gc_execute_line+0xa90>
    1cb8:	1e 8e       	std	Y+30, r1	; 0x1e
    1cba:	be 01       	movw	r22, r28
    1cbc:	6f 5f       	subi	r22, 0xFF	; 255
    1cbe:	7f 4f       	sbci	r23, 0xFF	; 255
    1cc0:	86 e0       	ldi	r24, 0x06	; 6
    1cc2:	07 c0       	rjmp	.+14     	; 0x1cd2 <gc_execute_line+0xaa8>
    1cc4:	51 10       	cpse	r5, r1
    1cc6:	01 c0       	rjmp	.+2      	; 0x1cca <gc_execute_line+0xaa0>
    1cc8:	1e 8e       	std	Y+30, r1	; 0x1e
    1cca:	be 01       	movw	r22, r28
    1ccc:	6f 5f       	subi	r22, 0xFF	; 255
    1cce:	7f 4f       	sbci	r23, 0xFF	; 255
    1cd0:	87 e0       	ldi	r24, 0x07	; 7
    1cd2:	0e 94 15 22 	call	0x442a	; 0x442a <settings_read_coord_data>
    1cd6:	88 23       	and	r24, r24
    1cd8:	09 f4       	brne	.+2      	; 0x1cdc <gc_execute_line+0xab2>
    1cda:	c0 c4       	rjmp	.+2432   	; 0x265c <gc_execute_line+0x1432>
    1cdc:	05 c0       	rjmp	.+10     	; 0x1ce8 <gc_execute_line+0xabe>
    1cde:	80 91 88 05 	lds	r24, 0x0588
    1ce2:	82 30       	cpi	r24, 0x02	; 2
    1ce4:	08 f0       	brcs	.+2      	; 0x1ce8 <gc_execute_line+0xabe>
    1ce6:	ac c4       	rjmp	.+2392   	; 0x2640 <gc_execute_line+0x1416>
    1ce8:	1f 8e       	std	Y+31, r1	; 0x1f
    1cea:	10 91 88 05 	lds	r17, 0x0588
    1cee:	18 30       	cpi	r17, 0x08	; 8
    1cf0:	41 f4       	brne	.+16     	; 0x1d02 <gc_execute_line+0xad8>
    1cf2:	55 20       	and	r5, r5
    1cf4:	09 f4       	brne	.+2      	; 0x1cf8 <gc_execute_line+0xace>
    1cf6:	b3 c1       	rjmp	.+870    	; 0x205e <gc_execute_line+0xe34>
    1cf8:	9e 8d       	ldd	r25, Y+30	; 0x1e
    1cfa:	91 30       	cpi	r25, 0x01	; 1
    1cfc:	09 f0       	breq	.+2      	; 0x1d00 <gc_execute_line+0xad6>
    1cfe:	a2 c4       	rjmp	.+2372   	; 0x2644 <gc_execute_line+0x141a>
    1d00:	8b c2       	rjmp	.+1302   	; 0x2218 <gc_execute_line+0xfee>
    1d02:	ae 8d       	ldd	r26, Y+30	; 0x1e
    1d04:	a2 30       	cpi	r26, 0x02	; 2
    1d06:	09 f0       	breq	.+2      	; 0x1d0a <gc_execute_line+0xae0>
    1d08:	aa c1       	rjmp	.+852    	; 0x205e <gc_execute_line+0xe34>
    1d0a:	11 23       	and	r17, r17
    1d0c:	d9 f0       	breq	.+54     	; 0x1d44 <gc_execute_line+0xb1a>
    1d0e:	20 e0       	ldi	r18, 0x00	; 0
    1d10:	30 e0       	ldi	r19, 0x00	; 0
    1d12:	a9 01       	movw	r20, r18
    1d14:	60 91 92 05 	lds	r22, 0x0592
    1d18:	70 91 93 05 	lds	r23, 0x0593
    1d1c:	80 91 94 05 	lds	r24, 0x0594
    1d20:	90 91 95 05 	lds	r25, 0x0595
    1d24:	0e 94 df 34 	call	0x69be	; 0x69be <__cmpsf2>
    1d28:	88 23       	and	r24, r24
    1d2a:	09 f4       	brne	.+2      	; 0x1d2e <gc_execute_line+0xb04>
    1d2c:	8d c4       	rjmp	.+2330   	; 0x2648 <gc_execute_line+0x141e>
    1d2e:	14 30       	cpi	r17, 0x04	; 4
    1d30:	28 f4       	brcc	.+10     	; 0x1d3c <gc_execute_line+0xb12>
    1d32:	12 30       	cpi	r17, 0x02	; 2
    1d34:	58 f4       	brcc	.+22     	; 0x1d4c <gc_execute_line+0xb22>
    1d36:	11 30       	cpi	r17, 0x01	; 1
    1d38:	29 f0       	breq	.+10     	; 0x1d44 <gc_execute_line+0xb1a>
    1d3a:	6e c2       	rjmp	.+1244   	; 0x2218 <gc_execute_line+0xfee>
    1d3c:	18 30       	cpi	r17, 0x08	; 8
    1d3e:	08 f4       	brcc	.+2      	; 0x1d42 <gc_execute_line+0xb18>
    1d40:	4d c1       	rjmp	.+666    	; 0x1fdc <gc_execute_line+0xdb2>
    1d42:	6a c2       	rjmp	.+1236   	; 0x2218 <gc_execute_line+0xfee>
    1d44:	51 10       	cpse	r5, r1
    1d46:	68 c2       	rjmp	.+1232   	; 0x2218 <gc_execute_line+0xfee>
    1d48:	1e 8e       	std	Y+30, r1	; 0x1e
    1d4a:	8c c1       	rjmp	.+792    	; 0x2064 <gc_execute_line+0xe3a>
    1d4c:	55 20       	and	r5, r5
    1d4e:	09 f4       	brne	.+2      	; 0x1d52 <gc_execute_line+0xb28>
    1d50:	23 ce       	rjmp	.-954    	; 0x1998 <gc_execute_line+0x76e>
    1d52:	ff a1       	ldd	r31, Y+39	; 0x27
    1d54:	ef 2f       	mov	r30, r31
    1d56:	f0 e0       	ldi	r31, 0x00	; 0
    1d58:	fe a3       	std	Y+38, r31	; 0x26
    1d5a:	ed a3       	std	Y+37, r30	; 0x25
    1d5c:	38 a5       	ldd	r19, Y+40	; 0x28
    1d5e:	23 2f       	mov	r18, r19
    1d60:	30 e0       	ldi	r19, 0x00	; 0
    1d62:	3b a7       	std	Y+43, r19	; 0x2b
    1d64:	2a a7       	std	Y+42, r18	; 0x2a
    1d66:	81 e0       	ldi	r24, 0x01	; 1
    1d68:	90 e0       	ldi	r25, 0x00	; 0
    1d6a:	3c 01       	movw	r6, r24
    1d6c:	08 a4       	ldd	r0, Y+40	; 0x28
    1d6e:	02 c0       	rjmp	.+4      	; 0x1d74 <gc_execute_line+0xb4a>
    1d70:	66 0c       	add	r6, r6
    1d72:	77 1c       	adc	r7, r7
    1d74:	0a 94       	dec	r0
    1d76:	e2 f7       	brpl	.-8      	; 0x1d70 <gc_execute_line+0xb46>
    1d78:	0f a0       	ldd	r0, Y+39	; 0x27
    1d7a:	02 c0       	rjmp	.+4      	; 0x1d80 <gc_execute_line+0xb56>
    1d7c:	88 0f       	add	r24, r24
    1d7e:	99 1f       	adc	r25, r25
    1d80:	0a 94       	dec	r0
    1d82:	e2 f7       	brpl	.-8      	; 0x1d7c <gc_execute_line+0xb52>
    1d84:	68 2a       	or	r6, r24
    1d86:	79 2a       	or	r7, r25
    1d88:	85 2d       	mov	r24, r5
    1d8a:	90 e0       	ldi	r25, 0x00	; 0
    1d8c:	86 21       	and	r24, r6
    1d8e:	97 21       	and	r25, r7
    1d90:	89 2b       	or	r24, r25
    1d92:	09 f4       	brne	.+2      	; 0x1d96 <gc_execute_line+0xb6c>
    1d94:	5b c4       	rjmp	.+2230   	; 0x264c <gc_execute_line+0x1422>
    1d96:	cf 01       	movw	r24, r30
    1d98:	88 0f       	add	r24, r24
    1d9a:	99 1f       	adc	r25, r25
    1d9c:	88 0f       	add	r24, r24
    1d9e:	99 1f       	adc	r25, r25
    1da0:	fc 01       	movw	r30, r24
    1da2:	e9 57       	subi	r30, 0x79	; 121
    1da4:	fa 4f       	sbci	r31, 0xFA	; 250
    1da6:	dc 01       	movw	r26, r24
    1da8:	a8 5b       	subi	r26, 0xB8	; 184
    1daa:	ba 4f       	sbci	r27, 0xFA	; 250
    1dac:	57 96       	adiw	r26, 0x17	; 23
    1dae:	2d 91       	ld	r18, X+
    1db0:	3d 91       	ld	r19, X+
    1db2:	4d 91       	ld	r20, X+
    1db4:	5c 91       	ld	r21, X
    1db6:	5a 97       	sbiw	r26, 0x1a	; 26
    1db8:	65 a5       	ldd	r22, Z+45	; 0x2d
    1dba:	76 a5       	ldd	r23, Z+46	; 0x2e
    1dbc:	87 a5       	ldd	r24, Z+47	; 0x2f
    1dbe:	90 a9       	ldd	r25, Z+48	; 0x30
    1dc0:	0e 94 05 34 	call	0x680a	; 0x680a <__subsf3>
    1dc4:	6b 01       	movw	r12, r22
    1dc6:	7c 01       	movw	r14, r24
    1dc8:	8a a5       	ldd	r24, Y+42	; 0x2a
    1dca:	9b a5       	ldd	r25, Y+43	; 0x2b
    1dcc:	88 0f       	add	r24, r24
    1dce:	99 1f       	adc	r25, r25
    1dd0:	88 0f       	add	r24, r24
    1dd2:	99 1f       	adc	r25, r25
    1dd4:	fc 01       	movw	r30, r24
    1dd6:	e9 57       	subi	r30, 0x79	; 121
    1dd8:	fa 4f       	sbci	r31, 0xFA	; 250
    1dda:	dc 01       	movw	r26, r24
    1ddc:	a8 5b       	subi	r26, 0xB8	; 184
    1dde:	ba 4f       	sbci	r27, 0xFA	; 250
    1de0:	57 96       	adiw	r26, 0x17	; 23
    1de2:	2d 91       	ld	r18, X+
    1de4:	3d 91       	ld	r19, X+
    1de6:	4d 91       	ld	r20, X+
    1de8:	5c 91       	ld	r21, X
    1dea:	5a 97       	sbiw	r26, 0x1a	; 26
    1dec:	65 a5       	ldd	r22, Z+45	; 0x2d
    1dee:	76 a5       	ldd	r23, Z+46	; 0x2e
    1df0:	87 a5       	ldd	r24, Z+47	; 0x2f
    1df2:	90 a9       	ldd	r25, Z+48	; 0x30
    1df4:	0e 94 05 34 	call	0x680a	; 0x680a <__subsf3>
    1df8:	4b 01       	movw	r8, r22
    1dfa:	5c 01       	movw	r10, r24
    1dfc:	27 fe       	sbrs	r2, 7
    1dfe:	40 c0       	rjmp	.+128    	; 0x1e80 <gc_execute_line+0xc56>
    1e00:	e8 94       	clt
    1e02:	27 f8       	bld	r2, 7
    1e04:	20 91 b4 05 	lds	r18, 0x05B4
    1e08:	30 91 b5 05 	lds	r19, 0x05B5
    1e0c:	40 91 b6 05 	lds	r20, 0x05B6
    1e10:	50 91 b7 05 	lds	r21, 0x05B7
    1e14:	60 91 5f 05 	lds	r22, 0x055F
    1e18:	70 91 60 05 	lds	r23, 0x0560
    1e1c:	80 91 61 05 	lds	r24, 0x0561
    1e20:	90 91 62 05 	lds	r25, 0x0562
    1e24:	0e 94 df 34 	call	0x69be	; 0x69be <__cmpsf2>
    1e28:	81 11       	cpse	r24, r1
    1e2a:	20 c1       	rjmp	.+576    	; 0x206c <gc_execute_line+0xe42>
    1e2c:	20 91 b8 05 	lds	r18, 0x05B8
    1e30:	30 91 b9 05 	lds	r19, 0x05B9
    1e34:	40 91 ba 05 	lds	r20, 0x05BA
    1e38:	50 91 bb 05 	lds	r21, 0x05BB
    1e3c:	60 91 63 05 	lds	r22, 0x0563
    1e40:	70 91 64 05 	lds	r23, 0x0564
    1e44:	80 91 65 05 	lds	r24, 0x0565
    1e48:	90 91 66 05 	lds	r25, 0x0566
    1e4c:	0e 94 df 34 	call	0x69be	; 0x69be <__cmpsf2>
    1e50:	81 11       	cpse	r24, r1
    1e52:	0c c1       	rjmp	.+536    	; 0x206c <gc_execute_line+0xe42>
    1e54:	20 91 bc 05 	lds	r18, 0x05BC
    1e58:	30 91 bd 05 	lds	r19, 0x05BD
    1e5c:	40 91 be 05 	lds	r20, 0x05BE
    1e60:	50 91 bf 05 	lds	r21, 0x05BF
    1e64:	60 91 67 05 	lds	r22, 0x0567
    1e68:	70 91 68 05 	lds	r23, 0x0568
    1e6c:	80 91 69 05 	lds	r24, 0x0569
    1e70:	90 91 6a 05 	lds	r25, 0x056A
    1e74:	0e 94 df 34 	call	0x69be	; 0x69be <__cmpsf2>
    1e78:	81 11       	cpse	r24, r1
    1e7a:	f8 c0       	rjmp	.+496    	; 0x206c <gc_execute_line+0xe42>
    1e7c:	81 e2       	ldi	r24, 0x21	; 33
    1e7e:	f1 c3       	rjmp	.+2018   	; 0x2662 <gc_execute_line+0x1438>
    1e80:	f9 a1       	ldd	r31, Y+33	; 0x21
    1e82:	4f 2e       	mov	r4, r31
    1e84:	51 2c       	mov	r5, r1
    1e86:	64 20       	and	r6, r4
    1e88:	75 20       	and	r7, r5
    1e8a:	67 28       	or	r6, r7
    1e8c:	09 f4       	brne	.+2      	; 0x1e90 <gc_execute_line+0xc66>
    1e8e:	e0 c3       	rjmp	.+1984   	; 0x2650 <gc_execute_line+0x1426>
    1e90:	21 ef       	ldi	r18, 0xF1	; 241
    1e92:	22 22       	and	r2, r18
    1e94:	80 91 8a 05 	lds	r24, 0x058A
    1e98:	81 30       	cpi	r24, 0x01	; 1
    1e9a:	09 f4       	brne	.+2      	; 0x1e9e <gc_execute_line+0xc74>
    1e9c:	5a c0       	rjmp	.+180    	; 0x1f52 <gc_execute_line+0xd28>
    1e9e:	0a a5       	ldd	r16, Y+42	; 0x2a
    1ea0:	1b a5       	ldd	r17, Y+43	; 0x2b
    1ea2:	00 0f       	add	r16, r16
    1ea4:	11 1f       	adc	r17, r17
    1ea6:	00 0f       	add	r16, r16
    1ea8:	11 1f       	adc	r17, r17
    1eaa:	05 57       	subi	r16, 0x75	; 117
    1eac:	1a 4f       	sbci	r17, 0xFA	; 250
    1eae:	d8 01       	movw	r26, r16
    1eb0:	1b 96       	adiw	r26, 0x0b	; 11
    1eb2:	2d 91       	ld	r18, X+
    1eb4:	3d 91       	ld	r19, X+
    1eb6:	4d 91       	ld	r20, X+
    1eb8:	5c 91       	ld	r21, X
    1eba:	1e 97       	sbiw	r26, 0x0e	; 14
    1ebc:	c5 01       	movw	r24, r10
    1ebe:	b4 01       	movw	r22, r8
    1ec0:	0e 94 05 34 	call	0x680a	; 0x680a <__subsf3>
    1ec4:	2b 01       	movw	r4, r22
    1ec6:	3c 01       	movw	r6, r24
    1ec8:	ad a0       	ldd	r10, Y+37	; 0x25
    1eca:	be a0       	ldd	r11, Y+38	; 0x26
    1ecc:	aa 0c       	add	r10, r10
    1ece:	bb 1c       	adc	r11, r11
    1ed0:	aa 0c       	add	r10, r10
    1ed2:	bb 1c       	adc	r11, r11
    1ed4:	f5 01       	movw	r30, r10
    1ed6:	e5 57       	subi	r30, 0x75	; 117
    1ed8:	fa 4f       	sbci	r31, 0xFA	; 250
    1eda:	5f 01       	movw	r10, r30
    1edc:	23 85       	ldd	r18, Z+11	; 0x0b
    1ede:	34 85       	ldd	r19, Z+12	; 0x0c
    1ee0:	45 85       	ldd	r20, Z+13	; 0x0d
    1ee2:	56 85       	ldd	r21, Z+14	; 0x0e
    1ee4:	c7 01       	movw	r24, r14
    1ee6:	b6 01       	movw	r22, r12
    1ee8:	0e 94 05 34 	call	0x680a	; 0x680a <__subsf3>
    1eec:	a3 01       	movw	r20, r6
    1eee:	92 01       	movw	r18, r4
    1ef0:	0e 94 e5 28 	call	0x51ca	; 0x51ca <hypot_f>
    1ef4:	6b 01       	movw	r12, r22
    1ef6:	7c 01       	movw	r14, r24
    1ef8:	d8 01       	movw	r26, r16
    1efa:	1b 96       	adiw	r26, 0x0b	; 11
    1efc:	2d 91       	ld	r18, X+
    1efe:	3d 91       	ld	r19, X+
    1f00:	4d 91       	ld	r20, X+
    1f02:	5c 91       	ld	r21, X
    1f04:	1e 97       	sbiw	r26, 0x0e	; 14
    1f06:	f5 01       	movw	r30, r10
    1f08:	63 85       	ldd	r22, Z+11	; 0x0b
    1f0a:	74 85       	ldd	r23, Z+12	; 0x0c
    1f0c:	85 85       	ldd	r24, Z+13	; 0x0d
    1f0e:	96 85       	ldd	r25, Z+14	; 0x0e
    1f10:	0e 94 e5 28 	call	0x51ca	; 0x51ca <hypot_f>
    1f14:	4b 01       	movw	r8, r22
    1f16:	5c 01       	movw	r10, r24
    1f18:	60 93 ab 05 	sts	0x05AB, r22
    1f1c:	70 93 ac 05 	sts	0x05AC, r23
    1f20:	80 93 ad 05 	sts	0x05AD, r24
    1f24:	90 93 ae 05 	sts	0x05AE, r25
    1f28:	9b 01       	movw	r18, r22
    1f2a:	ac 01       	movw	r20, r24
    1f2c:	c7 01       	movw	r24, r14
    1f2e:	b6 01       	movw	r22, r12
    1f30:	0e 94 05 34 	call	0x680a	; 0x680a <__subsf3>
    1f34:	6b 01       	movw	r12, r22
    1f36:	7c 01       	movw	r14, r24
    1f38:	e8 94       	clt
    1f3a:	f7 f8       	bld	r15, 7
    1f3c:	2a e0       	ldi	r18, 0x0A	; 10
    1f3e:	37 ed       	ldi	r19, 0xD7	; 215
    1f40:	43 ea       	ldi	r20, 0xA3	; 163
    1f42:	5b e3       	ldi	r21, 0x3B	; 59
    1f44:	c7 01       	movw	r24, r14
    1f46:	b6 01       	movw	r22, r12
    1f48:	0e 94 e2 36 	call	0x6dc4	; 0x6dc4 <__gesf2>
    1f4c:	18 16       	cp	r1, r24
    1f4e:	4c f1       	brlt	.+82     	; 0x1fa2 <gc_execute_line+0xd78>
    1f50:	63 c1       	rjmp	.+710    	; 0x2218 <gc_execute_line+0xfee>
    1f52:	86 e9       	ldi	r24, 0x96	; 150
    1f54:	68 2e       	mov	r6, r24
    1f56:	85 e0       	ldi	r24, 0x05	; 5
    1f58:	78 2e       	mov	r7, r24
    1f5a:	00 e0       	ldi	r16, 0x00	; 0
    1f5c:	10 e0       	ldi	r17, 0x00	; 0
    1f5e:	c2 01       	movw	r24, r4
    1f60:	00 2e       	mov	r0, r16
    1f62:	02 c0       	rjmp	.+4      	; 0x1f68 <gc_execute_line+0xd3e>
    1f64:	95 95       	asr	r25
    1f66:	87 95       	ror	r24
    1f68:	0a 94       	dec	r0
    1f6a:	e2 f7       	brpl	.-8      	; 0x1f64 <gc_execute_line+0xd3a>
    1f6c:	80 ff       	sbrs	r24, 0
    1f6e:	10 c0       	rjmp	.+32     	; 0x1f90 <gc_execute_line+0xd66>
    1f70:	23 e3       	ldi	r18, 0x33	; 51
    1f72:	33 e3       	ldi	r19, 0x33	; 51
    1f74:	4b ec       	ldi	r20, 0xCB	; 203
    1f76:	51 e4       	ldi	r21, 0x41	; 65
    1f78:	d3 01       	movw	r26, r6
    1f7a:	6d 91       	ld	r22, X+
    1f7c:	7d 91       	ld	r23, X+
    1f7e:	8d 91       	ld	r24, X+
    1f80:	9c 91       	ld	r25, X
    1f82:	0e 94 1d 37 	call	0x6e3a	; 0x6e3a <__mulsf3>
    1f86:	f3 01       	movw	r30, r6
    1f88:	60 83       	st	Z, r22
    1f8a:	71 83       	std	Z+1, r23	; 0x01
    1f8c:	82 83       	std	Z+2, r24	; 0x02
    1f8e:	93 83       	std	Z+3, r25	; 0x03
    1f90:	0f 5f       	subi	r16, 0xFF	; 255
    1f92:	1f 4f       	sbci	r17, 0xFF	; 255
    1f94:	f4 e0       	ldi	r31, 0x04	; 4
    1f96:	6f 0e       	add	r6, r31
    1f98:	71 1c       	adc	r7, r1
    1f9a:	03 30       	cpi	r16, 0x03	; 3
    1f9c:	11 05       	cpc	r17, r1
    1f9e:	f9 f6       	brne	.-66     	; 0x1f5e <gc_execute_line+0xd34>
    1fa0:	7e cf       	rjmp	.-260    	; 0x1e9e <gc_execute_line+0xc74>
    1fa2:	20 e0       	ldi	r18, 0x00	; 0
    1fa4:	30 e0       	ldi	r19, 0x00	; 0
    1fa6:	40 e0       	ldi	r20, 0x00	; 0
    1fa8:	5f e3       	ldi	r21, 0x3F	; 63
    1faa:	c7 01       	movw	r24, r14
    1fac:	b6 01       	movw	r22, r12
    1fae:	0e 94 e2 36 	call	0x6dc4	; 0x6dc4 <__gesf2>
    1fb2:	18 16       	cp	r1, r24
    1fb4:	0c f4       	brge	.+2      	; 0x1fb8 <gc_execute_line+0xd8e>
    1fb6:	62 cf       	rjmp	.-316    	; 0x1e7c <gc_execute_line+0xc52>
    1fb8:	2f e6       	ldi	r18, 0x6F	; 111
    1fba:	32 e1       	ldi	r19, 0x12	; 18
    1fbc:	43 e8       	ldi	r20, 0x83	; 131
    1fbe:	5a e3       	ldi	r21, 0x3A	; 58
    1fc0:	c5 01       	movw	r24, r10
    1fc2:	b4 01       	movw	r22, r8
    1fc4:	0e 94 1d 37 	call	0x6e3a	; 0x6e3a <__mulsf3>
    1fc8:	9b 01       	movw	r18, r22
    1fca:	ac 01       	movw	r20, r24
    1fcc:	c7 01       	movw	r24, r14
    1fce:	b6 01       	movw	r22, r12
    1fd0:	0e 94 e2 36 	call	0x6dc4	; 0x6dc4 <__gesf2>
    1fd4:	18 16       	cp	r1, r24
    1fd6:	0c f4       	brge	.+2      	; 0x1fda <gc_execute_line+0xdb0>
    1fd8:	51 cf       	rjmp	.-350    	; 0x1e7c <gc_execute_line+0xc52>
    1fda:	1e c1       	rjmp	.+572    	; 0x2218 <gc_execute_line+0xfee>
    1fdc:	55 20       	and	r5, r5
    1fde:	09 f4       	brne	.+2      	; 0x1fe2 <gc_execute_line+0xdb8>
    1fe0:	db cc       	rjmp	.-1610   	; 0x1998 <gc_execute_line+0x76e>
    1fe2:	20 91 b4 05 	lds	r18, 0x05B4
    1fe6:	30 91 b5 05 	lds	r19, 0x05B5
    1fea:	40 91 b6 05 	lds	r20, 0x05B6
    1fee:	50 91 b7 05 	lds	r21, 0x05B7
    1ff2:	60 91 5f 05 	lds	r22, 0x055F
    1ff6:	70 91 60 05 	lds	r23, 0x0560
    1ffa:	80 91 61 05 	lds	r24, 0x0561
    1ffe:	90 91 62 05 	lds	r25, 0x0562
    2002:	0e 94 df 34 	call	0x69be	; 0x69be <__cmpsf2>
    2006:	81 11       	cpse	r24, r1
    2008:	07 c1       	rjmp	.+526    	; 0x2218 <gc_execute_line+0xfee>
    200a:	20 91 b8 05 	lds	r18, 0x05B8
    200e:	30 91 b9 05 	lds	r19, 0x05B9
    2012:	40 91 ba 05 	lds	r20, 0x05BA
    2016:	50 91 bb 05 	lds	r21, 0x05BB
    201a:	60 91 63 05 	lds	r22, 0x0563
    201e:	70 91 64 05 	lds	r23, 0x0564
    2022:	80 91 65 05 	lds	r24, 0x0565
    2026:	90 91 66 05 	lds	r25, 0x0566
    202a:	0e 94 df 34 	call	0x69be	; 0x69be <__cmpsf2>
    202e:	81 11       	cpse	r24, r1
    2030:	f3 c0       	rjmp	.+486    	; 0x2218 <gc_execute_line+0xfee>
    2032:	20 91 bc 05 	lds	r18, 0x05BC
    2036:	30 91 bd 05 	lds	r19, 0x05BD
    203a:	40 91 be 05 	lds	r20, 0x05BE
    203e:	50 91 bf 05 	lds	r21, 0x05BF
    2042:	60 91 67 05 	lds	r22, 0x0567
    2046:	70 91 68 05 	lds	r23, 0x0568
    204a:	80 91 69 05 	lds	r24, 0x0569
    204e:	90 91 6a 05 	lds	r25, 0x056A
    2052:	0e 94 df 34 	call	0x69be	; 0x69be <__cmpsf2>
    2056:	88 23       	and	r24, r24
    2058:	09 f4       	brne	.+2      	; 0x205c <gc_execute_line+0xe32>
    205a:	10 cf       	rjmp	.-480    	; 0x1e7c <gc_execute_line+0xc52>
    205c:	dd c0       	rjmp	.+442    	; 0x2218 <gc_execute_line+0xfee>
    205e:	2e 8d       	ldd	r18, Y+30	; 0x1e
    2060:	21 11       	cpse	r18, r1
    2062:	da c0       	rjmp	.+436    	; 0x2218 <gc_execute_line+0xfee>
    2064:	c1 01       	movw	r24, r2
    2066:	8e 7d       	andi	r24, 0xDE	; 222
    2068:	9c 7f       	andi	r25, 0xFC	; 252
    206a:	d9 c0       	rjmp	.+434    	; 0x221e <gc_execute_line+0xff4>
    206c:	80 91 8a 05 	lds	r24, 0x058A
    2070:	81 30       	cpi	r24, 0x01	; 1
    2072:	b1 f4       	brne	.+44     	; 0x20a0 <gc_execute_line+0xe76>
    2074:	23 e3       	ldi	r18, 0x33	; 51
    2076:	33 e3       	ldi	r19, 0x33	; 51
    2078:	4b ec       	ldi	r20, 0xCB	; 203
    207a:	51 e4       	ldi	r21, 0x41	; 65
    207c:	60 91 ab 05 	lds	r22, 0x05AB
    2080:	70 91 ac 05 	lds	r23, 0x05AC
    2084:	80 91 ad 05 	lds	r24, 0x05AD
    2088:	90 91 ae 05 	lds	r25, 0x05AE
    208c:	0e 94 1d 37 	call	0x6e3a	; 0x6e3a <__mulsf3>
    2090:	60 93 ab 05 	sts	0x05AB, r22
    2094:	70 93 ac 05 	sts	0x05AC, r23
    2098:	80 93 ad 05 	sts	0x05AD, r24
    209c:	90 93 ae 05 	sts	0x05AE, r25
    20a0:	40 90 ab 05 	lds	r4, 0x05AB
    20a4:	50 90 ac 05 	lds	r5, 0x05AC
    20a8:	60 90 ad 05 	lds	r6, 0x05AD
    20ac:	70 90 ae 05 	lds	r7, 0x05AE
    20b0:	20 e0       	ldi	r18, 0x00	; 0
    20b2:	30 e0       	ldi	r19, 0x00	; 0
    20b4:	40 e8       	ldi	r20, 0x80	; 128
    20b6:	50 e4       	ldi	r21, 0x40	; 64
    20b8:	c3 01       	movw	r24, r6
    20ba:	b2 01       	movw	r22, r4
    20bc:	0e 94 1d 37 	call	0x6e3a	; 0x6e3a <__mulsf3>
    20c0:	a3 01       	movw	r20, r6
    20c2:	92 01       	movw	r18, r4
    20c4:	0e 94 1d 37 	call	0x6e3a	; 0x6e3a <__mulsf3>
    20c8:	2b 01       	movw	r4, r22
    20ca:	3c 01       	movw	r6, r24
    20cc:	a7 01       	movw	r20, r14
    20ce:	96 01       	movw	r18, r12
    20d0:	c7 01       	movw	r24, r14
    20d2:	b6 01       	movw	r22, r12
    20d4:	0e 94 1d 37 	call	0x6e3a	; 0x6e3a <__mulsf3>
    20d8:	9b 01       	movw	r18, r22
    20da:	ac 01       	movw	r20, r24
    20dc:	c3 01       	movw	r24, r6
    20de:	b2 01       	movw	r22, r4
    20e0:	0e 94 05 34 	call	0x680a	; 0x680a <__subsf3>
    20e4:	2b 01       	movw	r4, r22
    20e6:	3c 01       	movw	r6, r24
    20e8:	a5 01       	movw	r20, r10
    20ea:	94 01       	movw	r18, r8
    20ec:	c5 01       	movw	r24, r10
    20ee:	b4 01       	movw	r22, r8
    20f0:	0e 94 1d 37 	call	0x6e3a	; 0x6e3a <__mulsf3>
    20f4:	9b 01       	movw	r18, r22
    20f6:	ac 01       	movw	r20, r24
    20f8:	c3 01       	movw	r24, r6
    20fa:	b2 01       	movw	r22, r4
    20fc:	0e 94 05 34 	call	0x680a	; 0x680a <__subsf3>
    2100:	2b 01       	movw	r4, r22
    2102:	3c 01       	movw	r6, r24
    2104:	20 e0       	ldi	r18, 0x00	; 0
    2106:	30 e0       	ldi	r19, 0x00	; 0
    2108:	a9 01       	movw	r20, r18
    210a:	0e 94 df 34 	call	0x69be	; 0x69be <__cmpsf2>
    210e:	87 fd       	sbrc	r24, 7
    2110:	a7 c2       	rjmp	.+1358   	; 0x2660 <gc_execute_line+0x1436>
    2112:	c3 01       	movw	r24, r6
    2114:	b2 01       	movw	r22, r4
    2116:	0e 94 aa 37 	call	0x6f54	; 0x6f54 <sqrt>
    211a:	2b 01       	movw	r4, r22
    211c:	3c 01       	movw	r6, r24
    211e:	a5 01       	movw	r20, r10
    2120:	94 01       	movw	r18, r8
    2122:	c7 01       	movw	r24, r14
    2124:	b6 01       	movw	r22, r12
    2126:	0e 94 e5 28 	call	0x51ca	; 0x51ca <hypot_f>
    212a:	9b 01       	movw	r18, r22
    212c:	ac 01       	movw	r20, r24
    212e:	c3 01       	movw	r24, r6
    2130:	b2 01       	movw	r22, r4
    2132:	90 58       	subi	r25, 0x80	; 128
    2134:	0e 94 e6 34 	call	0x69cc	; 0x69cc <__divsf3>
    2138:	2b 01       	movw	r4, r22
    213a:	3c 01       	movw	r6, r24
    213c:	80 91 88 05 	lds	r24, 0x0588
    2140:	83 30       	cpi	r24, 0x03	; 3
    2142:	21 f4       	brne	.+8      	; 0x214c <gc_execute_line+0xf22>
    2144:	77 fa       	bst	r7, 7
    2146:	70 94       	com	r7
    2148:	77 f8       	bld	r7, 7
    214a:	70 94       	com	r7
    214c:	80 91 ab 05 	lds	r24, 0x05AB
    2150:	90 91 ac 05 	lds	r25, 0x05AC
    2154:	a0 91 ad 05 	lds	r26, 0x05AD
    2158:	b0 91 ae 05 	lds	r27, 0x05AE
    215c:	89 a3       	std	Y+33, r24	; 0x21
    215e:	9a a3       	std	Y+34, r25	; 0x22
    2160:	ab a3       	std	Y+35, r26	; 0x23
    2162:	bc a3       	std	Y+36, r27	; 0x24
    2164:	20 e0       	ldi	r18, 0x00	; 0
    2166:	30 e0       	ldi	r19, 0x00	; 0
    2168:	a9 01       	movw	r20, r18
    216a:	bc 01       	movw	r22, r24
    216c:	cd 01       	movw	r24, r26
    216e:	0e 94 df 34 	call	0x69be	; 0x69be <__cmpsf2>
    2172:	87 ff       	sbrs	r24, 7
    2174:	11 c0       	rjmp	.+34     	; 0x2198 <gc_execute_line+0xf6e>
    2176:	77 fa       	bst	r7, 7
    2178:	70 94       	com	r7
    217a:	77 f8       	bld	r7, 7
    217c:	70 94       	com	r7
    217e:	89 a1       	ldd	r24, Y+33	; 0x21
    2180:	9a a1       	ldd	r25, Y+34	; 0x22
    2182:	ab a1       	ldd	r26, Y+35	; 0x23
    2184:	bc a1       	ldd	r27, Y+36	; 0x24
    2186:	b0 58       	subi	r27, 0x80	; 128
    2188:	80 93 ab 05 	sts	0x05AB, r24
    218c:	90 93 ac 05 	sts	0x05AC, r25
    2190:	a0 93 ad 05 	sts	0x05AD, r26
    2194:	b0 93 ae 05 	sts	0x05AE, r27
    2198:	0d a1       	ldd	r16, Y+37	; 0x25
    219a:	1e a1       	ldd	r17, Y+38	; 0x26
    219c:	00 0f       	add	r16, r16
    219e:	11 1f       	adc	r17, r17
    21a0:	00 0f       	add	r16, r16
    21a2:	11 1f       	adc	r17, r17
    21a4:	05 57       	subi	r16, 0x75	; 117
    21a6:	1a 4f       	sbci	r17, 0xFA	; 250
    21a8:	a3 01       	movw	r20, r6
    21aa:	92 01       	movw	r18, r4
    21ac:	c5 01       	movw	r24, r10
    21ae:	b4 01       	movw	r22, r8
    21b0:	0e 94 1d 37 	call	0x6e3a	; 0x6e3a <__mulsf3>
    21b4:	9b 01       	movw	r18, r22
    21b6:	ac 01       	movw	r20, r24
    21b8:	c7 01       	movw	r24, r14
    21ba:	b6 01       	movw	r22, r12
    21bc:	0e 94 05 34 	call	0x680a	; 0x680a <__subsf3>
    21c0:	20 e0       	ldi	r18, 0x00	; 0
    21c2:	30 e0       	ldi	r19, 0x00	; 0
    21c4:	40 e0       	ldi	r20, 0x00	; 0
    21c6:	5f e3       	ldi	r21, 0x3F	; 63
    21c8:	0e 94 1d 37 	call	0x6e3a	; 0x6e3a <__mulsf3>
    21cc:	d8 01       	movw	r26, r16
    21ce:	1b 96       	adiw	r26, 0x0b	; 11
    21d0:	6d 93       	st	X+, r22
    21d2:	7d 93       	st	X+, r23
    21d4:	8d 93       	st	X+, r24
    21d6:	9c 93       	st	X, r25
    21d8:	1e 97       	sbiw	r26, 0x0e	; 14
    21da:	0a a5       	ldd	r16, Y+42	; 0x2a
    21dc:	1b a5       	ldd	r17, Y+43	; 0x2b
    21de:	00 0f       	add	r16, r16
    21e0:	11 1f       	adc	r17, r17
    21e2:	00 0f       	add	r16, r16
    21e4:	11 1f       	adc	r17, r17
    21e6:	05 57       	subi	r16, 0x75	; 117
    21e8:	1a 4f       	sbci	r17, 0xFA	; 250
    21ea:	a3 01       	movw	r20, r6
    21ec:	92 01       	movw	r18, r4
    21ee:	c7 01       	movw	r24, r14
    21f0:	b6 01       	movw	r22, r12
    21f2:	0e 94 1d 37 	call	0x6e3a	; 0x6e3a <__mulsf3>
    21f6:	9b 01       	movw	r18, r22
    21f8:	ac 01       	movw	r20, r24
    21fa:	c5 01       	movw	r24, r10
    21fc:	b4 01       	movw	r22, r8
    21fe:	0e 94 06 34 	call	0x680c	; 0x680c <__addsf3>
    2202:	20 e0       	ldi	r18, 0x00	; 0
    2204:	30 e0       	ldi	r19, 0x00	; 0
    2206:	40 e0       	ldi	r20, 0x00	; 0
    2208:	5f e3       	ldi	r21, 0x3F	; 63
    220a:	0e 94 1d 37 	call	0x6e3a	; 0x6e3a <__mulsf3>
    220e:	f8 01       	movw	r30, r16
    2210:	63 87       	std	Z+11, r22	; 0x0b
    2212:	74 87       	std	Z+12, r23	; 0x0c
    2214:	85 87       	std	Z+13, r24	; 0x0d
    2216:	96 87       	std	Z+14, r25	; 0x0e
    2218:	c1 01       	movw	r24, r2
    221a:	8e 7d       	andi	r24, 0xDE	; 222
    221c:	90 7e       	andi	r25, 0xE0	; 224
    221e:	89 2b       	or	r24, r25
    2220:	09 f0       	breq	.+2      	; 0x2224 <gc_execute_line+0xffa>
    2222:	18 c2       	rjmp	.+1072   	; 0x2654 <gc_execute_line+0x142a>
    2224:	80 91 a3 05 	lds	r24, 0x05A3
    2228:	90 91 a4 05 	lds	r25, 0x05A4
    222c:	a0 91 a5 05 	lds	r26, 0x05A5
    2230:	b0 91 a6 05 	lds	r27, 0x05A6
    2234:	80 93 5b 05 	sts	0x055B, r24
    2238:	90 93 5c 05 	sts	0x055C, r25
    223c:	a0 93 5d 05 	sts	0x055D, r26
    2240:	b0 93 5e 05 	sts	0x055E, r27
    2244:	80 91 89 05 	lds	r24, 0x0589
    2248:	80 93 49 05 	sts	0x0549, r24
    224c:	80 91 92 05 	lds	r24, 0x0592
    2250:	90 91 93 05 	lds	r25, 0x0593
    2254:	a0 91 94 05 	lds	r26, 0x0594
    2258:	b0 91 95 05 	lds	r27, 0x0595
    225c:	80 93 56 05 	sts	0x0556, r24
    2260:	90 93 57 05 	sts	0x0557, r25
    2264:	a0 93 58 05 	sts	0x0558, r26
    2268:	b0 93 59 05 	sts	0x0559, r27
    226c:	c0 90 af 05 	lds	r12, 0x05AF
    2270:	d0 90 b0 05 	lds	r13, 0x05B0
    2274:	e0 90 b1 05 	lds	r14, 0x05B1
    2278:	f0 90 b2 05 	lds	r15, 0x05B2
    227c:	a7 01       	movw	r20, r14
    227e:	96 01       	movw	r18, r12
    2280:	60 91 52 05 	lds	r22, 0x0552
    2284:	70 91 53 05 	lds	r23, 0x0553
    2288:	80 91 54 05 	lds	r24, 0x0554
    228c:	90 91 55 05 	lds	r25, 0x0555
    2290:	0e 94 df 34 	call	0x69be	; 0x69be <__cmpsf2>
    2294:	88 23       	and	r24, r24
    2296:	c1 f0       	breq	.+48     	; 0x22c8 <gc_execute_line+0x109e>
    2298:	80 91 51 05 	lds	r24, 0x0551
    229c:	88 23       	and	r24, r24
    229e:	21 f0       	breq	.+8      	; 0x22a8 <gc_execute_line+0x107e>
    22a0:	b7 01       	movw	r22, r14
    22a2:	a6 01       	movw	r20, r12
    22a4:	0e 94 af 13 	call	0x275e	; 0x275e <spindle_run>
    22a8:	80 91 af 05 	lds	r24, 0x05AF
    22ac:	90 91 b0 05 	lds	r25, 0x05B0
    22b0:	a0 91 b1 05 	lds	r26, 0x05B1
    22b4:	b0 91 b2 05 	lds	r27, 0x05B2
    22b8:	80 93 52 05 	sts	0x0552, r24
    22bc:	90 93 53 05 	sts	0x0553, r25
    22c0:	a0 93 54 05 	sts	0x0554, r26
    22c4:	b0 93 55 05 	sts	0x0555, r27
    22c8:	80 91 b3 05 	lds	r24, 0x05B3
    22cc:	80 93 5a 05 	sts	0x055A, r24
    22d0:	80 91 91 05 	lds	r24, 0x0591
    22d4:	90 91 51 05 	lds	r25, 0x0551
    22d8:	98 17       	cp	r25, r24
    22da:	71 f0       	breq	.+28     	; 0x22f8 <gc_execute_line+0x10ce>
    22dc:	40 91 52 05 	lds	r20, 0x0552
    22e0:	50 91 53 05 	lds	r21, 0x0553
    22e4:	60 91 54 05 	lds	r22, 0x0554
    22e8:	70 91 55 05 	lds	r23, 0x0555
    22ec:	0e 94 af 13 	call	0x275e	; 0x275e <spindle_run>
    22f0:	80 91 91 05 	lds	r24, 0x0591
    22f4:	80 93 51 05 	sts	0x0551, r24
    22f8:	80 91 90 05 	lds	r24, 0x0590
    22fc:	90 91 50 05 	lds	r25, 0x0550
    2300:	98 17       	cp	r25, r24
    2302:	31 f0       	breq	.+12     	; 0x2310 <gc_execute_line+0x10e6>
    2304:	0e 94 e2 13 	call	0x27c4	; 0x27c4 <coolant_run>
    2308:	80 91 90 05 	lds	r24, 0x0590
    230c:	80 93 50 05 	sts	0x0550, r24
    2310:	80 91 87 05 	lds	r24, 0x0587
    2314:	81 30       	cpi	r24, 0x01	; 1
    2316:	51 f4       	brne	.+20     	; 0x232c <gc_execute_line+0x1102>
    2318:	60 91 a7 05 	lds	r22, 0x05A7
    231c:	70 91 a8 05 	lds	r23, 0x05A8
    2320:	80 91 a9 05 	lds	r24, 0x05A9
    2324:	90 91 aa 05 	lds	r25, 0x05AA
    2328:	0e 94 c2 07 	call	0xf84	; 0xf84 <mc_dwell>
    232c:	80 91 8c 05 	lds	r24, 0x058C
    2330:	80 93 4c 05 	sts	0x054C, r24
    2334:	80 91 8a 05 	lds	r24, 0x058A
    2338:	80 93 4a 05 	sts	0x054A, r24
    233c:	3e 8d       	ldd	r19, Y+30	; 0x1e
    233e:	33 30       	cpi	r19, 0x03	; 3
    2340:	f9 f4       	brne	.+62     	; 0x2380 <gc_execute_line+0x1156>
    2342:	80 91 8d 05 	lds	r24, 0x058D
    2346:	80 93 4d 05 	sts	0x054D, r24
    234a:	81 30       	cpi	r24, 0x01	; 1
    234c:	89 f4       	brne	.+34     	; 0x2370 <gc_execute_line+0x1146>
    234e:	80 91 bc 05 	lds	r24, 0x05BC
    2352:	90 91 bd 05 	lds	r25, 0x05BD
    2356:	a0 91 be 05 	lds	r26, 0x05BE
    235a:	b0 91 bf 05 	lds	r27, 0x05BF
    235e:	80 93 83 05 	sts	0x0583, r24
    2362:	90 93 84 05 	sts	0x0584, r25
    2366:	a0 93 85 05 	sts	0x0585, r26
    236a:	b0 93 86 05 	sts	0x0586, r27
    236e:	08 c0       	rjmp	.+16     	; 0x2380 <gc_execute_line+0x1156>
    2370:	10 92 83 05 	sts	0x0583, r1
    2374:	10 92 84 05 	sts	0x0584, r1
    2378:	10 92 85 05 	sts	0x0585, r1
    237c:	10 92 86 05 	sts	0x0586, r1
    2380:	80 91 8e 05 	lds	r24, 0x058E
    2384:	90 91 4e 05 	lds	r25, 0x054E
    2388:	98 17       	cp	r25, r24
    238a:	59 f0       	breq	.+22     	; 0x23a2 <gc_execute_line+0x1178>
    238c:	80 93 4e 05 	sts	0x054E, r24
    2390:	8c e0       	ldi	r24, 0x0C	; 12
    2392:	fe 01       	movw	r30, r28
    2394:	3d 96       	adiw	r30, 0x0d	; 13
    2396:	ab e6       	ldi	r26, 0x6B	; 107
    2398:	b5 e0       	ldi	r27, 0x05	; 5
    239a:	01 90       	ld	r0, Z+
    239c:	0d 92       	st	X+, r0
    239e:	8a 95       	dec	r24
    23a0:	e1 f7       	brne	.-8      	; 0x239a <gc_execute_line+0x1170>
    23a2:	80 91 8b 05 	lds	r24, 0x058B
    23a6:	80 93 4b 05 	sts	0x054B, r24
    23aa:	80 91 87 05 	lds	r24, 0x0587
    23ae:	90 e0       	ldi	r25, 0x00	; 0
    23b0:	fc 01       	movw	r30, r24
    23b2:	32 97       	sbiw	r30, 0x02	; 2
    23b4:	e8 30       	cpi	r30, 0x08	; 8
    23b6:	f1 05       	cpc	r31, r1
    23b8:	08 f0       	brcs	.+2      	; 0x23bc <gc_execute_line+0x1192>
    23ba:	4b c0       	rjmp	.+150    	; 0x2452 <gc_execute_line+0x1228>
    23bc:	e7 5b       	subi	r30, 0xB7	; 183
    23be:	ff 4f       	sbci	r31, 0xFF	; 255
    23c0:	0c 94 38 38 	jmp	0x7070	; 0x7070 <__tablejump2__>
    23c4:	be 01       	movw	r22, r28
    23c6:	6f 5f       	subi	r22, 0xFF	; 255
    23c8:	7f 4f       	sbci	r23, 0xFF	; 255
    23ca:	8f 8d       	ldd	r24, Y+31	; 0x1f
    23cc:	0e 94 c4 20 	call	0x4188	; 0x4188 <settings_write_coord_data>
    23d0:	80 91 4e 05 	lds	r24, 0x054E
    23d4:	9f 8d       	ldd	r25, Y+31	; 0x1f
    23d6:	89 13       	cpse	r24, r25
    23d8:	3c c0       	rjmp	.+120    	; 0x2452 <gc_execute_line+0x1228>
    23da:	8c e0       	ldi	r24, 0x0C	; 12
    23dc:	fe 01       	movw	r30, r28
    23de:	31 96       	adiw	r30, 0x01	; 1
    23e0:	ab e6       	ldi	r26, 0x6B	; 107
    23e2:	b5 e0       	ldi	r27, 0x05	; 5
    23e4:	1a c0       	rjmp	.+52     	; 0x241a <gc_execute_line+0x11f0>
    23e6:	ae 8d       	ldd	r26, Y+30	; 0x1e
    23e8:	aa 23       	and	r26, r26
    23ea:	49 f0       	breq	.+18     	; 0x23fe <gc_execute_line+0x11d4>
    23ec:	20 e0       	ldi	r18, 0x00	; 0
    23ee:	40 e0       	ldi	r20, 0x00	; 0
    23f0:	50 e0       	ldi	r21, 0x00	; 0
    23f2:	60 e8       	ldi	r22, 0x80	; 128
    23f4:	7f eb       	ldi	r23, 0xBF	; 191
    23f6:	84 eb       	ldi	r24, 0xB4	; 180
    23f8:	95 e0       	ldi	r25, 0x05	; 5
    23fa:	0e 94 75 04 	call	0x8ea	; 0x8ea <mc_line>
    23fe:	20 e0       	ldi	r18, 0x00	; 0
    2400:	40 e0       	ldi	r20, 0x00	; 0
    2402:	50 e0       	ldi	r21, 0x00	; 0
    2404:	60 e8       	ldi	r22, 0x80	; 128
    2406:	7f eb       	ldi	r23, 0xBF	; 191
    2408:	ce 01       	movw	r24, r28
    240a:	01 96       	adiw	r24, 0x01	; 1
    240c:	0e 94 75 04 	call	0x8ea	; 0x8ea <mc_line>
    2410:	8c e0       	ldi	r24, 0x0C	; 12
    2412:	fe 01       	movw	r30, r28
    2414:	31 96       	adiw	r30, 0x01	; 1
    2416:	af e5       	ldi	r26, 0x5F	; 95
    2418:	b5 e0       	ldi	r27, 0x05	; 5
    241a:	01 90       	ld	r0, Z+
    241c:	0d 92       	st	X+, r0
    241e:	8a 95       	dec	r24
    2420:	e1 f7       	brne	.-8      	; 0x241a <gc_execute_line+0x11f0>
    2422:	17 c0       	rjmp	.+46     	; 0x2452 <gc_execute_line+0x1228>
    2424:	6f e5       	ldi	r22, 0x5F	; 95
    2426:	75 e0       	ldi	r23, 0x05	; 5
    2428:	86 e0       	ldi	r24, 0x06	; 6
    242a:	03 c0       	rjmp	.+6      	; 0x2432 <gc_execute_line+0x1208>
    242c:	6f e5       	ldi	r22, 0x5F	; 95
    242e:	75 e0       	ldi	r23, 0x05	; 5
    2430:	87 e0       	ldi	r24, 0x07	; 7
    2432:	0e 94 c4 20 	call	0x4188	; 0x4188 <settings_write_coord_data>
    2436:	0d c0       	rjmp	.+26     	; 0x2452 <gc_execute_line+0x1228>
    2438:	8c e0       	ldi	r24, 0x0C	; 12
    243a:	e4 eb       	ldi	r30, 0xB4	; 180
    243c:	f5 e0       	ldi	r31, 0x05	; 5
    243e:	a7 e7       	ldi	r26, 0x77	; 119
    2440:	b5 e0       	ldi	r27, 0x05	; 5
    2442:	eb cf       	rjmp	.-42     	; 0x241a <gc_execute_line+0x11f0>
    2444:	8c e0       	ldi	r24, 0x0C	; 12
    2446:	e7 e7       	ldi	r30, 0x77	; 119
    2448:	f5 e0       	ldi	r31, 0x05	; 5
    244a:	df 01       	movw	r26, r30
    244c:	1d 92       	st	X+, r1
    244e:	8a 95       	dec	r24
    2450:	e9 f7       	brne	.-6      	; 0x244c <gc_execute_line+0x1222>
    2452:	80 91 88 05 	lds	r24, 0x0588
    2456:	80 93 48 05 	sts	0x0548, r24
    245a:	88 30       	cpi	r24, 0x08	; 8
    245c:	09 f4       	brne	.+2      	; 0x2460 <gc_execute_line+0x1236>
    245e:	98 c0       	rjmp	.+304    	; 0x2590 <gc_execute_line+0x1366>
    2460:	be 8d       	ldd	r27, Y+30	; 0x1e
    2462:	b2 30       	cpi	r27, 0x02	; 2
    2464:	09 f0       	breq	.+2      	; 0x2468 <gc_execute_line+0x123e>
    2466:	94 c0       	rjmp	.+296    	; 0x2590 <gc_execute_line+0x1366>
    2468:	90 e0       	ldi	r25, 0x00	; 0
    246a:	88 30       	cpi	r24, 0x08	; 8
    246c:	91 05       	cpc	r25, r1
    246e:	08 f0       	brcs	.+2      	; 0x2472 <gc_execute_line+0x1248>
    2470:	86 c0       	rjmp	.+268    	; 0x257e <gc_execute_line+0x1354>
    2472:	fc 01       	movw	r30, r24
    2474:	ef 5a       	subi	r30, 0xAF	; 175
    2476:	ff 4f       	sbci	r31, 0xFF	; 255
    2478:	0c 94 38 38 	jmp	0x7070	; 0x7070 <__tablejump2__>
    247c:	20 e0       	ldi	r18, 0x00	; 0
    247e:	40 e0       	ldi	r20, 0x00	; 0
    2480:	50 e0       	ldi	r21, 0x00	; 0
    2482:	60 e8       	ldi	r22, 0x80	; 128
    2484:	7f eb       	ldi	r23, 0xBF	; 191
    2486:	0a c0       	rjmp	.+20     	; 0x249c <gc_execute_line+0x1272>
    2488:	40 91 56 05 	lds	r20, 0x0556
    248c:	50 91 57 05 	lds	r21, 0x0557
    2490:	60 91 58 05 	lds	r22, 0x0558
    2494:	70 91 59 05 	lds	r23, 0x0559
    2498:	20 91 49 05 	lds	r18, 0x0549
    249c:	84 eb       	ldi	r24, 0xB4	; 180
    249e:	95 e0       	ldi	r25, 0x05	; 5
    24a0:	0e 94 75 04 	call	0x8ea	; 0x8ea <mc_line>
    24a4:	6c c0       	rjmp	.+216    	; 0x257e <gc_execute_line+0x1354>
    24a6:	c0 90 56 05 	lds	r12, 0x0556
    24aa:	d0 90 57 05 	lds	r13, 0x0557
    24ae:	e0 90 58 05 	lds	r14, 0x0558
    24b2:	f0 90 59 05 	lds	r15, 0x0559
    24b6:	00 91 ab 05 	lds	r16, 0x05AB
    24ba:	10 91 ac 05 	lds	r17, 0x05AC
    24be:	20 91 ad 05 	lds	r18, 0x05AD
    24c2:	30 91 ae 05 	lds	r19, 0x05AE
    24c6:	81 e0       	ldi	r24, 0x01	; 1
    24c8:	8f 93       	push	r24
    24ca:	e9 a5       	ldd	r30, Y+41	; 0x29
    24cc:	ef 93       	push	r30
    24ce:	f8 a5       	ldd	r31, Y+40	; 0x28
    24d0:	ff 93       	push	r31
    24d2:	15 c0       	rjmp	.+42     	; 0x24fe <gc_execute_line+0x12d4>
    24d4:	c0 90 56 05 	lds	r12, 0x0556
    24d8:	d0 90 57 05 	lds	r13, 0x0557
    24dc:	e0 90 58 05 	lds	r14, 0x0558
    24e0:	f0 90 59 05 	lds	r15, 0x0559
    24e4:	00 91 ab 05 	lds	r16, 0x05AB
    24e8:	10 91 ac 05 	lds	r17, 0x05AC
    24ec:	20 91 ad 05 	lds	r18, 0x05AD
    24f0:	30 91 ae 05 	lds	r19, 0x05AE
    24f4:	1f 92       	push	r1
    24f6:	89 a5       	ldd	r24, Y+41	; 0x29
    24f8:	8f 93       	push	r24
    24fa:	98 a5       	ldd	r25, Y+40	; 0x28
    24fc:	9f 93       	push	r25
    24fe:	8f a0       	ldd	r8, Y+39	; 0x27
    2500:	a0 90 49 05 	lds	r10, 0x0549
    2504:	46 e9       	ldi	r20, 0x96	; 150
    2506:	55 e0       	ldi	r21, 0x05	; 5
    2508:	64 eb       	ldi	r22, 0xB4	; 180
    250a:	75 e0       	ldi	r23, 0x05	; 5
    250c:	8f e5       	ldi	r24, 0x5F	; 95
    250e:	95 e0       	ldi	r25, 0x05	; 5
    2510:	0e 94 c3 04 	call	0x986	; 0x986 <mc_arc>
    2514:	0f 90       	pop	r0
    2516:	0f 90       	pop	r0
    2518:	0f 90       	pop	r0
    251a:	31 c0       	rjmp	.+98     	; 0x257e <gc_execute_line+0x1354>
    251c:	40 91 56 05 	lds	r20, 0x0556
    2520:	50 91 57 05 	lds	r21, 0x0557
    2524:	60 91 58 05 	lds	r22, 0x0558
    2528:	70 91 59 05 	lds	r23, 0x0559
    252c:	e1 2c       	mov	r14, r1
    252e:	0a c0       	rjmp	.+20     	; 0x2544 <gc_execute_line+0x131a>
    2530:	40 91 56 05 	lds	r20, 0x0556
    2534:	50 91 57 05 	lds	r21, 0x0557
    2538:	60 91 58 05 	lds	r22, 0x0558
    253c:	70 91 59 05 	lds	r23, 0x0559
    2540:	ee 24       	eor	r14, r14
    2542:	e3 94       	inc	r14
    2544:	00 e0       	ldi	r16, 0x00	; 0
    2546:	15 c0       	rjmp	.+42     	; 0x2572 <gc_execute_line+0x1348>
    2548:	40 91 56 05 	lds	r20, 0x0556
    254c:	50 91 57 05 	lds	r21, 0x0557
    2550:	60 91 58 05 	lds	r22, 0x0558
    2554:	70 91 59 05 	lds	r23, 0x0559
    2558:	e1 2c       	mov	r14, r1
    255a:	0a c0       	rjmp	.+20     	; 0x2570 <gc_execute_line+0x1346>
    255c:	40 91 56 05 	lds	r20, 0x0556
    2560:	50 91 57 05 	lds	r21, 0x0557
    2564:	60 91 58 05 	lds	r22, 0x0558
    2568:	70 91 59 05 	lds	r23, 0x0559
    256c:	ee 24       	eor	r14, r14
    256e:	e3 94       	inc	r14
    2570:	01 e0       	ldi	r16, 0x01	; 1
    2572:	20 91 49 05 	lds	r18, 0x0549
    2576:	84 eb       	ldi	r24, 0xB4	; 180
    2578:	95 e0       	ldi	r25, 0x05	; 5
    257a:	0e 94 34 08 	call	0x1068	; 0x1068 <mc_probe_cycle>
    257e:	8c e0       	ldi	r24, 0x0C	; 12
    2580:	e4 eb       	ldi	r30, 0xB4	; 180
    2582:	f5 e0       	ldi	r31, 0x05	; 5
    2584:	af e5       	ldi	r26, 0x5F	; 95
    2586:	b5 e0       	ldi	r27, 0x05	; 5
    2588:	01 90       	ld	r0, Z+
    258a:	0d 92       	st	X+, r0
    258c:	8a 95       	dec	r24
    258e:	e1 f7       	brne	.-8      	; 0x2588 <gc_execute_line+0x135e>
    2590:	80 91 8f 05 	lds	r24, 0x058F
    2594:	80 93 4f 05 	sts	0x054F, r24
    2598:	88 23       	and	r24, r24
    259a:	09 f4       	brne	.+2      	; 0x259e <gc_execute_line+0x1374>
    259c:	5d c0       	rjmp	.+186    	; 0x2658 <gc_execute_line+0x142e>
    259e:	0e 94 85 16 	call	0x2d0a	; 0x2d0a <protocol_buffer_synchronize>
    25a2:	90 91 4f 05 	lds	r25, 0x054F
    25a6:	80 91 28 05 	lds	r24, 0x0528
    25aa:	91 30       	cpi	r25, 0x01	; 1
    25ac:	69 f4       	brne	.+26     	; 0x25c8 <gc_execute_line+0x139e>
    25ae:	82 30       	cpi	r24, 0x02	; 2
    25b0:	a1 f1       	breq	.+104    	; 0x261a <gc_execute_line+0x13f0>
    25b2:	9f b7       	in	r25, 0x3f	; 63
    25b4:	f8 94       	cli
    25b6:	80 91 45 05 	lds	r24, 0x0545
    25ba:	88 60       	ori	r24, 0x08	; 8
    25bc:	80 93 45 05 	sts	0x0545, r24
    25c0:	9f bf       	out	0x3f, r25	; 63
    25c2:	0e 94 d4 14 	call	0x29a8	; 0x29a8 <protocol_execute_realtime>
    25c6:	29 c0       	rjmp	.+82     	; 0x261a <gc_execute_line+0x13f0>
    25c8:	91 e0       	ldi	r25, 0x01	; 1
    25ca:	90 93 48 05 	sts	0x0548, r25
    25ce:	10 92 4c 05 	sts	0x054C, r1
    25d2:	10 92 4b 05 	sts	0x054B, r1
    25d6:	10 92 49 05 	sts	0x0549, r1
    25da:	10 92 4e 05 	sts	0x054E, r1
    25de:	10 92 51 05 	sts	0x0551, r1
    25e2:	10 92 50 05 	sts	0x0550, r1
    25e6:	82 30       	cpi	r24, 0x02	; 2
    25e8:	a9 f0       	breq	.+42     	; 0x2614 <gc_execute_line+0x13ea>
    25ea:	be 01       	movw	r22, r28
    25ec:	63 5f       	subi	r22, 0xF3	; 243
    25ee:	7f 4f       	sbci	r23, 0xFF	; 255
    25f0:	80 e0       	ldi	r24, 0x00	; 0
    25f2:	0e 94 15 22 	call	0x442a	; 0x442a <settings_read_coord_data>
    25f6:	88 23       	and	r24, r24
    25f8:	89 f1       	breq	.+98     	; 0x265c <gc_execute_line+0x1432>
    25fa:	8c e0       	ldi	r24, 0x0C	; 12
    25fc:	fe 01       	movw	r30, r28
    25fe:	3d 96       	adiw	r30, 0x0d	; 13
    2600:	ab e6       	ldi	r26, 0x6B	; 107
    2602:	b5 e0       	ldi	r27, 0x05	; 5
    2604:	01 90       	ld	r0, Z+
    2606:	0d 92       	st	X+, r0
    2608:	8a 95       	dec	r24
    260a:	e1 f7       	brne	.-8      	; 0x2604 <gc_execute_line+0x13da>
    260c:	0e 94 4a 13 	call	0x2694	; 0x2694 <spindle_stop>
    2610:	0e 94 d7 13 	call	0x27ae	; 0x27ae <coolant_stop>
    2614:	87 e0       	ldi	r24, 0x07	; 7
    2616:	0e 94 bc 2d 	call	0x5b78	; 0x5b78 <report_feedback_message>
    261a:	10 92 4f 05 	sts	0x054F, r1
    261e:	1c c0       	rjmp	.+56     	; 0x2658 <gc_execute_line+0x142e>
    2620:	81 e0       	ldi	r24, 0x01	; 1
    2622:	1f c0       	rjmp	.+62     	; 0x2662 <gc_execute_line+0x1438>
    2624:	82 e0       	ldi	r24, 0x02	; 2
    2626:	1d c0       	rjmp	.+58     	; 0x2662 <gc_execute_line+0x1438>
    2628:	88 e1       	ldi	r24, 0x18	; 24
    262a:	1b c0       	rjmp	.+54     	; 0x2662 <gc_execute_line+0x1438>
    262c:	89 e1       	ldi	r24, 0x19	; 25
    262e:	19 c0       	rjmp	.+50     	; 0x2662 <gc_execute_line+0x1438>
    2630:	84 e0       	ldi	r24, 0x04	; 4
    2632:	17 c0       	rjmp	.+46     	; 0x2662 <gc_execute_line+0x1438>
    2634:	8b e1       	ldi	r24, 0x1B	; 27
    2636:	15 c0       	rjmp	.+42     	; 0x2662 <gc_execute_line+0x1438>
    2638:	85 e2       	ldi	r24, 0x25	; 37
    263a:	13 c0       	rjmp	.+38     	; 0x2662 <gc_execute_line+0x1438>
    263c:	84 e1       	ldi	r24, 0x14	; 20
    263e:	11 c0       	rjmp	.+34     	; 0x2662 <gc_execute_line+0x1438>
    2640:	8e e1       	ldi	r24, 0x1E	; 30
    2642:	0f c0       	rjmp	.+30     	; 0x2662 <gc_execute_line+0x1438>
    2644:	8f e1       	ldi	r24, 0x1F	; 31
    2646:	0d c0       	rjmp	.+26     	; 0x2662 <gc_execute_line+0x1438>
    2648:	86 e1       	ldi	r24, 0x16	; 22
    264a:	0b c0       	rjmp	.+22     	; 0x2662 <gc_execute_line+0x1438>
    264c:	80 e2       	ldi	r24, 0x20	; 32
    264e:	09 c0       	rjmp	.+18     	; 0x2662 <gc_execute_line+0x1438>
    2650:	83 e2       	ldi	r24, 0x23	; 35
    2652:	07 c0       	rjmp	.+14     	; 0x2662 <gc_execute_line+0x1438>
    2654:	84 e2       	ldi	r24, 0x24	; 36
    2656:	05 c0       	rjmp	.+10     	; 0x2662 <gc_execute_line+0x1438>
    2658:	80 e0       	ldi	r24, 0x00	; 0
    265a:	03 c0       	rjmp	.+6      	; 0x2662 <gc_execute_line+0x1438>
    265c:	87 e0       	ldi	r24, 0x07	; 7
    265e:	01 c0       	rjmp	.+2      	; 0x2662 <gc_execute_line+0x1438>
    2660:	82 e2       	ldi	r24, 0x22	; 34
    2662:	ab 96       	adiw	r28, 0x2b	; 43
    2664:	0f b6       	in	r0, 0x3f	; 63
    2666:	f8 94       	cli
    2668:	de bf       	out	0x3e, r29	; 62
    266a:	0f be       	out	0x3f, r0	; 63
    266c:	cd bf       	out	0x3d, r28	; 61
    266e:	df 91       	pop	r29
    2670:	cf 91       	pop	r28
    2672:	1f 91       	pop	r17
    2674:	0f 91       	pop	r16
    2676:	ff 90       	pop	r15
    2678:	ef 90       	pop	r14
    267a:	df 90       	pop	r13
    267c:	cf 90       	pop	r12
    267e:	bf 90       	pop	r11
    2680:	af 90       	pop	r10
    2682:	9f 90       	pop	r9
    2684:	8f 90       	pop	r8
    2686:	7f 90       	pop	r7
    2688:	6f 90       	pop	r6
    268a:	5f 90       	pop	r5
    268c:	4f 90       	pop	r4
    268e:	3f 90       	pop	r3
    2690:	2f 90       	pop	r2
    2692:	08 95       	ret

00002694 <spindle_stop>:
    2694:	e0 eb       	ldi	r30, 0xB0	; 176
    2696:	f0 e0       	ldi	r31, 0x00	; 0
    2698:	80 81       	ld	r24, Z
    269a:	8f 77       	andi	r24, 0x7F	; 127
    269c:	80 83       	st	Z, r24
    269e:	08 95       	ret

000026a0 <spindle_init>:
    26a0:	23 9a       	sbi	0x04, 3	; 4
    26a2:	25 9a       	sbi	0x04, 5	; 4
    26a4:	0c 94 4a 13 	jmp	0x2694	; 0x2694 <spindle_stop>

000026a8 <spindle_set_state>:
    26a8:	cf 92       	push	r12
    26aa:	df 92       	push	r13
    26ac:	ef 92       	push	r14
    26ae:	ff 92       	push	r15
    26b0:	6a 01       	movw	r12, r20
    26b2:	7b 01       	movw	r14, r22
    26b4:	81 11       	cpse	r24, r1
    26b6:	06 c0       	rjmp	.+12     	; 0x26c4 <spindle_set_state+0x1c>
    26b8:	ff 90       	pop	r15
    26ba:	ef 90       	pop	r14
    26bc:	df 90       	pop	r13
    26be:	cf 90       	pop	r12
    26c0:	0c 94 4a 13 	jmp	0x2694	; 0x2694 <spindle_stop>
    26c4:	81 30       	cpi	r24, 0x01	; 1
    26c6:	11 f4       	brne	.+4      	; 0x26cc <spindle_set_state+0x24>
    26c8:	2d 98       	cbi	0x05, 5	; 5
    26ca:	01 c0       	rjmp	.+2      	; 0x26ce <spindle_set_state+0x26>
    26cc:	2d 9a       	sbi	0x05, 5	; 5
    26ce:	83 e8       	ldi	r24, 0x83	; 131
    26d0:	80 93 b0 00 	sts	0x00B0, r24
    26d4:	80 91 b1 00 	lds	r24, 0x00B1
    26d8:	88 7f       	andi	r24, 0xF8	; 248
    26da:	82 60       	ori	r24, 0x02	; 2
    26dc:	80 93 b1 00 	sts	0x00B1, r24
    26e0:	20 e0       	ldi	r18, 0x00	; 0
    26e2:	30 e0       	ldi	r19, 0x00	; 0
    26e4:	a9 01       	movw	r20, r18
    26e6:	c7 01       	movw	r24, r14
    26e8:	b6 01       	movw	r22, r12
    26ea:	0e 94 df 34 	call	0x69be	; 0x69be <__cmpsf2>
    26ee:	18 16       	cp	r1, r24
    26f0:	1c f7       	brge	.-58     	; 0x26b8 <spindle_set_state+0x10>
    26f2:	20 e0       	ldi	r18, 0x00	; 0
    26f4:	30 e0       	ldi	r19, 0x00	; 0
    26f6:	a9 01       	movw	r20, r18
    26f8:	c7 01       	movw	r24, r14
    26fa:	b6 01       	movw	r22, r12
    26fc:	0e 94 df 34 	call	0x69be	; 0x69be <__cmpsf2>
    2700:	87 fd       	sbrc	r24, 7
    2702:	11 c0       	rjmp	.+34     	; 0x2726 <spindle_set_state+0x7e>
    2704:	20 e0       	ldi	r18, 0x00	; 0
    2706:	30 e0       	ldi	r19, 0x00	; 0
    2708:	4a e7       	ldi	r20, 0x7A	; 122
    270a:	54 e4       	ldi	r21, 0x44	; 68
    270c:	c7 01       	movw	r24, r14
    270e:	b6 01       	movw	r22, r12
    2710:	0e 94 e2 36 	call	0x6dc4	; 0x6dc4 <__gesf2>
    2714:	18 16       	cp	r1, r24
    2716:	54 f4       	brge	.+20     	; 0x272c <spindle_set_state+0x84>
    2718:	c1 2c       	mov	r12, r1
    271a:	d1 2c       	mov	r13, r1
    271c:	8a e7       	ldi	r24, 0x7A	; 122
    271e:	e8 2e       	mov	r14, r24
    2720:	84 e4       	ldi	r24, 0x44	; 68
    2722:	f8 2e       	mov	r15, r24
    2724:	03 c0       	rjmp	.+6      	; 0x272c <spindle_set_state+0x84>
    2726:	c1 2c       	mov	r12, r1
    2728:	d1 2c       	mov	r13, r1
    272a:	76 01       	movw	r14, r12
    272c:	2c e5       	ldi	r18, 0x5C	; 92
    272e:	3f e8       	ldi	r19, 0x8F	; 143
    2730:	42 e8       	ldi	r20, 0x82	; 130
    2732:	5e e3       	ldi	r21, 0x3E	; 62
    2734:	c7 01       	movw	r24, r14
    2736:	b6 01       	movw	r22, r12
    2738:	0e 94 1d 37 	call	0x6e3a	; 0x6e3a <__mulsf3>
    273c:	20 e0       	ldi	r18, 0x00	; 0
    273e:	30 e0       	ldi	r19, 0x00	; 0
    2740:	40 e0       	ldi	r20, 0x00	; 0
    2742:	5f e3       	ldi	r21, 0x3F	; 63
    2744:	0e 94 06 34 	call	0x680c	; 0x680c <__addsf3>
    2748:	0e 94 bc 35 	call	0x6b78	; 0x6b78 <floor>
    274c:	0e 94 53 35 	call	0x6aa6	; 0x6aa6 <__fixunssfsi>
    2750:	60 93 b3 00 	sts	0x00B3, r22
    2754:	ff 90       	pop	r15
    2756:	ef 90       	pop	r14
    2758:	df 90       	pop	r13
    275a:	cf 90       	pop	r12
    275c:	08 95       	ret

0000275e <spindle_run>:
    275e:	cf 93       	push	r28
    2760:	df 93       	push	r29
    2762:	00 d0       	rcall	.+0      	; 0x2764 <spindle_run+0x6>
    2764:	00 d0       	rcall	.+0      	; 0x2766 <spindle_run+0x8>
    2766:	1f 92       	push	r1
    2768:	cd b7       	in	r28, 0x3d	; 61
    276a:	de b7       	in	r29, 0x3e	; 62
    276c:	90 91 28 05 	lds	r25, 0x0528
    2770:	92 30       	cpi	r25, 0x02	; 2
    2772:	a9 f0       	breq	.+42     	; 0x279e <spindle_run+0x40>
    2774:	4a 83       	std	Y+2, r20	; 0x02
    2776:	5b 83       	std	Y+3, r21	; 0x03
    2778:	6c 83       	std	Y+4, r22	; 0x04
    277a:	7d 83       	std	Y+5, r23	; 0x05
    277c:	89 83       	std	Y+1, r24	; 0x01
    277e:	0e 94 85 16 	call	0x2d0a	; 0x2d0a <protocol_buffer_synchronize>
    2782:	4a 81       	ldd	r20, Y+2	; 0x02
    2784:	5b 81       	ldd	r21, Y+3	; 0x03
    2786:	6c 81       	ldd	r22, Y+4	; 0x04
    2788:	7d 81       	ldd	r23, Y+5	; 0x05
    278a:	89 81       	ldd	r24, Y+1	; 0x01
    278c:	0f 90       	pop	r0
    278e:	0f 90       	pop	r0
    2790:	0f 90       	pop	r0
    2792:	0f 90       	pop	r0
    2794:	0f 90       	pop	r0
    2796:	df 91       	pop	r29
    2798:	cf 91       	pop	r28
    279a:	0c 94 54 13 	jmp	0x26a8	; 0x26a8 <spindle_set_state>
    279e:	0f 90       	pop	r0
    27a0:	0f 90       	pop	r0
    27a2:	0f 90       	pop	r0
    27a4:	0f 90       	pop	r0
    27a6:	0f 90       	pop	r0
    27a8:	df 91       	pop	r29
    27aa:	cf 91       	pop	r28
    27ac:	08 95       	ret

000027ae <coolant_stop>:
    27ae:	43 98       	cbi	0x08, 3	; 8
    27b0:	08 95       	ret

000027b2 <coolant_init>:
    27b2:	3b 9a       	sbi	0x07, 3	; 7
    27b4:	0c 94 d7 13 	jmp	0x27ae	; 0x27ae <coolant_stop>

000027b8 <coolant_set_state>:
    27b8:	82 30       	cpi	r24, 0x02	; 2
    27ba:	11 f4       	brne	.+4      	; 0x27c0 <coolant_set_state+0x8>
    27bc:	43 9a       	sbi	0x08, 3	; 8
    27be:	08 95       	ret
    27c0:	0c 94 d7 13 	jmp	0x27ae	; 0x27ae <coolant_stop>

000027c4 <coolant_run>:
    27c4:	cf 93       	push	r28
    27c6:	df 93       	push	r29
    27c8:	1f 92       	push	r1
    27ca:	cd b7       	in	r28, 0x3d	; 61
    27cc:	de b7       	in	r29, 0x3e	; 62
    27ce:	90 91 28 05 	lds	r25, 0x0528
    27d2:	92 30       	cpi	r25, 0x02	; 2
    27d4:	49 f0       	breq	.+18     	; 0x27e8 <coolant_run+0x24>
    27d6:	89 83       	std	Y+1, r24	; 0x01
    27d8:	0e 94 85 16 	call	0x2d0a	; 0x2d0a <protocol_buffer_synchronize>
    27dc:	89 81       	ldd	r24, Y+1	; 0x01
    27de:	0f 90       	pop	r0
    27e0:	df 91       	pop	r29
    27e2:	cf 91       	pop	r28
    27e4:	0c 94 dc 13 	jmp	0x27b8	; 0x27b8 <coolant_set_state>
    27e8:	0f 90       	pop	r0
    27ea:	df 91       	pop	r29
    27ec:	cf 91       	pop	r28
    27ee:	08 95       	ret

000027f0 <serial_get_rx_buffer_count>:
    27f0:	90 91 02 01 	lds	r25, 0x0102
    27f4:	80 91 03 01 	lds	r24, 0x0103
    27f8:	89 17       	cp	r24, r25
    27fa:	08 f4       	brcc	.+2      	; 0x27fe <serial_get_rx_buffer_count+0xe>
    27fc:	80 58       	subi	r24, 0x80	; 128
    27fe:	89 1b       	sub	r24, r25
    2800:	08 95       	ret

00002802 <serial_init>:
    2802:	e0 ec       	ldi	r30, 0xC0	; 192
    2804:	f0 e0       	ldi	r31, 0x00	; 0
    2806:	80 81       	ld	r24, Z
    2808:	82 60       	ori	r24, 0x02	; 2
    280a:	80 83       	st	Z, r24
    280c:	10 92 c5 00 	sts	0x00C5, r1
    2810:	80 e1       	ldi	r24, 0x10	; 16
    2812:	80 93 c4 00 	sts	0x00C4, r24
    2816:	e1 ec       	ldi	r30, 0xC1	; 193
    2818:	f0 e0       	ldi	r31, 0x00	; 0
    281a:	80 81       	ld	r24, Z
    281c:	80 61       	ori	r24, 0x10	; 16
    281e:	80 83       	st	Z, r24
    2820:	80 81       	ld	r24, Z
    2822:	88 60       	ori	r24, 0x08	; 8
    2824:	80 83       	st	Z, r24
    2826:	80 81       	ld	r24, Z
    2828:	80 68       	ori	r24, 0x80	; 128
    282a:	80 83       	st	Z, r24
    282c:	08 95       	ret

0000282e <serial_write>:
    282e:	e0 91 01 01 	lds	r30, 0x0101
    2832:	91 e0       	ldi	r25, 0x01	; 1
    2834:	9e 0f       	add	r25, r30
    2836:	90 34       	cpi	r25, 0x40	; 64
    2838:	09 f4       	brne	.+2      	; 0x283c <serial_write+0xe>
    283a:	90 e0       	ldi	r25, 0x00	; 0
    283c:	20 91 00 01 	lds	r18, 0x0100
    2840:	92 13       	cpse	r25, r18
    2842:	05 c0       	rjmp	.+10     	; 0x284e <serial_write+0x20>
    2844:	20 91 45 05 	lds	r18, 0x0545
    2848:	24 ff       	sbrs	r18, 4
    284a:	f8 cf       	rjmp	.-16     	; 0x283c <serial_write+0xe>
    284c:	08 95       	ret
    284e:	f0 e0       	ldi	r31, 0x00	; 0
    2850:	e0 54       	subi	r30, 0x40	; 64
    2852:	fa 4f       	sbci	r31, 0xFA	; 250
    2854:	80 83       	st	Z, r24
    2856:	90 93 01 01 	sts	0x0101, r25
    285a:	80 91 c1 00 	lds	r24, 0x00C1
    285e:	80 62       	ori	r24, 0x20	; 32
    2860:	80 93 c1 00 	sts	0x00C1, r24
    2864:	08 95       	ret

00002866 <__vector_19>:
    2866:	1f 92       	push	r1
    2868:	0f 92       	push	r0
    286a:	0f b6       	in	r0, 0x3f	; 63
    286c:	0f 92       	push	r0
    286e:	11 24       	eor	r1, r1
    2870:	8f 93       	push	r24
    2872:	9f 93       	push	r25
    2874:	ef 93       	push	r30
    2876:	ff 93       	push	r31
    2878:	80 91 00 01 	lds	r24, 0x0100
    287c:	e8 2f       	mov	r30, r24
    287e:	f0 e0       	ldi	r31, 0x00	; 0
    2880:	e0 54       	subi	r30, 0x40	; 64
    2882:	fa 4f       	sbci	r31, 0xFA	; 250
    2884:	90 81       	ld	r25, Z
    2886:	90 93 c6 00 	sts	0x00C6, r25
    288a:	8f 5f       	subi	r24, 0xFF	; 255
    288c:	80 34       	cpi	r24, 0x40	; 64
    288e:	09 f4       	brne	.+2      	; 0x2892 <__vector_19+0x2c>
    2890:	80 e0       	ldi	r24, 0x00	; 0
    2892:	80 93 00 01 	sts	0x0100, r24
    2896:	90 91 01 01 	lds	r25, 0x0101
    289a:	89 13       	cpse	r24, r25
    289c:	05 c0       	rjmp	.+10     	; 0x28a8 <__vector_19+0x42>
    289e:	80 91 c1 00 	lds	r24, 0x00C1
    28a2:	8f 7d       	andi	r24, 0xDF	; 223
    28a4:	80 93 c1 00 	sts	0x00C1, r24
    28a8:	ff 91       	pop	r31
    28aa:	ef 91       	pop	r30
    28ac:	9f 91       	pop	r25
    28ae:	8f 91       	pop	r24
    28b0:	0f 90       	pop	r0
    28b2:	0f be       	out	0x3f, r0	; 63
    28b4:	0f 90       	pop	r0
    28b6:	1f 90       	pop	r1
    28b8:	18 95       	reti

000028ba <serial_read>:
    28ba:	90 91 02 01 	lds	r25, 0x0102
    28be:	80 91 03 01 	lds	r24, 0x0103
    28c2:	89 17       	cp	r24, r25
    28c4:	61 f0       	breq	.+24     	; 0x28de <serial_read+0x24>
    28c6:	e9 2f       	mov	r30, r25
    28c8:	f0 e0       	ldi	r31, 0x00	; 0
    28ca:	e0 50       	subi	r30, 0x00	; 0
    28cc:	fa 4f       	sbci	r31, 0xFA	; 250
    28ce:	80 81       	ld	r24, Z
    28d0:	9f 5f       	subi	r25, 0xFF	; 255
    28d2:	90 38       	cpi	r25, 0x80	; 128
    28d4:	09 f4       	brne	.+2      	; 0x28d8 <serial_read+0x1e>
    28d6:	90 e0       	ldi	r25, 0x00	; 0
    28d8:	90 93 02 01 	sts	0x0102, r25
    28dc:	08 95       	ret
    28de:	8f ef       	ldi	r24, 0xFF	; 255
    28e0:	08 95       	ret

000028e2 <__vector_18>:
    28e2:	1f 92       	push	r1
    28e4:	0f 92       	push	r0
    28e6:	0f b6       	in	r0, 0x3f	; 63
    28e8:	0f 92       	push	r0
    28ea:	11 24       	eor	r1, r1
    28ec:	2f 93       	push	r18
    28ee:	3f 93       	push	r19
    28f0:	4f 93       	push	r20
    28f2:	5f 93       	push	r21
    28f4:	6f 93       	push	r22
    28f6:	7f 93       	push	r23
    28f8:	8f 93       	push	r24
    28fa:	9f 93       	push	r25
    28fc:	af 93       	push	r26
    28fe:	bf 93       	push	r27
    2900:	ef 93       	push	r30
    2902:	ff 93       	push	r31
    2904:	80 91 c6 00 	lds	r24, 0x00C6
    2908:	8f 33       	cpi	r24, 0x3F	; 63
    290a:	a9 f0       	breq	.+42     	; 0x2936 <__vector_18+0x54>
    290c:	50 f4       	brcc	.+20     	; 0x2922 <__vector_18+0x40>
    290e:	88 31       	cpi	r24, 0x18	; 24
    2910:	09 f1       	breq	.+66     	; 0x2954 <__vector_18+0x72>
    2912:	81 32       	cpi	r24, 0x21	; 33
    2914:	11 f5       	brne	.+68     	; 0x295a <__vector_18+0x78>
    2916:	9f b7       	in	r25, 0x3f	; 63
    2918:	f8 94       	cli
    291a:	80 91 45 05 	lds	r24, 0x0545
    291e:	88 60       	ori	r24, 0x08	; 8
    2920:	15 c0       	rjmp	.+42     	; 0x294c <__vector_18+0x6a>
    2922:	80 34       	cpi	r24, 0x40	; 64
    2924:	71 f0       	breq	.+28     	; 0x2942 <__vector_18+0x60>
    2926:	8e 37       	cpi	r24, 0x7E	; 126
    2928:	c1 f4       	brne	.+48     	; 0x295a <__vector_18+0x78>
    292a:	9f b7       	in	r25, 0x3f	; 63
    292c:	f8 94       	cli
    292e:	80 91 45 05 	lds	r24, 0x0545
    2932:	82 60       	ori	r24, 0x02	; 2
    2934:	0b c0       	rjmp	.+22     	; 0x294c <__vector_18+0x6a>
    2936:	9f b7       	in	r25, 0x3f	; 63
    2938:	f8 94       	cli
    293a:	80 91 45 05 	lds	r24, 0x0545
    293e:	81 60       	ori	r24, 0x01	; 1
    2940:	05 c0       	rjmp	.+10     	; 0x294c <__vector_18+0x6a>
    2942:	9f b7       	in	r25, 0x3f	; 63
    2944:	f8 94       	cli
    2946:	80 91 45 05 	lds	r24, 0x0545
    294a:	80 62       	ori	r24, 0x20	; 32
    294c:	80 93 45 05 	sts	0x0545, r24
    2950:	9f bf       	out	0x3f, r25	; 63
    2952:	14 c0       	rjmp	.+40     	; 0x297c <__vector_18+0x9a>
    2954:	0e 94 d2 08 	call	0x11a4	; 0x11a4 <mc_reset>
    2958:	11 c0       	rjmp	.+34     	; 0x297c <__vector_18+0x9a>
    295a:	e0 91 03 01 	lds	r30, 0x0103
    295e:	91 e0       	ldi	r25, 0x01	; 1
    2960:	9e 0f       	add	r25, r30
    2962:	90 38       	cpi	r25, 0x80	; 128
    2964:	09 f4       	brne	.+2      	; 0x2968 <__vector_18+0x86>
    2966:	90 e0       	ldi	r25, 0x00	; 0
    2968:	20 91 02 01 	lds	r18, 0x0102
    296c:	92 17       	cp	r25, r18
    296e:	31 f0       	breq	.+12     	; 0x297c <__vector_18+0x9a>
    2970:	f0 e0       	ldi	r31, 0x00	; 0
    2972:	e0 50       	subi	r30, 0x00	; 0
    2974:	fa 4f       	sbci	r31, 0xFA	; 250
    2976:	80 83       	st	Z, r24
    2978:	90 93 03 01 	sts	0x0103, r25
    297c:	ff 91       	pop	r31
    297e:	ef 91       	pop	r30
    2980:	bf 91       	pop	r27
    2982:	af 91       	pop	r26
    2984:	9f 91       	pop	r25
    2986:	8f 91       	pop	r24
    2988:	7f 91       	pop	r23
    298a:	6f 91       	pop	r22
    298c:	5f 91       	pop	r21
    298e:	4f 91       	pop	r20
    2990:	3f 91       	pop	r19
    2992:	2f 91       	pop	r18
    2994:	0f 90       	pop	r0
    2996:	0f be       	out	0x3f, r0	; 63
    2998:	0f 90       	pop	r0
    299a:	1f 90       	pop	r1
    299c:	18 95       	reti

0000299e <serial_reset_read_buffer>:
    299e:	80 91 03 01 	lds	r24, 0x0103
    29a2:	80 93 02 01 	sts	0x0102, r24
    29a6:	08 95       	ret

000029a8 <protocol_execute_realtime>:
    29a8:	ef 92       	push	r14
    29aa:	ff 92       	push	r15
    29ac:	0f 93       	push	r16
    29ae:	1f 93       	push	r17
    29b0:	cf 93       	push	r28
    29b2:	df 93       	push	r29
    29b4:	d1 e0       	ldi	r29, 0x01	; 1
    29b6:	08 e0       	ldi	r16, 0x08	; 8
    29b8:	80 e2       	ldi	r24, 0x20	; 32
    29ba:	f8 2e       	mov	r15, r24
    29bc:	10 e1       	ldi	r17, 0x10	; 16
    29be:	90 e4       	ldi	r25, 0x40	; 64
    29c0:	e9 2e       	mov	r14, r25
    29c2:	c0 91 47 05 	lds	r28, 0x0547
    29c6:	cc 23       	and	r28, r28
    29c8:	89 f1       	breq	.+98     	; 0x2a2c <protocol_execute_realtime+0x84>
    29ca:	d0 93 28 05 	sts	0x0528, r29
    29ce:	c1 ff       	sbrs	r28, 1
    29d0:	02 c0       	rjmp	.+4      	; 0x29d6 <protocol_execute_realtime+0x2e>
    29d2:	81 e0       	ldi	r24, 0x01	; 1
    29d4:	0f c0       	rjmp	.+30     	; 0x29f4 <protocol_execute_realtime+0x4c>
    29d6:	c2 ff       	sbrs	r28, 2
    29d8:	02 c0       	rjmp	.+4      	; 0x29de <protocol_execute_realtime+0x36>
    29da:	82 e0       	ldi	r24, 0x02	; 2
    29dc:	0b c0       	rjmp	.+22     	; 0x29f4 <protocol_execute_realtime+0x4c>
    29de:	c3 ff       	sbrs	r28, 3
    29e0:	02 c0       	rjmp	.+4      	; 0x29e6 <protocol_execute_realtime+0x3e>
    29e2:	83 e0       	ldi	r24, 0x03	; 3
    29e4:	07 c0       	rjmp	.+14     	; 0x29f4 <protocol_execute_realtime+0x4c>
    29e6:	c4 ff       	sbrs	r28, 4
    29e8:	02 c0       	rjmp	.+4      	; 0x29ee <protocol_execute_realtime+0x46>
    29ea:	84 e0       	ldi	r24, 0x04	; 4
    29ec:	03 c0       	rjmp	.+6      	; 0x29f4 <protocol_execute_realtime+0x4c>
    29ee:	c5 ff       	sbrs	r28, 5
    29f0:	03 c0       	rjmp	.+6      	; 0x29f8 <protocol_execute_realtime+0x50>
    29f2:	85 e0       	ldi	r24, 0x05	; 5
    29f4:	0e 94 92 2d 	call	0x5b24	; 0x5b24 <report_alarm_message>
    29f8:	c0 fd       	sbrc	r28, 0
    29fa:	08 c0       	rjmp	.+16     	; 0x2a0c <protocol_execute_realtime+0x64>
    29fc:	8f b7       	in	r24, 0x3f	; 63
    29fe:	f8 94       	cli
    2a00:	90 91 47 05 	lds	r25, 0x0547
    2a04:	10 92 47 05 	sts	0x0547, r1
    2a08:	8f bf       	out	0x3f, r24	; 63
    2a0a:	10 c0       	rjmp	.+32     	; 0x2a2c <protocol_execute_realtime+0x84>
    2a0c:	81 e0       	ldi	r24, 0x01	; 1
    2a0e:	0e 94 bc 2d 	call	0x5b78	; 0x5b78 <report_feedback_message>
    2a12:	9f b7       	in	r25, 0x3f	; 63
    2a14:	f8 94       	cli
    2a16:	80 91 45 05 	lds	r24, 0x0545
    2a1a:	8f 7e       	andi	r24, 0xEF	; 239
    2a1c:	80 93 45 05 	sts	0x0545, r24
    2a20:	9f bf       	out	0x3f, r25	; 63
    2a22:	80 91 45 05 	lds	r24, 0x0545
    2a26:	84 ff       	sbrs	r24, 4
    2a28:	fc cf       	rjmp	.-8      	; 0x2a22 <protocol_execute_realtime+0x7a>
    2a2a:	e8 cf       	rjmp	.-48     	; 0x29fc <protocol_execute_realtime+0x54>
    2a2c:	c0 91 45 05 	lds	r28, 0x0545
    2a30:	cc 23       	and	r28, r28
    2a32:	09 f4       	brne	.+2      	; 0x2a36 <protocol_execute_realtime+0x8e>
    2a34:	c0 c0       	rjmp	.+384    	; 0x2bb6 <protocol_execute_realtime+0x20e>
    2a36:	c4 ff       	sbrs	r28, 4
    2a38:	04 c0       	rjmp	.+8      	; 0x2a42 <protocol_execute_realtime+0x9a>
    2a3a:	81 e0       	ldi	r24, 0x01	; 1
    2a3c:	80 93 27 05 	sts	0x0527, r24
    2a40:	d2 c0       	rjmp	.+420    	; 0x2be6 <protocol_execute_realtime+0x23e>
    2a42:	c0 ff       	sbrs	r28, 0
    2a44:	0a c0       	rjmp	.+20     	; 0x2a5a <protocol_execute_realtime+0xb2>
    2a46:	0e 94 ef 30 	call	0x61de	; 0x61de <report_realtime_status>
    2a4a:	9f b7       	in	r25, 0x3f	; 63
    2a4c:	f8 94       	cli
    2a4e:	80 91 45 05 	lds	r24, 0x0545
    2a52:	8e 7f       	andi	r24, 0xFE	; 254
    2a54:	80 93 45 05 	sts	0x0545, r24
    2a58:	9f bf       	out	0x3f, r25	; 63
    2a5a:	8c 2f       	mov	r24, r28
    2a5c:	88 76       	andi	r24, 0x68	; 104
    2a5e:	09 f4       	brne	.+2      	; 0x2a62 <protocol_execute_realtime+0xba>
    2a60:	3c c0       	rjmp	.+120    	; 0x2ada <protocol_execute_realtime+0x132>
    2a62:	80 91 28 05 	lds	r24, 0x0528
    2a66:	88 23       	and	r24, r24
    2a68:	49 f0       	breq	.+18     	; 0x2a7c <protocol_execute_realtime+0xd4>
    2a6a:	98 2f       	mov	r25, r24
    2a6c:	9c 77       	andi	r25, 0x7C	; 124
    2a6e:	69 f1       	breq	.+90     	; 0x2aca <protocol_execute_realtime+0x122>
    2a70:	88 30       	cpi	r24, 0x08	; 8
    2a72:	21 f4       	brne	.+8      	; 0x2a7c <protocol_execute_realtime+0xd4>
    2a74:	0e 94 9a 19 	call	0x3334	; 0x3334 <st_update_plan_block_parameters>
    2a78:	d0 93 29 05 	sts	0x0529, r29
    2a7c:	80 91 28 05 	lds	r24, 0x0528
    2a80:	81 11       	cpse	r24, r1
    2a82:	03 c0       	rjmp	.+6      	; 0x2a8a <protocol_execute_realtime+0xe2>
    2a84:	92 e0       	ldi	r25, 0x02	; 2
    2a86:	90 93 29 05 	sts	0x0529, r25
    2a8a:	c6 ff       	sbrs	r28, 6
    2a8c:	09 c0       	rjmp	.+18     	; 0x2aa0 <protocol_execute_realtime+0xf8>
    2a8e:	88 30       	cpi	r24, 0x08	; 8
    2a90:	11 f4       	brne	.+4      	; 0x2a96 <protocol_execute_realtime+0xee>
    2a92:	e0 92 28 05 	sts	0x0528, r14
    2a96:	80 91 29 05 	lds	r24, 0x0529
    2a9a:	88 60       	ori	r24, 0x08	; 8
    2a9c:	80 93 29 05 	sts	0x0529, r24
    2aa0:	c3 ff       	sbrs	r28, 3
    2aa2:	05 c0       	rjmp	.+10     	; 0x2aae <protocol_execute_realtime+0x106>
    2aa4:	80 91 28 05 	lds	r24, 0x0528
    2aa8:	85 ff       	sbrs	r24, 5
    2aaa:	10 93 28 05 	sts	0x0528, r17
    2aae:	c5 ff       	sbrs	r28, 5
    2ab0:	0c c0       	rjmp	.+24     	; 0x2aca <protocol_execute_realtime+0x122>
    2ab2:	86 e0       	ldi	r24, 0x06	; 6
    2ab4:	0e 94 bc 2d 	call	0x5b78	; 0x5b78 <report_feedback_message>
    2ab8:	80 91 29 05 	lds	r24, 0x0529
    2abc:	81 fd       	sbrc	r24, 1
    2abe:	c4 60       	ori	r28, 0x04	; 4
    2ac0:	84 60       	ori	r24, 0x04	; 4
    2ac2:	80 93 29 05 	sts	0x0529, r24
    2ac6:	f0 92 28 05 	sts	0x0528, r15
    2aca:	9f b7       	in	r25, 0x3f	; 63
    2acc:	f8 94       	cli
    2ace:	80 91 45 05 	lds	r24, 0x0545
    2ad2:	87 79       	andi	r24, 0x97	; 151
    2ad4:	80 93 45 05 	sts	0x0545, r24
    2ad8:	9f bf       	out	0x3f, r25	; 63
    2ada:	c1 ff       	sbrs	r28, 1
    2adc:	48 c0       	rjmp	.+144    	; 0x2b6e <protocol_execute_realtime+0x1c6>
    2ade:	8c 2f       	mov	r24, r28
    2ae0:	88 76       	andi	r24, 0x68	; 104
    2ae2:	e9 f5       	brne	.+122    	; 0x2b5e <protocol_execute_realtime+0x1b6>
    2ae4:	80 91 28 05 	lds	r24, 0x0528
    2ae8:	88 23       	and	r24, r24
    2aea:	31 f0       	breq	.+12     	; 0x2af8 <protocol_execute_realtime+0x150>
    2aec:	80 75       	andi	r24, 0x50	; 80
    2aee:	b9 f1       	breq	.+110    	; 0x2b5e <protocol_execute_realtime+0x1b6>
    2af0:	80 91 29 05 	lds	r24, 0x0529
    2af4:	81 ff       	sbrs	r24, 1
    2af6:	33 c0       	rjmp	.+102    	; 0x2b5e <protocol_execute_realtime+0x1b6>
    2af8:	80 91 29 05 	lds	r24, 0x0529
    2afc:	82 ff       	sbrs	r24, 2
    2afe:	1c c0       	rjmp	.+56     	; 0x2b38 <protocol_execute_realtime+0x190>
    2b00:	80 91 51 05 	lds	r24, 0x0551
    2b04:	88 23       	and	r24, r24
    2b06:	71 f0       	breq	.+28     	; 0x2b24 <protocol_execute_realtime+0x17c>
    2b08:	40 91 52 05 	lds	r20, 0x0552
    2b0c:	50 91 53 05 	lds	r21, 0x0553
    2b10:	60 91 54 05 	lds	r22, 0x0554
    2b14:	70 91 55 05 	lds	r23, 0x0555
    2b18:	0e 94 54 13 	call	0x26a8	; 0x26a8 <spindle_set_state>
    2b1c:	80 ea       	ldi	r24, 0xA0	; 160
    2b1e:	9f e0       	ldi	r25, 0x0F	; 15
    2b20:	0e 94 da 28 	call	0x51b4	; 0x51b4 <delay_ms>
    2b24:	80 91 50 05 	lds	r24, 0x0550
    2b28:	88 23       	and	r24, r24
    2b2a:	31 f0       	breq	.+12     	; 0x2b38 <protocol_execute_realtime+0x190>
    2b2c:	0e 94 dc 13 	call	0x27b8	; 0x27b8 <coolant_set_state>
    2b30:	88 ee       	ldi	r24, 0xE8	; 232
    2b32:	93 e0       	ldi	r25, 0x03	; 3
    2b34:	0e 94 da 28 	call	0x51b4	; 0x51b4 <delay_ms>
    2b38:	0e 94 bb 24 	call	0x4976	; 0x4976 <plan_get_current_block>
    2b3c:	89 2b       	or	r24, r25
    2b3e:	59 f0       	breq	.+22     	; 0x2b56 <protocol_execute_realtime+0x1ae>
    2b40:	80 91 29 05 	lds	r24, 0x0529
    2b44:	83 fd       	sbrc	r24, 3
    2b46:	07 c0       	rjmp	.+14     	; 0x2b56 <protocol_execute_realtime+0x1ae>
    2b48:	00 93 28 05 	sts	0x0528, r16
    2b4c:	0e 94 bc 19 	call	0x3378	; 0x3378 <st_prep_buffer>
    2b50:	0e 94 96 16 	call	0x2d2c	; 0x2d2c <st_wake_up>
    2b54:	02 c0       	rjmp	.+4      	; 0x2b5a <protocol_execute_realtime+0x1b2>
    2b56:	10 92 28 05 	sts	0x0528, r1
    2b5a:	10 92 29 05 	sts	0x0529, r1
    2b5e:	9f b7       	in	r25, 0x3f	; 63
    2b60:	f8 94       	cli
    2b62:	80 91 45 05 	lds	r24, 0x0545
    2b66:	8d 7f       	andi	r24, 0xFD	; 253
    2b68:	80 93 45 05 	sts	0x0545, r24
    2b6c:	9f bf       	out	0x3f, r25	; 63
    2b6e:	c2 ff       	sbrs	r28, 2
    2b70:	22 c0       	rjmp	.+68     	; 0x2bb6 <protocol_execute_realtime+0x20e>
    2b72:	80 91 28 05 	lds	r24, 0x0528
    2b76:	80 73       	andi	r24, 0x30	; 48
    2b78:	91 f0       	breq	.+36     	; 0x2b9e <protocol_execute_realtime+0x1f6>
    2b7a:	80 91 2a 05 	lds	r24, 0x052A
    2b7e:	81 11       	cpse	r24, r1
    2b80:	0e c0       	rjmp	.+28     	; 0x2b9e <protocol_execute_realtime+0x1f6>
    2b82:	80 91 29 05 	lds	r24, 0x0529
    2b86:	82 ff       	sbrs	r24, 2
    2b88:	04 c0       	rjmp	.+8      	; 0x2b92 <protocol_execute_realtime+0x1ea>
    2b8a:	0e 94 4a 13 	call	0x2694	; 0x2694 <spindle_stop>
    2b8e:	0e 94 d7 13 	call	0x27ae	; 0x27ae <coolant_stop>
    2b92:	80 91 29 05 	lds	r24, 0x0529
    2b96:	82 60       	ori	r24, 0x02	; 2
    2b98:	80 93 29 05 	sts	0x0529, r24
    2b9c:	04 c0       	rjmp	.+8      	; 0x2ba6 <protocol_execute_realtime+0x1fe>
    2b9e:	10 92 29 05 	sts	0x0529, r1
    2ba2:	10 92 28 05 	sts	0x0528, r1
    2ba6:	9f b7       	in	r25, 0x3f	; 63
    2ba8:	f8 94       	cli
    2baa:	80 91 45 05 	lds	r24, 0x0545
    2bae:	8b 7f       	andi	r24, 0xFB	; 251
    2bb0:	80 93 45 05 	sts	0x0545, r24
    2bb4:	9f bf       	out	0x3f, r25	; 63
    2bb6:	80 91 28 05 	lds	r24, 0x0528
    2bba:	8c 77       	andi	r24, 0x7C	; 124
    2bbc:	11 f0       	breq	.+4      	; 0x2bc2 <protocol_execute_realtime+0x21a>
    2bbe:	0e 94 bc 19 	call	0x3378	; 0x3378 <st_prep_buffer>
    2bc2:	80 91 28 05 	lds	r24, 0x0528
    2bc6:	80 32       	cpi	r24, 0x20	; 32
    2bc8:	51 f4       	brne	.+20     	; 0x2bde <protocol_execute_realtime+0x236>
    2bca:	80 91 29 05 	lds	r24, 0x0529
    2bce:	81 ff       	sbrs	r24, 1
    2bd0:	06 c0       	rjmp	.+12     	; 0x2bde <protocol_execute_realtime+0x236>
    2bd2:	0e 94 38 32 	call	0x6470	; 0x6470 <system_check_safety_door_ajar>
    2bd6:	81 11       	cpse	r24, r1
    2bd8:	02 c0       	rjmp	.+4      	; 0x2bde <protocol_execute_realtime+0x236>
    2bda:	10 93 28 05 	sts	0x0528, r17
    2bde:	80 91 29 05 	lds	r24, 0x0529
    2be2:	81 11       	cpse	r24, r1
    2be4:	ee ce       	rjmp	.-548    	; 0x29c2 <protocol_execute_realtime+0x1a>
    2be6:	df 91       	pop	r29
    2be8:	cf 91       	pop	r28
    2bea:	1f 91       	pop	r17
    2bec:	0f 91       	pop	r16
    2bee:	ff 90       	pop	r15
    2bf0:	ef 90       	pop	r14
    2bf2:	08 95       	ret

00002bf4 <protocol_auto_cycle_start>:
    2bf4:	9f b7       	in	r25, 0x3f	; 63
    2bf6:	f8 94       	cli
    2bf8:	80 91 45 05 	lds	r24, 0x0545
    2bfc:	82 60       	ori	r24, 0x02	; 2
    2bfe:	80 93 45 05 	sts	0x0545, r24
    2c02:	9f bf       	out	0x3f, r25	; 63
    2c04:	08 95       	ret

00002c06 <protocol_main_loop>:
    2c06:	cf 93       	push	r28
    2c08:	df 93       	push	r29
    2c0a:	0e 94 eb 2d 	call	0x5bd6	; 0x5bd6 <report_init_message>
    2c0e:	80 91 28 05 	lds	r24, 0x0528
    2c12:	81 30       	cpi	r24, 0x01	; 1
    2c14:	21 f4       	brne	.+8      	; 0x2c1e <protocol_main_loop+0x18>
    2c16:	82 e0       	ldi	r24, 0x02	; 2
    2c18:	0e 94 bc 2d 	call	0x5b78	; 0x5b78 <report_feedback_message>
    2c1c:	2f c0       	rjmp	.+94     	; 0x2c7c <protocol_main_loop+0x76>
    2c1e:	0e 94 38 32 	call	0x6470	; 0x6470 <system_check_safety_door_ajar>
    2c22:	88 23       	and	r24, r24
    2c24:	41 f0       	breq	.+16     	; 0x2c36 <protocol_main_loop+0x30>
    2c26:	80 91 45 05 	lds	r24, 0x0545
    2c2a:	80 62       	ori	r24, 0x20	; 32
    2c2c:	80 93 45 05 	sts	0x0545, r24
    2c30:	0e 94 d4 14 	call	0x29a8	; 0x29a8 <protocol_execute_realtime>
    2c34:	02 c0       	rjmp	.+4      	; 0x2c3a <protocol_main_loop+0x34>
    2c36:	10 92 28 05 	sts	0x0528, r1
    2c3a:	84 e0       	ldi	r24, 0x04	; 4
    2c3c:	91 e0       	ldi	r25, 0x01	; 1
    2c3e:	0e 94 3a 32 	call	0x6474	; 0x6474 <system_execute_startup>
    2c42:	1c c0       	rjmp	.+56     	; 0x2c7c <protocol_main_loop+0x76>
    2c44:	8d 30       	cpi	r24, 0x0D	; 13
    2c46:	79 f0       	breq	.+30     	; 0x2c66 <protocol_main_loop+0x60>
    2c48:	dd 23       	and	r29, r29
    2c4a:	99 f1       	breq	.+102    	; 0x2cb2 <protocol_main_loop+0xac>
    2c4c:	89 32       	cpi	r24, 0x29	; 41
    2c4e:	21 f4       	brne	.+8      	; 0x2c58 <protocol_main_loop+0x52>
    2c50:	d1 30       	cpi	r29, 0x01	; 1
    2c52:	09 f0       	breq	.+2      	; 0x2c56 <protocol_main_loop+0x50>
    2c54:	4c c0       	rjmp	.+152    	; 0x2cee <protocol_main_loop+0xe8>
    2c56:	d0 e0       	ldi	r29, 0x00	; 0
    2c58:	0e 94 5d 14 	call	0x28ba	; 0x28ba <serial_read>
    2c5c:	8f 3f       	cpi	r24, 0xFF	; 255
    2c5e:	09 f4       	brne	.+2      	; 0x2c62 <protocol_main_loop+0x5c>
    2c60:	48 c0       	rjmp	.+144    	; 0x2cf2 <protocol_main_loop+0xec>
    2c62:	8a 30       	cpi	r24, 0x0A	; 10
    2c64:	79 f7       	brne	.-34     	; 0x2c44 <protocol_main_loop+0x3e>
    2c66:	ec 2f       	mov	r30, r28
    2c68:	f0 e0       	ldi	r31, 0x00	; 0
    2c6a:	ec 5f       	subi	r30, 0xFC	; 252
    2c6c:	fe 4f       	sbci	r31, 0xFE	; 254
    2c6e:	10 82       	st	Z, r1
    2c70:	0e 94 d4 14 	call	0x29a8	; 0x29a8 <protocol_execute_realtime>
    2c74:	80 91 27 05 	lds	r24, 0x0527
    2c78:	88 23       	and	r24, r24
    2c7a:	11 f0       	breq	.+4      	; 0x2c80 <protocol_main_loop+0x7a>
    2c7c:	c0 e0       	ldi	r28, 0x00	; 0
    2c7e:	eb cf       	rjmp	.-42     	; 0x2c56 <protocol_main_loop+0x50>
    2c80:	80 91 04 01 	lds	r24, 0x0104
    2c84:	81 11       	cpse	r24, r1
    2c86:	03 c0       	rjmp	.+6      	; 0x2c8e <protocol_main_loop+0x88>
    2c88:	0e 94 44 2d 	call	0x5a88	; 0x5a88 <report_status_message>
    2c8c:	f7 cf       	rjmp	.-18     	; 0x2c7c <protocol_main_loop+0x76>
    2c8e:	84 32       	cpi	r24, 0x24	; 36
    2c90:	29 f4       	brne	.+10     	; 0x2c9c <protocol_main_loop+0x96>
    2c92:	84 e0       	ldi	r24, 0x04	; 4
    2c94:	91 e0       	ldi	r25, 0x01	; 1
    2c96:	0e 94 59 32 	call	0x64b2	; 0x64b2 <system_execute_line>
    2c9a:	f6 cf       	rjmp	.-20     	; 0x2c88 <protocol_main_loop+0x82>
    2c9c:	80 91 28 05 	lds	r24, 0x0528
    2ca0:	81 30       	cpi	r24, 0x01	; 1
    2ca2:	11 f4       	brne	.+4      	; 0x2ca8 <protocol_main_loop+0xa2>
    2ca4:	89 e0       	ldi	r24, 0x09	; 9
    2ca6:	f0 cf       	rjmp	.-32     	; 0x2c88 <protocol_main_loop+0x82>
    2ca8:	84 e0       	ldi	r24, 0x04	; 4
    2caa:	91 e0       	ldi	r25, 0x01	; 1
    2cac:	0e 94 15 09 	call	0x122a	; 0x122a <gc_execute_line>
    2cb0:	eb cf       	rjmp	.-42     	; 0x2c88 <protocol_main_loop+0x82>
    2cb2:	81 32       	cpi	r24, 0x21	; 33
    2cb4:	88 f2       	brcs	.-94     	; 0x2c58 <protocol_main_loop+0x52>
    2cb6:	8f 32       	cpi	r24, 0x2F	; 47
    2cb8:	79 f2       	breq	.-98     	; 0x2c58 <protocol_main_loop+0x52>
    2cba:	88 32       	cpi	r24, 0x28	; 40
    2cbc:	b1 f0       	breq	.+44     	; 0x2cea <protocol_main_loop+0xe4>
    2cbe:	8b 33       	cpi	r24, 0x3B	; 59
    2cc0:	b1 f0       	breq	.+44     	; 0x2cee <protocol_main_loop+0xe8>
    2cc2:	cf 34       	cpi	r28, 0x4F	; 79
    2cc4:	28 f0       	brcs	.+10     	; 0x2cd0 <protocol_main_loop+0xca>
    2cc6:	8b e0       	ldi	r24, 0x0B	; 11
    2cc8:	0e 94 44 2d 	call	0x5a88	; 0x5a88 <report_status_message>
    2ccc:	c0 e0       	ldi	r28, 0x00	; 0
    2cce:	c4 cf       	rjmp	.-120    	; 0x2c58 <protocol_main_loop+0x52>
    2cd0:	2c 2f       	mov	r18, r28
    2cd2:	30 e0       	ldi	r19, 0x00	; 0
    2cd4:	cf 5f       	subi	r28, 0xFF	; 255
    2cd6:	9f e9       	ldi	r25, 0x9F	; 159
    2cd8:	98 0f       	add	r25, r24
    2cda:	f9 01       	movw	r30, r18
    2cdc:	ec 5f       	subi	r30, 0xFC	; 252
    2cde:	fe 4f       	sbci	r31, 0xFE	; 254
    2ce0:	9a 31       	cpi	r25, 0x1A	; 26
    2ce2:	08 f4       	brcc	.+2      	; 0x2ce6 <protocol_main_loop+0xe0>
    2ce4:	80 52       	subi	r24, 0x20	; 32
    2ce6:	80 83       	st	Z, r24
    2ce8:	b7 cf       	rjmp	.-146    	; 0x2c58 <protocol_main_loop+0x52>
    2cea:	d1 e0       	ldi	r29, 0x01	; 1
    2cec:	b5 cf       	rjmp	.-150    	; 0x2c58 <protocol_main_loop+0x52>
    2cee:	d2 e0       	ldi	r29, 0x02	; 2
    2cf0:	b3 cf       	rjmp	.-154    	; 0x2c58 <protocol_main_loop+0x52>
    2cf2:	0e 94 fa 15 	call	0x2bf4	; 0x2bf4 <protocol_auto_cycle_start>
    2cf6:	0e 94 d4 14 	call	0x29a8	; 0x29a8 <protocol_execute_realtime>
    2cfa:	80 91 27 05 	lds	r24, 0x0527
    2cfe:	88 23       	and	r24, r24
    2d00:	09 f4       	brne	.+2      	; 0x2d04 <protocol_main_loop+0xfe>
    2d02:	aa cf       	rjmp	.-172    	; 0x2c58 <protocol_main_loop+0x52>
    2d04:	df 91       	pop	r29
    2d06:	cf 91       	pop	r28
    2d08:	08 95       	ret

00002d0a <protocol_buffer_synchronize>:
    2d0a:	0e 94 fa 15 	call	0x2bf4	; 0x2bf4 <protocol_auto_cycle_start>
    2d0e:	0e 94 d4 14 	call	0x29a8	; 0x29a8 <protocol_execute_realtime>
    2d12:	80 91 27 05 	lds	r24, 0x0527
    2d16:	81 11       	cpse	r24, r1
    2d18:	08 c0       	rjmp	.+16     	; 0x2d2a <protocol_buffer_synchronize+0x20>
    2d1a:	0e 94 bb 24 	call	0x4976	; 0x4976 <plan_get_current_block>
    2d1e:	89 2b       	or	r24, r25
    2d20:	b1 f7       	brne	.-20     	; 0x2d0e <protocol_buffer_synchronize+0x4>
    2d22:	80 91 28 05 	lds	r24, 0x0528
    2d26:	88 30       	cpi	r24, 0x08	; 8
    2d28:	91 f3       	breq	.-28     	; 0x2d0e <protocol_buffer_synchronize+0x4>
    2d2a:	08 95       	ret

00002d2c <st_wake_up>:
    2d2c:	80 91 bd 06 	lds	r24, 0x06BD
    2d30:	82 ff       	sbrs	r24, 2
    2d32:	02 c0       	rjmp	.+4      	; 0x2d38 <st_wake_up+0xc>
    2d34:	28 9a       	sbi	0x05, 0	; 5
    2d36:	01 c0       	rjmp	.+2      	; 0x2d3a <st_wake_up+0xe>
    2d38:	28 98       	cbi	0x05, 0	; 5
    2d3a:	80 91 28 05 	lds	r24, 0x0528
    2d3e:	8c 70       	andi	r24, 0x0C	; 12
    2d40:	a1 f0       	breq	.+40     	; 0x2d6a <st_wake_up+0x3e>
    2d42:	80 91 84 01 	lds	r24, 0x0184
    2d46:	80 93 98 01 	sts	0x0198, r24
    2d4a:	80 91 85 01 	lds	r24, 0x0185
    2d4e:	80 93 97 01 	sts	0x0197, r24
    2d52:	80 91 b0 06 	lds	r24, 0x06B0
    2d56:	88 0f       	add	r24, r24
    2d58:	84 50       	subi	r24, 0x04	; 4
    2d5a:	81 95       	neg	r24
    2d5c:	80 93 96 01 	sts	0x0196, r24
    2d60:	80 91 6f 00 	lds	r24, 0x006F
    2d64:	82 60       	ori	r24, 0x02	; 2
    2d66:	80 93 6f 00 	sts	0x006F, r24
    2d6a:	08 95       	ret

00002d6c <st_go_idle>:
    2d6c:	80 91 6f 00 	lds	r24, 0x006F
    2d70:	8d 7f       	andi	r24, 0xFD	; 253
    2d72:	80 93 6f 00 	sts	0x006F, r24
    2d76:	80 91 81 00 	lds	r24, 0x0081
    2d7a:	88 7f       	andi	r24, 0xF8	; 248
    2d7c:	81 60       	ori	r24, 0x01	; 1
    2d7e:	80 93 81 00 	sts	0x0081, r24
    2d82:	10 92 83 01 	sts	0x0183, r1
    2d86:	80 91 b3 06 	lds	r24, 0x06B3
    2d8a:	8f 3f       	cpi	r24, 0xFF	; 255
    2d8c:	21 f4       	brne	.+8      	; 0x2d96 <st_go_idle+0x2a>
    2d8e:	90 91 47 05 	lds	r25, 0x0547
    2d92:	99 23       	and	r25, r25
    2d94:	49 f0       	breq	.+18     	; 0x2da8 <st_go_idle+0x3c>
    2d96:	90 91 28 05 	lds	r25, 0x0528
    2d9a:	94 30       	cpi	r25, 0x04	; 4
    2d9c:	29 f0       	breq	.+10     	; 0x2da8 <st_go_idle+0x3c>
    2d9e:	90 e0       	ldi	r25, 0x00	; 0
    2da0:	0e 94 da 28 	call	0x51b4	; 0x51b4 <delay_ms>
    2da4:	81 e0       	ldi	r24, 0x01	; 1
    2da6:	01 c0       	rjmp	.+2      	; 0x2daa <st_go_idle+0x3e>
    2da8:	80 e0       	ldi	r24, 0x00	; 0
    2daa:	90 91 bd 06 	lds	r25, 0x06BD
    2dae:	92 ff       	sbrs	r25, 2
    2db0:	02 c0       	rjmp	.+4      	; 0x2db6 <st_go_idle+0x4a>
    2db2:	91 e0       	ldi	r25, 0x01	; 1
    2db4:	89 27       	eor	r24, r25
    2db6:	88 23       	and	r24, r24
    2db8:	11 f0       	breq	.+4      	; 0x2dbe <st_go_idle+0x52>
    2dba:	28 9a       	sbi	0x05, 0	; 5
    2dbc:	08 95       	ret
    2dbe:	28 98       	cbi	0x05, 0	; 5
    2dc0:	08 95       	ret

00002dc2 <__vector_11>:
    2dc2:	1f 92       	push	r1
    2dc4:	0f 92       	push	r0
    2dc6:	0f b6       	in	r0, 0x3f	; 63
    2dc8:	0f 92       	push	r0
    2dca:	11 24       	eor	r1, r1
    2dcc:	2f 93       	push	r18
    2dce:	3f 93       	push	r19
    2dd0:	4f 93       	push	r20
    2dd2:	5f 93       	push	r21
    2dd4:	6f 93       	push	r22
    2dd6:	7f 93       	push	r23
    2dd8:	8f 93       	push	r24
    2dda:	9f 93       	push	r25
    2ddc:	af 93       	push	r26
    2dde:	bf 93       	push	r27
    2de0:	cf 93       	push	r28
    2de2:	df 93       	push	r29
    2de4:	ef 93       	push	r30
    2de6:	ff 93       	push	r31
    2de8:	80 91 83 01 	lds	r24, 0x0183
    2dec:	81 11       	cpse	r24, r1
    2dee:	ef c1       	rjmp	.+990    	; 0x31ce <__vector_11+0x40c>
    2df0:	9b b1       	in	r25, 0x0b	; 11
    2df2:	80 91 98 01 	lds	r24, 0x0198
    2df6:	80 7e       	andi	r24, 0xE0	; 224
    2df8:	9f 71       	andi	r25, 0x1F	; 31
    2dfa:	89 2b       	or	r24, r25
    2dfc:	8b b9       	out	0x0b, r24	; 11
    2dfe:	8b b1       	in	r24, 0x0b	; 11
    2e00:	83 7e       	andi	r24, 0xE3	; 227
    2e02:	90 91 97 01 	lds	r25, 0x0197
    2e06:	89 2b       	or	r24, r25
    2e08:	8b b9       	out	0x0b, r24	; 11
    2e0a:	80 91 96 01 	lds	r24, 0x0196
    2e0e:	86 bd       	out	0x26, r24	; 38
    2e10:	82 e0       	ldi	r24, 0x02	; 2
    2e12:	85 bd       	out	0x25, r24	; 37
    2e14:	81 e0       	ldi	r24, 0x01	; 1
    2e16:	80 93 83 01 	sts	0x0183, r24
    2e1a:	78 94       	sei
    2e1c:	80 91 aa 01 	lds	r24, 0x01AA
    2e20:	90 91 ab 01 	lds	r25, 0x01AB
    2e24:	89 2b       	or	r24, r25
    2e26:	09 f0       	breq	.+2      	; 0x2e2a <__vector_11+0x68>
    2e28:	a4 c0       	rjmp	.+328    	; 0x2f72 <__vector_11+0x1b0>
    2e2a:	80 91 88 01 	lds	r24, 0x0188
    2e2e:	90 91 87 01 	lds	r25, 0x0187
    2e32:	98 17       	cp	r25, r24
    2e34:	09 f4       	brne	.+2      	; 0x2e38 <__vector_11+0x76>
    2e36:	92 c0       	rjmp	.+292    	; 0x2f5c <__vector_11+0x19a>
    2e38:	e0 91 88 01 	lds	r30, 0x0188
    2e3c:	86 e0       	ldi	r24, 0x06	; 6
    2e3e:	e8 9f       	mul	r30, r24
    2e40:	f0 01       	movw	r30, r0
    2e42:	11 24       	eor	r1, r1
    2e44:	e4 55       	subi	r30, 0x54	; 84
    2e46:	fe 4f       	sbci	r31, 0xFE	; 254
    2e48:	f0 93 ab 01 	sts	0x01AB, r31
    2e4c:	e0 93 aa 01 	sts	0x01AA, r30
    2e50:	83 81       	ldd	r24, Z+3	; 0x03
    2e52:	94 81       	ldd	r25, Z+4	; 0x04
    2e54:	90 93 89 00 	sts	0x0089, r25
    2e58:	80 93 88 00 	sts	0x0088, r24
    2e5c:	80 81       	ld	r24, Z
    2e5e:	91 81       	ldd	r25, Z+1	; 0x01
    2e60:	90 93 a6 01 	sts	0x01A6, r25
    2e64:	80 93 a5 01 	sts	0x01A5, r24
    2e68:	a2 81       	ldd	r26, Z+2	; 0x02
    2e6a:	80 91 a7 01 	lds	r24, 0x01A7
    2e6e:	8a 17       	cp	r24, r26
    2e70:	71 f1       	breq	.+92     	; 0x2ece <__vector_11+0x10c>
    2e72:	a0 93 a7 01 	sts	0x01A7, r26
    2e76:	81 e1       	ldi	r24, 0x11	; 17
    2e78:	a8 9f       	mul	r26, r24
    2e7a:	d0 01       	movw	r26, r0
    2e7c:	11 24       	eor	r1, r1
    2e7e:	a0 53       	subi	r26, 0x30	; 48
    2e80:	be 4f       	sbci	r27, 0xFE	; 254
    2e82:	b0 93 a9 01 	sts	0x01A9, r27
    2e86:	a0 93 a8 01 	sts	0x01A8, r26
    2e8a:	1d 96       	adiw	r26, 0x0d	; 13
    2e8c:	8d 91       	ld	r24, X+
    2e8e:	9d 91       	ld	r25, X+
    2e90:	0d 90       	ld	r0, X+
    2e92:	bc 91       	ld	r27, X
    2e94:	a0 2d       	mov	r26, r0
    2e96:	b6 95       	lsr	r27
    2e98:	a7 95       	ror	r26
    2e9a:	97 95       	ror	r25
    2e9c:	87 95       	ror	r24
    2e9e:	80 93 91 01 	sts	0x0191, r24
    2ea2:	90 93 92 01 	sts	0x0192, r25
    2ea6:	a0 93 93 01 	sts	0x0193, r26
    2eaa:	b0 93 94 01 	sts	0x0194, r27
    2eae:	80 93 8d 01 	sts	0x018D, r24
    2eb2:	90 93 8e 01 	sts	0x018E, r25
    2eb6:	a0 93 8f 01 	sts	0x018F, r26
    2eba:	b0 93 90 01 	sts	0x0190, r27
    2ebe:	80 93 89 01 	sts	0x0189, r24
    2ec2:	90 93 8a 01 	sts	0x018A, r25
    2ec6:	a0 93 8b 01 	sts	0x018B, r26
    2eca:	b0 93 8c 01 	sts	0x018C, r27
    2ece:	c0 91 a8 01 	lds	r28, 0x01A8
    2ed2:	d0 91 a9 01 	lds	r29, 0x01A9
    2ed6:	80 91 84 01 	lds	r24, 0x0184
    2eda:	98 81       	ld	r25, Y
    2edc:	89 27       	eor	r24, r25
    2ede:	80 93 98 01 	sts	0x0198, r24
    2ee2:	25 81       	ldd	r18, Z+5	; 0x05
    2ee4:	89 81       	ldd	r24, Y+1	; 0x01
    2ee6:	9a 81       	ldd	r25, Y+2	; 0x02
    2ee8:	ab 81       	ldd	r26, Y+3	; 0x03
    2eea:	bc 81       	ldd	r27, Y+4	; 0x04
    2eec:	02 2e       	mov	r0, r18
    2eee:	04 c0       	rjmp	.+8      	; 0x2ef8 <__vector_11+0x136>
    2ef0:	b6 95       	lsr	r27
    2ef2:	a7 95       	ror	r26
    2ef4:	97 95       	ror	r25
    2ef6:	87 95       	ror	r24
    2ef8:	0a 94       	dec	r0
    2efa:	d2 f7       	brpl	.-12     	; 0x2ef0 <__vector_11+0x12e>
    2efc:	80 93 99 01 	sts	0x0199, r24
    2f00:	90 93 9a 01 	sts	0x019A, r25
    2f04:	a0 93 9b 01 	sts	0x019B, r26
    2f08:	b0 93 9c 01 	sts	0x019C, r27
    2f0c:	8d 81       	ldd	r24, Y+5	; 0x05
    2f0e:	9e 81       	ldd	r25, Y+6	; 0x06
    2f10:	af 81       	ldd	r26, Y+7	; 0x07
    2f12:	b8 85       	ldd	r27, Y+8	; 0x08
    2f14:	02 2e       	mov	r0, r18
    2f16:	04 c0       	rjmp	.+8      	; 0x2f20 <__vector_11+0x15e>
    2f18:	b6 95       	lsr	r27
    2f1a:	a7 95       	ror	r26
    2f1c:	97 95       	ror	r25
    2f1e:	87 95       	ror	r24
    2f20:	0a 94       	dec	r0
    2f22:	d2 f7       	brpl	.-12     	; 0x2f18 <__vector_11+0x156>
    2f24:	80 93 9d 01 	sts	0x019D, r24
    2f28:	90 93 9e 01 	sts	0x019E, r25
    2f2c:	a0 93 9f 01 	sts	0x019F, r26
    2f30:	b0 93 a0 01 	sts	0x01A0, r27
    2f34:	89 85       	ldd	r24, Y+9	; 0x09
    2f36:	9a 85       	ldd	r25, Y+10	; 0x0a
    2f38:	ab 85       	ldd	r26, Y+11	; 0x0b
    2f3a:	bc 85       	ldd	r27, Y+12	; 0x0c
    2f3c:	04 c0       	rjmp	.+8      	; 0x2f46 <__vector_11+0x184>
    2f3e:	b6 95       	lsr	r27
    2f40:	a7 95       	ror	r26
    2f42:	97 95       	ror	r25
    2f44:	87 95       	ror	r24
    2f46:	2a 95       	dec	r18
    2f48:	d2 f7       	brpl	.-12     	; 0x2f3e <__vector_11+0x17c>
    2f4a:	80 93 a1 01 	sts	0x01A1, r24
    2f4e:	90 93 a2 01 	sts	0x01A2, r25
    2f52:	a0 93 a3 01 	sts	0x01A3, r26
    2f56:	b0 93 a4 01 	sts	0x01A4, r27
    2f5a:	0b c0       	rjmp	.+22     	; 0x2f72 <__vector_11+0x1b0>
    2f5c:	0e 94 b6 16 	call	0x2d6c	; 0x2d6c <st_go_idle>
    2f60:	9f b7       	in	r25, 0x3f	; 63
    2f62:	f8 94       	cli
    2f64:	80 91 45 05 	lds	r24, 0x0545
    2f68:	84 60       	ori	r24, 0x04	; 4
    2f6a:	80 93 45 05 	sts	0x0545, r24
    2f6e:	9f bf       	out	0x3f, r25	; 63
    2f70:	2e c1       	rjmp	.+604    	; 0x31ce <__vector_11+0x40c>
    2f72:	0e 94 2b 2d 	call	0x5a56	; 0x5a56 <probe_state_monitor>
    2f76:	10 92 97 01 	sts	0x0197, r1
    2f7a:	80 91 99 01 	lds	r24, 0x0199
    2f7e:	90 91 9a 01 	lds	r25, 0x019A
    2f82:	a0 91 9b 01 	lds	r26, 0x019B
    2f86:	b0 91 9c 01 	lds	r27, 0x019C
    2f8a:	40 91 89 01 	lds	r20, 0x0189
    2f8e:	50 91 8a 01 	lds	r21, 0x018A
    2f92:	60 91 8b 01 	lds	r22, 0x018B
    2f96:	70 91 8c 01 	lds	r23, 0x018C
    2f9a:	84 0f       	add	r24, r20
    2f9c:	95 1f       	adc	r25, r21
    2f9e:	a6 1f       	adc	r26, r22
    2fa0:	b7 1f       	adc	r27, r23
    2fa2:	80 93 89 01 	sts	0x0189, r24
    2fa6:	90 93 8a 01 	sts	0x018A, r25
    2faa:	a0 93 8b 01 	sts	0x018B, r26
    2fae:	b0 93 8c 01 	sts	0x018C, r27
    2fb2:	e0 91 a8 01 	lds	r30, 0x01A8
    2fb6:	f0 91 a9 01 	lds	r31, 0x01A9
    2fba:	45 85       	ldd	r20, Z+13	; 0x0d
    2fbc:	56 85       	ldd	r21, Z+14	; 0x0e
    2fbe:	67 85       	ldd	r22, Z+15	; 0x0f
    2fc0:	70 89       	ldd	r23, Z+16	; 0x10
    2fc2:	48 17       	cp	r20, r24
    2fc4:	59 07       	cpc	r21, r25
    2fc6:	6a 07       	cpc	r22, r26
    2fc8:	7b 07       	cpc	r23, r27
    2fca:	68 f5       	brcc	.+90     	; 0x3026 <__vector_11+0x264>
    2fcc:	24 e0       	ldi	r18, 0x04	; 4
    2fce:	20 93 97 01 	sts	0x0197, r18
    2fd2:	45 85       	ldd	r20, Z+13	; 0x0d
    2fd4:	56 85       	ldd	r21, Z+14	; 0x0e
    2fd6:	67 85       	ldd	r22, Z+15	; 0x0f
    2fd8:	70 89       	ldd	r23, Z+16	; 0x10
    2fda:	84 1b       	sub	r24, r20
    2fdc:	95 0b       	sbc	r25, r21
    2fde:	a6 0b       	sbc	r26, r22
    2fe0:	b7 0b       	sbc	r27, r23
    2fe2:	80 93 89 01 	sts	0x0189, r24
    2fe6:	90 93 8a 01 	sts	0x018A, r25
    2fea:	a0 93 8b 01 	sts	0x018B, r26
    2fee:	b0 93 8c 01 	sts	0x018C, r27
    2ff2:	20 81       	ld	r18, Z
    2ff4:	80 91 2b 05 	lds	r24, 0x052B
    2ff8:	90 91 2c 05 	lds	r25, 0x052C
    2ffc:	a0 91 2d 05 	lds	r26, 0x052D
    3000:	b0 91 2e 05 	lds	r27, 0x052E
    3004:	25 ff       	sbrs	r18, 5
    3006:	04 c0       	rjmp	.+8      	; 0x3010 <__vector_11+0x24e>
    3008:	01 97       	sbiw	r24, 0x01	; 1
    300a:	a1 09       	sbc	r26, r1
    300c:	b1 09       	sbc	r27, r1
    300e:	03 c0       	rjmp	.+6      	; 0x3016 <__vector_11+0x254>
    3010:	01 96       	adiw	r24, 0x01	; 1
    3012:	a1 1d       	adc	r26, r1
    3014:	b1 1d       	adc	r27, r1
    3016:	80 93 2b 05 	sts	0x052B, r24
    301a:	90 93 2c 05 	sts	0x052C, r25
    301e:	a0 93 2d 05 	sts	0x052D, r26
    3022:	b0 93 2e 05 	sts	0x052E, r27
    3026:	80 91 9d 01 	lds	r24, 0x019D
    302a:	90 91 9e 01 	lds	r25, 0x019E
    302e:	a0 91 9f 01 	lds	r26, 0x019F
    3032:	b0 91 a0 01 	lds	r27, 0x01A0
    3036:	40 91 8d 01 	lds	r20, 0x018D
    303a:	50 91 8e 01 	lds	r21, 0x018E
    303e:	60 91 8f 01 	lds	r22, 0x018F
    3042:	70 91 90 01 	lds	r23, 0x0190
    3046:	84 0f       	add	r24, r20
    3048:	95 1f       	adc	r25, r21
    304a:	a6 1f       	adc	r26, r22
    304c:	b7 1f       	adc	r27, r23
    304e:	80 93 8d 01 	sts	0x018D, r24
    3052:	90 93 8e 01 	sts	0x018E, r25
    3056:	a0 93 8f 01 	sts	0x018F, r26
    305a:	b0 93 90 01 	sts	0x0190, r27
    305e:	45 85       	ldd	r20, Z+13	; 0x0d
    3060:	56 85       	ldd	r21, Z+14	; 0x0e
    3062:	67 85       	ldd	r22, Z+15	; 0x0f
    3064:	70 89       	ldd	r23, Z+16	; 0x10
    3066:	48 17       	cp	r20, r24
    3068:	59 07       	cpc	r21, r25
    306a:	6a 07       	cpc	r22, r26
    306c:	7b 07       	cpc	r23, r27
    306e:	78 f5       	brcc	.+94     	; 0x30ce <__vector_11+0x30c>
    3070:	20 91 97 01 	lds	r18, 0x0197
    3074:	28 60       	ori	r18, 0x08	; 8
    3076:	20 93 97 01 	sts	0x0197, r18
    307a:	45 85       	ldd	r20, Z+13	; 0x0d
    307c:	56 85       	ldd	r21, Z+14	; 0x0e
    307e:	67 85       	ldd	r22, Z+15	; 0x0f
    3080:	70 89       	ldd	r23, Z+16	; 0x10
    3082:	84 1b       	sub	r24, r20
    3084:	95 0b       	sbc	r25, r21
    3086:	a6 0b       	sbc	r26, r22
    3088:	b7 0b       	sbc	r27, r23
    308a:	80 93 8d 01 	sts	0x018D, r24
    308e:	90 93 8e 01 	sts	0x018E, r25
    3092:	a0 93 8f 01 	sts	0x018F, r26
    3096:	b0 93 90 01 	sts	0x0190, r27
    309a:	20 81       	ld	r18, Z
    309c:	80 91 2f 05 	lds	r24, 0x052F
    30a0:	90 91 30 05 	lds	r25, 0x0530
    30a4:	a0 91 31 05 	lds	r26, 0x0531
    30a8:	b0 91 32 05 	lds	r27, 0x0532
    30ac:	26 ff       	sbrs	r18, 6
    30ae:	04 c0       	rjmp	.+8      	; 0x30b8 <__vector_11+0x2f6>
    30b0:	01 97       	sbiw	r24, 0x01	; 1
    30b2:	a1 09       	sbc	r26, r1
    30b4:	b1 09       	sbc	r27, r1
    30b6:	03 c0       	rjmp	.+6      	; 0x30be <__vector_11+0x2fc>
    30b8:	01 96       	adiw	r24, 0x01	; 1
    30ba:	a1 1d       	adc	r26, r1
    30bc:	b1 1d       	adc	r27, r1
    30be:	80 93 2f 05 	sts	0x052F, r24
    30c2:	90 93 30 05 	sts	0x0530, r25
    30c6:	a0 93 31 05 	sts	0x0531, r26
    30ca:	b0 93 32 05 	sts	0x0532, r27
    30ce:	80 91 a1 01 	lds	r24, 0x01A1
    30d2:	90 91 a2 01 	lds	r25, 0x01A2
    30d6:	a0 91 a3 01 	lds	r26, 0x01A3
    30da:	b0 91 a4 01 	lds	r27, 0x01A4
    30de:	40 91 91 01 	lds	r20, 0x0191
    30e2:	50 91 92 01 	lds	r21, 0x0192
    30e6:	60 91 93 01 	lds	r22, 0x0193
    30ea:	70 91 94 01 	lds	r23, 0x0194
    30ee:	84 0f       	add	r24, r20
    30f0:	95 1f       	adc	r25, r21
    30f2:	a6 1f       	adc	r26, r22
    30f4:	b7 1f       	adc	r27, r23
    30f6:	80 93 91 01 	sts	0x0191, r24
    30fa:	90 93 92 01 	sts	0x0192, r25
    30fe:	a0 93 93 01 	sts	0x0193, r26
    3102:	b0 93 94 01 	sts	0x0194, r27
    3106:	45 85       	ldd	r20, Z+13	; 0x0d
    3108:	56 85       	ldd	r21, Z+14	; 0x0e
    310a:	67 85       	ldd	r22, Z+15	; 0x0f
    310c:	70 89       	ldd	r23, Z+16	; 0x10
    310e:	48 17       	cp	r20, r24
    3110:	59 07       	cpc	r21, r25
    3112:	6a 07       	cpc	r22, r26
    3114:	7b 07       	cpc	r23, r27
    3116:	78 f5       	brcc	.+94     	; 0x3176 <__vector_11+0x3b4>
    3118:	20 91 97 01 	lds	r18, 0x0197
    311c:	20 61       	ori	r18, 0x10	; 16
    311e:	20 93 97 01 	sts	0x0197, r18
    3122:	45 85       	ldd	r20, Z+13	; 0x0d
    3124:	56 85       	ldd	r21, Z+14	; 0x0e
    3126:	67 85       	ldd	r22, Z+15	; 0x0f
    3128:	70 89       	ldd	r23, Z+16	; 0x10
    312a:	84 1b       	sub	r24, r20
    312c:	95 0b       	sbc	r25, r21
    312e:	a6 0b       	sbc	r26, r22
    3130:	b7 0b       	sbc	r27, r23
    3132:	80 93 91 01 	sts	0x0191, r24
    3136:	90 93 92 01 	sts	0x0192, r25
    313a:	a0 93 93 01 	sts	0x0193, r26
    313e:	b0 93 94 01 	sts	0x0194, r27
    3142:	20 81       	ld	r18, Z
    3144:	80 91 33 05 	lds	r24, 0x0533
    3148:	90 91 34 05 	lds	r25, 0x0534
    314c:	a0 91 35 05 	lds	r26, 0x0535
    3150:	b0 91 36 05 	lds	r27, 0x0536
    3154:	27 ff       	sbrs	r18, 7
    3156:	04 c0       	rjmp	.+8      	; 0x3160 <__vector_11+0x39e>
    3158:	01 97       	sbiw	r24, 0x01	; 1
    315a:	a1 09       	sbc	r26, r1
    315c:	b1 09       	sbc	r27, r1
    315e:	03 c0       	rjmp	.+6      	; 0x3166 <__vector_11+0x3a4>
    3160:	01 96       	adiw	r24, 0x01	; 1
    3162:	a1 1d       	adc	r26, r1
    3164:	b1 1d       	adc	r27, r1
    3166:	80 93 33 05 	sts	0x0533, r24
    316a:	90 93 34 05 	sts	0x0534, r25
    316e:	a0 93 35 05 	sts	0x0535, r26
    3172:	b0 93 36 05 	sts	0x0536, r27
    3176:	80 91 28 05 	lds	r24, 0x0528
    317a:	84 30       	cpi	r24, 0x04	; 4
    317c:	39 f4       	brne	.+14     	; 0x318c <__vector_11+0x3ca>
    317e:	80 91 44 05 	lds	r24, 0x0544
    3182:	90 91 97 01 	lds	r25, 0x0197
    3186:	89 23       	and	r24, r25
    3188:	80 93 97 01 	sts	0x0197, r24
    318c:	80 91 a5 01 	lds	r24, 0x01A5
    3190:	90 91 a6 01 	lds	r25, 0x01A6
    3194:	01 97       	sbiw	r24, 0x01	; 1
    3196:	90 93 a6 01 	sts	0x01A6, r25
    319a:	80 93 a5 01 	sts	0x01A5, r24
    319e:	89 2b       	or	r24, r25
    31a0:	69 f4       	brne	.+26     	; 0x31bc <__vector_11+0x3fa>
    31a2:	10 92 ab 01 	sts	0x01AB, r1
    31a6:	10 92 aa 01 	sts	0x01AA, r1
    31aa:	80 91 88 01 	lds	r24, 0x0188
    31ae:	8f 5f       	subi	r24, 0xFF	; 255
    31b0:	80 93 88 01 	sts	0x0188, r24
    31b4:	86 30       	cpi	r24, 0x06	; 6
    31b6:	11 f4       	brne	.+4      	; 0x31bc <__vector_11+0x3fa>
    31b8:	10 92 88 01 	sts	0x0188, r1
    31bc:	80 91 85 01 	lds	r24, 0x0185
    31c0:	90 91 97 01 	lds	r25, 0x0197
    31c4:	89 27       	eor	r24, r25
    31c6:	80 93 97 01 	sts	0x0197, r24
    31ca:	10 92 83 01 	sts	0x0183, r1
    31ce:	ff 91       	pop	r31
    31d0:	ef 91       	pop	r30
    31d2:	df 91       	pop	r29
    31d4:	cf 91       	pop	r28
    31d6:	bf 91       	pop	r27
    31d8:	af 91       	pop	r26
    31da:	9f 91       	pop	r25
    31dc:	8f 91       	pop	r24
    31de:	7f 91       	pop	r23
    31e0:	6f 91       	pop	r22
    31e2:	5f 91       	pop	r21
    31e4:	4f 91       	pop	r20
    31e6:	3f 91       	pop	r19
    31e8:	2f 91       	pop	r18
    31ea:	0f 90       	pop	r0
    31ec:	0f be       	out	0x3f, r0	; 63
    31ee:	0f 90       	pop	r0
    31f0:	1f 90       	pop	r1
    31f2:	18 95       	reti

000031f4 <__vector_16>:
    31f4:	1f 92       	push	r1
    31f6:	0f 92       	push	r0
    31f8:	0f b6       	in	r0, 0x3f	; 63
    31fa:	0f 92       	push	r0
    31fc:	11 24       	eor	r1, r1
    31fe:	8f 93       	push	r24
    3200:	9f 93       	push	r25
    3202:	9b b1       	in	r25, 0x0b	; 11
    3204:	80 91 85 01 	lds	r24, 0x0185
    3208:	8c 71       	andi	r24, 0x1C	; 28
    320a:	93 7e       	andi	r25, 0xE3	; 227
    320c:	89 2b       	or	r24, r25
    320e:	8b b9       	out	0x0b, r24	; 11
    3210:	15 bc       	out	0x25, r1	; 37
    3212:	9f 91       	pop	r25
    3214:	8f 91       	pop	r24
    3216:	0f 90       	pop	r0
    3218:	0f be       	out	0x3f, r0	; 63
    321a:	0f 90       	pop	r0
    321c:	1f 90       	pop	r1
    321e:	18 95       	reti

00003220 <st_generate_step_dir_invert_masks>:
    3220:	ff 92       	push	r15
    3222:	0f 93       	push	r16
    3224:	1f 93       	push	r17
    3226:	cf 93       	push	r28
    3228:	df 93       	push	r29
    322a:	10 92 85 01 	sts	0x0185, r1
    322e:	10 92 84 01 	sts	0x0184, r1
    3232:	c0 e0       	ldi	r28, 0x00	; 0
    3234:	d0 e0       	ldi	r29, 0x00	; 0
    3236:	0c 2f       	mov	r16, r28
    3238:	1c 2f       	mov	r17, r28
    323a:	20 91 b1 06 	lds	r18, 0x06B1
    323e:	30 e0       	ldi	r19, 0x00	; 0
    3240:	8c 2f       	mov	r24, r28
    3242:	0c 2e       	mov	r0, r28
    3244:	02 c0       	rjmp	.+4      	; 0x324a <st_generate_step_dir_invert_masks+0x2a>
    3246:	35 95       	asr	r19
    3248:	27 95       	ror	r18
    324a:	0a 94       	dec	r0
    324c:	e2 f7       	brpl	.-8      	; 0x3246 <st_generate_step_dir_invert_masks+0x26>
    324e:	20 ff       	sbrs	r18, 0
    3250:	07 c0       	rjmp	.+14     	; 0x3260 <st_generate_step_dir_invert_masks+0x40>
    3252:	f0 90 85 01 	lds	r15, 0x0185
    3256:	0e 94 5d 23 	call	0x46ba	; 0x46ba <get_step_pin_mask>
    325a:	8f 29       	or	r24, r15
    325c:	80 93 85 01 	sts	0x0185, r24
    3260:	20 91 b2 06 	lds	r18, 0x06B2
    3264:	30 e0       	ldi	r19, 0x00	; 0
    3266:	02 c0       	rjmp	.+4      	; 0x326c <st_generate_step_dir_invert_masks+0x4c>
    3268:	35 95       	asr	r19
    326a:	27 95       	ror	r18
    326c:	1a 95       	dec	r17
    326e:	e2 f7       	brpl	.-8      	; 0x3268 <st_generate_step_dir_invert_masks+0x48>
    3270:	20 ff       	sbrs	r18, 0
    3272:	08 c0       	rjmp	.+16     	; 0x3284 <st_generate_step_dir_invert_masks+0x64>
    3274:	10 91 84 01 	lds	r17, 0x0184
    3278:	80 2f       	mov	r24, r16
    327a:	0e 94 67 23 	call	0x46ce	; 0x46ce <get_direction_pin_mask>
    327e:	81 2b       	or	r24, r17
    3280:	80 93 84 01 	sts	0x0184, r24
    3284:	21 96       	adiw	r28, 0x01	; 1
    3286:	c3 30       	cpi	r28, 0x03	; 3
    3288:	d1 05       	cpc	r29, r1
    328a:	a9 f6       	brne	.-86     	; 0x3236 <st_generate_step_dir_invert_masks+0x16>
    328c:	df 91       	pop	r29
    328e:	cf 91       	pop	r28
    3290:	1f 91       	pop	r17
    3292:	0f 91       	pop	r16
    3294:	ff 90       	pop	r15
    3296:	08 95       	ret

00003298 <st_reset>:
    3298:	0e 94 b6 16 	call	0x2d6c	; 0x2d6c <st_go_idle>
    329c:	8b e2       	ldi	r24, 0x2B	; 43
    329e:	e4 e5       	ldi	r30, 0x54	; 84
    32a0:	f1 e0       	ldi	r31, 0x01	; 1
    32a2:	df 01       	movw	r26, r30
    32a4:	1d 92       	st	X+, r1
    32a6:	8a 95       	dec	r24
    32a8:	e9 f7       	brne	.-6      	; 0x32a4 <st_reset+0xc>
    32aa:	83 e2       	ldi	r24, 0x23	; 35
    32ac:	e9 e8       	ldi	r30, 0x89	; 137
    32ae:	f1 e0       	ldi	r31, 0x01	; 1
    32b0:	df 01       	movw	r26, r30
    32b2:	1d 92       	st	X+, r1
    32b4:	8a 95       	dec	r24
    32b6:	e9 f7       	brne	.-6      	; 0x32b2 <st_reset+0x1a>
    32b8:	10 92 82 01 	sts	0x0182, r1
    32bc:	10 92 81 01 	sts	0x0181, r1
    32c0:	10 92 88 01 	sts	0x0188, r1
    32c4:	10 92 87 01 	sts	0x0187, r1
    32c8:	81 e0       	ldi	r24, 0x01	; 1
    32ca:	80 93 86 01 	sts	0x0186, r24
    32ce:	10 92 83 01 	sts	0x0183, r1
    32d2:	0e 94 10 19 	call	0x3220	; 0x3220 <st_generate_step_dir_invert_masks>
    32d6:	8b b1       	in	r24, 0x0b	; 11
    32d8:	83 7e       	andi	r24, 0xE3	; 227
    32da:	90 91 85 01 	lds	r25, 0x0185
    32de:	89 2b       	or	r24, r25
    32e0:	8b b9       	out	0x0b, r24	; 11
    32e2:	8b b1       	in	r24, 0x0b	; 11
    32e4:	8f 71       	andi	r24, 0x1F	; 31
    32e6:	90 91 84 01 	lds	r25, 0x0184
    32ea:	89 2b       	or	r24, r25
    32ec:	8b b9       	out	0x0b, r24	; 11
    32ee:	08 95       	ret

000032f0 <stepper_init>:
    32f0:	8a b1       	in	r24, 0x0a	; 10
    32f2:	8c 61       	ori	r24, 0x1C	; 28
    32f4:	8a b9       	out	0x0a, r24	; 10
    32f6:	20 9a       	sbi	0x04, 0	; 4
    32f8:	8a b1       	in	r24, 0x0a	; 10
    32fa:	80 6e       	ori	r24, 0xE0	; 224
    32fc:	8a b9       	out	0x0a, r24	; 10
    32fe:	e1 e8       	ldi	r30, 0x81	; 129
    3300:	f0 e0       	ldi	r31, 0x00	; 0
    3302:	80 81       	ld	r24, Z
    3304:	8f 7e       	andi	r24, 0xEF	; 239
    3306:	80 83       	st	Z, r24
    3308:	80 81       	ld	r24, Z
    330a:	88 60       	ori	r24, 0x08	; 8
    330c:	80 83       	st	Z, r24
    330e:	e0 e8       	ldi	r30, 0x80	; 128
    3310:	f0 e0       	ldi	r31, 0x00	; 0
    3312:	80 81       	ld	r24, Z
    3314:	8c 7f       	andi	r24, 0xFC	; 252
    3316:	80 83       	st	Z, r24
    3318:	80 81       	ld	r24, Z
    331a:	8f 70       	andi	r24, 0x0F	; 15
    331c:	80 83       	st	Z, r24
    331e:	ee e6       	ldi	r30, 0x6E	; 110
    3320:	f0 e0       	ldi	r31, 0x00	; 0
    3322:	80 81       	ld	r24, Z
    3324:	88 7f       	andi	r24, 0xF8	; 248
    3326:	80 83       	st	Z, r24
    3328:	14 bc       	out	0x24, r1	; 36
    332a:	15 bc       	out	0x25, r1	; 37
    332c:	80 81       	ld	r24, Z
    332e:	81 60       	ori	r24, 0x01	; 1
    3330:	80 83       	st	Z, r24
    3332:	08 95       	ret

00003334 <st_update_plan_block_parameters>:
    3334:	cf 93       	push	r28
    3336:	df 93       	push	r29
    3338:	c0 91 81 01 	lds	r28, 0x0181
    333c:	d0 91 82 01 	lds	r29, 0x0182
    3340:	20 97       	sbiw	r28, 0x00	; 0
    3342:	b9 f0       	breq	.+46     	; 0x3372 <st_update_plan_block_parameters+0x3e>
    3344:	81 e0       	ldi	r24, 0x01	; 1
    3346:	80 93 55 01 	sts	0x0155, r24
    334a:	60 91 6b 01 	lds	r22, 0x016B
    334e:	70 91 6c 01 	lds	r23, 0x016C
    3352:	80 91 6d 01 	lds	r24, 0x016D
    3356:	90 91 6e 01 	lds	r25, 0x016E
    335a:	9b 01       	movw	r18, r22
    335c:	ac 01       	movw	r20, r24
    335e:	0e 94 1d 37 	call	0x6e3a	; 0x6e3a <__mulsf3>
    3362:	69 8b       	std	Y+17, r22	; 0x11
    3364:	7a 8b       	std	Y+18, r23	; 0x12
    3366:	8b 8b       	std	Y+19, r24	; 0x13
    3368:	9c 8b       	std	Y+20, r25	; 0x14
    336a:	10 92 82 01 	sts	0x0182, r1
    336e:	10 92 81 01 	sts	0x0181, r1
    3372:	df 91       	pop	r29
    3374:	cf 91       	pop	r28
    3376:	08 95       	ret

00003378 <st_prep_buffer>:
    3378:	2f 92       	push	r2
    337a:	3f 92       	push	r3
    337c:	4f 92       	push	r4
    337e:	5f 92       	push	r5
    3380:	6f 92       	push	r6
    3382:	7f 92       	push	r7
    3384:	8f 92       	push	r8
    3386:	9f 92       	push	r9
    3388:	af 92       	push	r10
    338a:	bf 92       	push	r11
    338c:	cf 92       	push	r12
    338e:	df 92       	push	r13
    3390:	ef 92       	push	r14
    3392:	ff 92       	push	r15
    3394:	0f 93       	push	r16
    3396:	1f 93       	push	r17
    3398:	cf 93       	push	r28
    339a:	df 93       	push	r29
    339c:	cd b7       	in	r28, 0x3d	; 61
    339e:	de b7       	in	r29, 0x3e	; 62
    33a0:	e5 97       	sbiw	r28, 0x35	; 53
    33a2:	0f b6       	in	r0, 0x3f	; 63
    33a4:	f8 94       	cli
    33a6:	de bf       	out	0x3e, r29	; 62
    33a8:	0f be       	out	0x3f, r0	; 63
    33aa:	cd bf       	out	0x3d, r28	; 61
    33ac:	80 91 28 05 	lds	r24, 0x0528
    33b0:	80 77       	andi	r24, 0x70	; 112
    33b2:	09 f4       	brne	.+2      	; 0x33b6 <st_prep_buffer+0x3e>
    33b4:	0a c2       	rjmp	.+1044   	; 0x37ca <st_prep_buffer+0x452>
    33b6:	20 e0       	ldi	r18, 0x00	; 0
    33b8:	30 e0       	ldi	r19, 0x00	; 0
    33ba:	a9 01       	movw	r20, r18
    33bc:	60 91 6b 01 	lds	r22, 0x016B
    33c0:	70 91 6c 01 	lds	r23, 0x016C
    33c4:	80 91 6d 01 	lds	r24, 0x016D
    33c8:	90 91 6e 01 	lds	r25, 0x016E
    33cc:	0e 94 df 34 	call	0x69be	; 0x69be <__cmpsf2>
    33d0:	81 11       	cpse	r24, r1
    33d2:	fb c1       	rjmp	.+1014   	; 0x37ca <st_prep_buffer+0x452>
    33d4:	03 c6       	rjmp	.+3078   	; 0x3fdc <st_prep_buffer+0xc64>
    33d6:	80 91 81 01 	lds	r24, 0x0181
    33da:	90 91 82 01 	lds	r25, 0x0182
    33de:	89 2b       	or	r24, r25
    33e0:	09 f4       	brne	.+2      	; 0x33e4 <st_prep_buffer+0x6c>
    33e2:	fa c1       	rjmp	.+1012   	; 0x37d8 <st_prep_buffer+0x460>
    33e4:	80 91 87 01 	lds	r24, 0x0187
    33e8:	f6 e0       	ldi	r31, 0x06	; 6
    33ea:	f8 9f       	mul	r31, r24
    33ec:	f0 01       	movw	r30, r0
    33ee:	11 24       	eor	r1, r1
    33f0:	e4 55       	subi	r30, 0x54	; 84
    33f2:	fe 4f       	sbci	r31, 0xFE	; 254
    33f4:	fe 83       	std	Y+6, r31	; 0x06
    33f6:	ed 83       	std	Y+5, r30	; 0x05
    33f8:	80 91 54 01 	lds	r24, 0x0154
    33fc:	82 83       	std	Z+2, r24	; 0x02
    33fe:	20 91 81 01 	lds	r18, 0x0181
    3402:	30 91 82 01 	lds	r19, 0x0182
    3406:	3e 87       	std	Y+14, r19	; 0x0e
    3408:	2d 87       	std	Y+13, r18	; 0x0d
    340a:	d9 01       	movw	r26, r18
    340c:	95 96       	adiw	r26, 0x25	; 37
    340e:	bc 91       	ld	r27, X
    3410:	bc a7       	std	Y+44, r27	; 0x2c
    3412:	f9 01       	movw	r30, r18
    3414:	f6 a1       	ldd	r31, Z+38	; 0x26
    3416:	fd a7       	std	Y+45, r31	; 0x2d
    3418:	d9 01       	movw	r26, r18
    341a:	97 96       	adiw	r26, 0x27	; 39
    341c:	bc 91       	ld	r27, X
    341e:	be a7       	std	Y+46, r27	; 0x2e
    3420:	f9 01       	movw	r30, r18
    3422:	f0 a5       	ldd	r31, Z+40	; 0x28
    3424:	ff a7       	std	Y+47, r31	; 0x2f
    3426:	20 91 5e 01 	lds	r18, 0x015E
    342a:	30 91 5f 01 	lds	r19, 0x015F
    342e:	40 91 60 01 	lds	r20, 0x0160
    3432:	50 91 61 01 	lds	r21, 0x0161
    3436:	6c a5       	ldd	r22, Y+44	; 0x2c
    3438:	7d a5       	ldd	r23, Y+45	; 0x2d
    343a:	8b 2f       	mov	r24, r27
    343c:	9f 2f       	mov	r25, r31
    343e:	0e 94 05 34 	call	0x680a	; 0x680a <__subsf3>
    3442:	68 a7       	std	Y+40, r22	; 0x28
    3444:	79 a7       	std	Y+41, r23	; 0x29
    3446:	8a a7       	std	Y+42, r24	; 0x2a
    3448:	9b a7       	std	Y+43, r25	; 0x2b
    344a:	20 e0       	ldi	r18, 0x00	; 0
    344c:	30 e0       	ldi	r19, 0x00	; 0
    344e:	a9 01       	movw	r20, r18
    3450:	0e 94 df 34 	call	0x69be	; 0x69be <__cmpsf2>
    3454:	87 ff       	sbrs	r24, 7
    3456:	04 c0       	rjmp	.+8      	; 0x3460 <st_prep_buffer+0xe8>
    3458:	18 a6       	std	Y+40, r1	; 0x28
    345a:	19 a6       	std	Y+41, r1	; 0x29
    345c:	1a a6       	std	Y+42, r1	; 0x2a
    345e:	1b a6       	std	Y+43, r1	; 0x2b
    3460:	20 91 77 01 	lds	r18, 0x0177
    3464:	28 8f       	std	Y+24, r18	; 0x18
    3466:	30 91 78 01 	lds	r19, 0x0178
    346a:	39 8f       	std	Y+25, r19	; 0x19
    346c:	40 91 79 01 	lds	r20, 0x0179
    3470:	4a 8f       	std	Y+26, r20	; 0x1a
    3472:	50 91 7a 01 	lds	r21, 0x017A
    3476:	5b 8f       	std	Y+27, r21	; 0x1b
    3478:	80 91 6f 01 	lds	r24, 0x016F
    347c:	8c 8f       	std	Y+28, r24	; 0x1c
    347e:	90 91 70 01 	lds	r25, 0x0170
    3482:	9d 8f       	std	Y+29, r25	; 0x1d
    3484:	a0 91 71 01 	lds	r26, 0x0171
    3488:	ae 8f       	std	Y+30, r26	; 0x1e
    348a:	b0 91 72 01 	lds	r27, 0x0172
    348e:	bf 8f       	std	Y+31, r27	; 0x1f
    3490:	e0 91 7b 01 	lds	r30, 0x017B
    3494:	e8 a3       	std	Y+32, r30	; 0x20
    3496:	f0 91 7c 01 	lds	r31, 0x017C
    349a:	f9 a3       	std	Y+33, r31	; 0x21
    349c:	20 91 7d 01 	lds	r18, 0x017D
    34a0:	2a a3       	std	Y+34, r18	; 0x22
    34a2:	30 91 7e 01 	lds	r19, 0x017E
    34a6:	3b a3       	std	Y+35, r19	; 0x23
    34a8:	40 91 67 01 	lds	r20, 0x0167
    34ac:	4c a3       	std	Y+36, r20	; 0x24
    34ae:	50 91 68 01 	lds	r21, 0x0168
    34b2:	5d a3       	std	Y+37, r21	; 0x25
    34b4:	80 91 69 01 	lds	r24, 0x0169
    34b8:	8e a3       	std	Y+38, r24	; 0x26
    34ba:	90 91 6a 01 	lds	r25, 0x016A
    34be:	9f a3       	std	Y+39, r25	; 0x27
    34c0:	20 91 73 01 	lds	r18, 0x0173
    34c4:	30 91 74 01 	lds	r19, 0x0174
    34c8:	40 91 75 01 	lds	r20, 0x0175
    34cc:	50 91 76 01 	lds	r21, 0x0176
    34d0:	28 ab       	std	Y+48, r18	; 0x30
    34d2:	39 ab       	std	Y+49, r19	; 0x31
    34d4:	4a ab       	std	Y+50, r20	; 0x32
    34d6:	5b ab       	std	Y+51, r21	; 0x33
    34d8:	30 91 6b 01 	lds	r19, 0x016B
    34dc:	39 83       	std	Y+1, r19	; 0x01
    34de:	40 91 6c 01 	lds	r20, 0x016C
    34e2:	49 87       	std	Y+9, r20	; 0x09
    34e4:	20 90 6d 01 	lds	r2, 0x016D
    34e8:	30 90 6e 01 	lds	r3, 0x016E
    34ec:	50 91 66 01 	lds	r21, 0x0166
    34f0:	5f 87       	std	Y+15, r21	; 0x0f
    34f2:	8c a5       	ldd	r24, Y+44	; 0x2c
    34f4:	8c 8b       	std	Y+20, r24	; 0x14
    34f6:	9d a5       	ldd	r25, Y+45	; 0x2d
    34f8:	9d 8b       	std	Y+21, r25	; 0x15
    34fa:	ae a5       	ldd	r26, Y+46	; 0x2e
    34fc:	ae 8b       	std	Y+22, r26	; 0x16
    34fe:	bf a5       	ldd	r27, Y+47	; 0x2f
    3500:	bf 8b       	std	Y+23, r27	; 0x17
    3502:	3e e3       	ldi	r19, 0x3E	; 62
    3504:	c3 2e       	mov	r12, r19
    3506:	33 ec       	ldi	r19, 0xC3	; 195
    3508:	d3 2e       	mov	r13, r19
    350a:	3e e2       	ldi	r19, 0x2E	; 46
    350c:	e3 2e       	mov	r14, r19
    350e:	39 e3       	ldi	r19, 0x39	; 57
    3510:	f3 2e       	mov	r15, r19
    3512:	18 8a       	std	Y+16, r1	; 0x10
    3514:	19 8a       	std	Y+17, r1	; 0x11
    3516:	1a 8a       	std	Y+18, r1	; 0x12
    3518:	1b 8a       	std	Y+19, r1	; 0x13
    351a:	26 01       	movw	r4, r12
    351c:	37 01       	movw	r6, r14
    351e:	ef 85       	ldd	r30, Y+15	; 0x0f
    3520:	e1 11       	cpse	r30, r1
    3522:	b4 c3       	rjmp	.+1896   	; 0x3c8c <st_prep_buffer+0x914>
    3524:	ad 85       	ldd	r26, Y+13	; 0x0d
    3526:	be 85       	ldd	r27, Y+14	; 0x0e
    3528:	91 96       	adiw	r26, 0x21	; 33
    352a:	2d 91       	ld	r18, X+
    352c:	3d 91       	ld	r19, X+
    352e:	4d 91       	ld	r20, X+
    3530:	5c 91       	ld	r21, X
    3532:	94 97       	sbiw	r26, 0x24	; 36
    3534:	c7 01       	movw	r24, r14
    3536:	b6 01       	movw	r22, r12
    3538:	0e 94 1d 37 	call	0x6e3a	; 0x6e3a <__mulsf3>
    353c:	4b 01       	movw	r8, r22
    353e:	5c 01       	movw	r10, r24
    3540:	20 e0       	ldi	r18, 0x00	; 0
    3542:	30 e0       	ldi	r19, 0x00	; 0
    3544:	40 e0       	ldi	r20, 0x00	; 0
    3546:	5f e3       	ldi	r21, 0x3F	; 63
    3548:	0e 94 1d 37 	call	0x6e3a	; 0x6e3a <__mulsf3>
    354c:	9b 01       	movw	r18, r22
    354e:	ac 01       	movw	r20, r24
    3550:	69 81       	ldd	r22, Y+1	; 0x01
    3552:	79 85       	ldd	r23, Y+9	; 0x09
    3554:	c1 01       	movw	r24, r2
    3556:	0e 94 06 34 	call	0x680c	; 0x680c <__addsf3>
    355a:	9b 01       	movw	r18, r22
    355c:	ac 01       	movw	r20, r24
    355e:	c7 01       	movw	r24, r14
    3560:	b6 01       	movw	r22, r12
    3562:	0e 94 1d 37 	call	0x6e3a	; 0x6e3a <__mulsf3>
    3566:	9b 01       	movw	r18, r22
    3568:	ac 01       	movw	r20, r24
    356a:	6c 89       	ldd	r22, Y+20	; 0x14
    356c:	7d 89       	ldd	r23, Y+21	; 0x15
    356e:	8e 89       	ldd	r24, Y+22	; 0x16
    3570:	9f 89       	ldd	r25, Y+23	; 0x17
    3572:	0e 94 05 34 	call	0x680a	; 0x680a <__subsf3>
    3576:	8b 01       	movw	r16, r22
    3578:	8d ab       	std	Y+53, r24	; 0x35
    357a:	9c ab       	std	Y+52, r25	; 0x34
    357c:	28 8d       	ldd	r18, Y+24	; 0x18
    357e:	39 8d       	ldd	r19, Y+25	; 0x19
    3580:	4a 8d       	ldd	r20, Y+26	; 0x1a
    3582:	5b 8d       	ldd	r21, Y+27	; 0x1b
    3584:	0e 94 df 34 	call	0x69be	; 0x69be <__cmpsf2>
    3588:	87 ff       	sbrs	r24, 7
    358a:	86 c3       	rjmp	.+1804   	; 0x3c98 <st_prep_buffer+0x920>
    358c:	28 8d       	ldd	r18, Y+24	; 0x18
    358e:	39 8d       	ldd	r19, Y+25	; 0x19
    3590:	4a 8d       	ldd	r20, Y+26	; 0x1a
    3592:	5b 8d       	ldd	r21, Y+27	; 0x1b
    3594:	6c a5       	ldd	r22, Y+44	; 0x2c
    3596:	7d a5       	ldd	r23, Y+45	; 0x2d
    3598:	8e a5       	ldd	r24, Y+46	; 0x2e
    359a:	9f a5       	ldd	r25, Y+47	; 0x2f
    359c:	0e 94 05 34 	call	0x680a	; 0x680a <__subsf3>
    35a0:	9b 01       	movw	r18, r22
    35a2:	ac 01       	movw	r20, r24
    35a4:	0e 94 06 34 	call	0x680c	; 0x680c <__addsf3>
    35a8:	6b 01       	movw	r12, r22
    35aa:	7c 01       	movw	r14, r24
    35ac:	2c 8d       	ldd	r18, Y+28	; 0x1c
    35ae:	3d 8d       	ldd	r19, Y+29	; 0x1d
    35b0:	4e 8d       	ldd	r20, Y+30	; 0x1e
    35b2:	5f 8d       	ldd	r21, Y+31	; 0x1f
    35b4:	69 81       	ldd	r22, Y+1	; 0x01
    35b6:	79 85       	ldd	r23, Y+9	; 0x09
    35b8:	c1 01       	movw	r24, r2
    35ba:	0e 94 06 34 	call	0x680c	; 0x680c <__addsf3>
    35be:	9b 01       	movw	r18, r22
    35c0:	ac 01       	movw	r20, r24
    35c2:	c7 01       	movw	r24, r14
    35c4:	b6 01       	movw	r22, r12
    35c6:	0e 94 e6 34 	call	0x69cc	; 0x69cc <__divsf3>
    35ca:	6b 01       	movw	r12, r22
    35cc:	7c 01       	movw	r14, r24
    35ce:	28 a1       	ldd	r18, Y+32	; 0x20
    35d0:	39 a1       	ldd	r19, Y+33	; 0x21
    35d2:	4a a1       	ldd	r20, Y+34	; 0x22
    35d4:	5b a1       	ldd	r21, Y+35	; 0x23
    35d6:	68 8d       	ldd	r22, Y+24	; 0x18
    35d8:	79 8d       	ldd	r23, Y+25	; 0x19
    35da:	8a 8d       	ldd	r24, Y+26	; 0x1a
    35dc:	9b 8d       	ldd	r25, Y+27	; 0x1b
    35de:	0e 94 df 34 	call	0x69be	; 0x69be <__cmpsf2>
    35e2:	88 23       	and	r24, r24
    35e4:	09 f4       	brne	.+2      	; 0x35e8 <st_prep_buffer+0x270>
    35e6:	55 c3       	rjmp	.+1706   	; 0x3c92 <st_prep_buffer+0x91a>
    35e8:	b1 e0       	ldi	r27, 0x01	; 1
    35ea:	bf 87       	std	Y+15, r27	; 0x0f
    35ec:	fc 8d       	ldd	r31, Y+28	; 0x1c
    35ee:	f9 83       	std	Y+1, r31	; 0x01
    35f0:	2d 8d       	ldd	r18, Y+29	; 0x1d
    35f2:	29 87       	std	Y+9, r18	; 0x09
    35f4:	2e 8c       	ldd	r2, Y+30	; 0x1e
    35f6:	3f 8c       	ldd	r3, Y+31	; 0x1f
    35f8:	08 8d       	ldd	r16, Y+24	; 0x18
    35fa:	19 8d       	ldd	r17, Y+25	; 0x19
    35fc:	3a 8d       	ldd	r19, Y+26	; 0x1a
    35fe:	3d ab       	std	Y+53, r19	; 0x35
    3600:	4b 8d       	ldd	r20, Y+27	; 0x1b
    3602:	4c ab       	std	Y+52, r20	; 0x34
    3604:	a7 01       	movw	r20, r14
    3606:	96 01       	movw	r18, r12
    3608:	68 89       	ldd	r22, Y+16	; 0x10
    360a:	79 89       	ldd	r23, Y+17	; 0x11
    360c:	8a 89       	ldd	r24, Y+18	; 0x12
    360e:	9b 89       	ldd	r25, Y+19	; 0x13
    3610:	0e 94 06 34 	call	0x680c	; 0x680c <__addsf3>
    3614:	68 8b       	std	Y+16, r22	; 0x10
    3616:	79 8b       	std	Y+17, r23	; 0x11
    3618:	8a 8b       	std	Y+18, r24	; 0x12
    361a:	9b 8b       	std	Y+19, r25	; 0x13
    361c:	a3 01       	movw	r20, r6
    361e:	92 01       	movw	r18, r4
    3620:	0e 94 df 34 	call	0x69be	; 0x69be <__cmpsf2>
    3624:	87 fd       	sbrc	r24, 7
    3626:	f2 c3       	rjmp	.+2020   	; 0x3e0c <st_prep_buffer+0xa94>
    3628:	28 a5       	ldd	r18, Y+40	; 0x28
    362a:	39 a5       	ldd	r19, Y+41	; 0x29
    362c:	4a a5       	ldd	r20, Y+42	; 0x2a
    362e:	5b a5       	ldd	r21, Y+43	; 0x2b
    3630:	b8 01       	movw	r22, r16
    3632:	8d a9       	ldd	r24, Y+53	; 0x35
    3634:	9c a9       	ldd	r25, Y+52	; 0x34
    3636:	0e 94 e2 36 	call	0x6dc4	; 0x6dc4 <__gesf2>
    363a:	18 16       	cp	r1, r24
    363c:	0c f4       	brge	.+2      	; 0x3640 <st_prep_buffer+0x2c8>
    363e:	dc c3       	rjmp	.+1976   	; 0x3df8 <st_prep_buffer+0xa80>
    3640:	89 81       	ldd	r24, Y+1	; 0x01
    3642:	99 85       	ldd	r25, Y+9	; 0x09
    3644:	d1 01       	movw	r26, r2
    3646:	80 93 6b 01 	sts	0x016B, r24
    364a:	90 93 6c 01 	sts	0x016C, r25
    364e:	a0 93 6d 01 	sts	0x016D, r26
    3652:	b0 93 6e 01 	sts	0x016E, r27
    3656:	ff 85       	ldd	r31, Y+15	; 0x0f
    3658:	f0 93 66 01 	sts	0x0166, r31
    365c:	40 90 5a 01 	lds	r4, 0x015A
    3660:	50 90 5b 01 	lds	r5, 0x015B
    3664:	60 90 5c 01 	lds	r6, 0x015C
    3668:	70 90 5d 01 	lds	r7, 0x015D
    366c:	98 01       	movw	r18, r16
    366e:	4d a9       	ldd	r20, Y+53	; 0x35
    3670:	5c a9       	ldd	r21, Y+52	; 0x34
    3672:	c3 01       	movw	r24, r6
    3674:	b2 01       	movw	r22, r4
    3676:	0e 94 1d 37 	call	0x6e3a	; 0x6e3a <__mulsf3>
    367a:	69 83       	std	Y+1, r22	; 0x01
    367c:	7a 83       	std	Y+2, r23	; 0x02
    367e:	8b 83       	std	Y+3, r24	; 0x03
    3680:	9c 83       	std	Y+4, r25	; 0x04
    3682:	0e 94 cc 34 	call	0x6998	; 0x6998 <ceil>
    3686:	6b 01       	movw	r12, r22
    3688:	7c 01       	movw	r14, r24
    368a:	60 91 56 01 	lds	r22, 0x0156
    368e:	70 91 57 01 	lds	r23, 0x0157
    3692:	80 91 58 01 	lds	r24, 0x0158
    3696:	90 91 59 01 	lds	r25, 0x0159
    369a:	0e 94 cc 34 	call	0x6998	; 0x6998 <ceil>
    369e:	4b 01       	movw	r8, r22
    36a0:	5c 01       	movw	r10, r24
    36a2:	a7 01       	movw	r20, r14
    36a4:	96 01       	movw	r18, r12
    36a6:	0e 94 05 34 	call	0x680a	; 0x680a <__subsf3>
    36aa:	0e 94 53 35 	call	0x6aa6	; 0x6aa6 <__fixunssfsi>
    36ae:	69 87       	std	Y+9, r22	; 0x09
    36b0:	7a 87       	std	Y+10, r23	; 0x0a
    36b2:	8b 87       	std	Y+11, r24	; 0x0b
    36b4:	9c 87       	std	Y+12, r25	; 0x0c
    36b6:	e9 85       	ldd	r30, Y+9	; 0x09
    36b8:	fa 85       	ldd	r31, Y+10	; 0x0a
    36ba:	ad 81       	ldd	r26, Y+5	; 0x05
    36bc:	be 81       	ldd	r27, Y+6	; 0x06
    36be:	ed 93       	st	X+, r30
    36c0:	fc 93       	st	X, r31
    36c2:	30 97       	sbiw	r30, 0x00	; 0
    36c4:	09 f4       	brne	.+2      	; 0x36c8 <st_prep_buffer+0x350>
    36c6:	cd c3       	rjmp	.+1946   	; 0x3e62 <st_prep_buffer+0xaea>
    36c8:	20 91 62 01 	lds	r18, 0x0162
    36cc:	30 91 63 01 	lds	r19, 0x0163
    36d0:	40 91 64 01 	lds	r20, 0x0164
    36d4:	50 91 65 01 	lds	r21, 0x0165
    36d8:	68 89       	ldd	r22, Y+16	; 0x10
    36da:	79 89       	ldd	r23, Y+17	; 0x11
    36dc:	8a 89       	ldd	r24, Y+18	; 0x12
    36de:	9b 89       	ldd	r25, Y+19	; 0x13
    36e0:	0e 94 06 34 	call	0x680c	; 0x680c <__addsf3>
    36e4:	2b 01       	movw	r4, r22
    36e6:	3c 01       	movw	r6, r24
    36e8:	29 81       	ldd	r18, Y+1	; 0x01
    36ea:	3a 81       	ldd	r19, Y+2	; 0x02
    36ec:	4b 81       	ldd	r20, Y+3	; 0x03
    36ee:	5c 81       	ldd	r21, Y+4	; 0x04
    36f0:	c5 01       	movw	r24, r10
    36f2:	b4 01       	movw	r22, r8
    36f4:	0e 94 05 34 	call	0x680a	; 0x680a <__subsf3>
    36f8:	9b 01       	movw	r18, r22
    36fa:	ac 01       	movw	r20, r24
    36fc:	c3 01       	movw	r24, r6
    36fe:	b2 01       	movw	r22, r4
    3700:	0e 94 e6 34 	call	0x69cc	; 0x69cc <__divsf3>
    3704:	4b 01       	movw	r8, r22
    3706:	5c 01       	movw	r10, r24
    3708:	29 81       	ldd	r18, Y+1	; 0x01
    370a:	3a 81       	ldd	r19, Y+2	; 0x02
    370c:	4b 81       	ldd	r20, Y+3	; 0x03
    370e:	5c 81       	ldd	r21, Y+4	; 0x04
    3710:	c7 01       	movw	r24, r14
    3712:	b6 01       	movw	r22, r12
    3714:	0e 94 05 34 	call	0x680a	; 0x680a <__subsf3>
    3718:	a5 01       	movw	r20, r10
    371a:	94 01       	movw	r18, r8
    371c:	0e 94 1d 37 	call	0x6e3a	; 0x6e3a <__mulsf3>
    3720:	60 93 62 01 	sts	0x0162, r22
    3724:	70 93 63 01 	sts	0x0163, r23
    3728:	80 93 64 01 	sts	0x0164, r24
    372c:	90 93 65 01 	sts	0x0165, r25
    3730:	20 ec       	ldi	r18, 0xC0	; 192
    3732:	31 ee       	ldi	r19, 0xE1	; 225
    3734:	44 e6       	ldi	r20, 0x64	; 100
    3736:	5e e4       	ldi	r21, 0x4E	; 78
    3738:	c5 01       	movw	r24, r10
    373a:	b4 01       	movw	r22, r8
    373c:	0e 94 1d 37 	call	0x6e3a	; 0x6e3a <__mulsf3>
    3740:	0e 94 cc 34 	call	0x6998	; 0x6998 <ceil>
    3744:	0e 94 53 35 	call	0x6aa6	; 0x6aa6 <__fixunssfsi>
    3748:	60 3d       	cpi	r22, 0xD0	; 208
    374a:	b7 e0       	ldi	r27, 0x07	; 7
    374c:	7b 07       	cpc	r23, r27
    374e:	81 05       	cpc	r24, r1
    3750:	91 05       	cpc	r25, r1
    3752:	08 f0       	brcs	.+2      	; 0x3756 <st_prep_buffer+0x3de>
    3754:	ac c3       	rjmp	.+1880   	; 0x3eae <st_prep_buffer+0xb36>
    3756:	ed 81       	ldd	r30, Y+5	; 0x05
    3758:	fe 81       	ldd	r31, Y+6	; 0x06
    375a:	15 82       	std	Z+5, r1	; 0x05
    375c:	ad 81       	ldd	r26, Y+5	; 0x05
    375e:	be 81       	ldd	r27, Y+6	; 0x06
    3760:	14 96       	adiw	r26, 0x04	; 4
    3762:	7c 93       	st	X, r23
    3764:	6e 93       	st	-X, r22
    3766:	13 97       	sbiw	r26, 0x03	; 3
    3768:	80 91 86 01 	lds	r24, 0x0186
    376c:	80 93 87 01 	sts	0x0187, r24
    3770:	8f 5f       	subi	r24, 0xFF	; 255
    3772:	86 30       	cpi	r24, 0x06	; 6
    3774:	09 f4       	brne	.+2      	; 0x3778 <st_prep_buffer+0x400>
    3776:	d4 c3       	rjmp	.+1960   	; 0x3f20 <st_prep_buffer+0xba8>
    3778:	80 93 86 01 	sts	0x0186, r24
    377c:	20 91 67 01 	lds	r18, 0x0167
    3780:	30 91 68 01 	lds	r19, 0x0168
    3784:	40 91 69 01 	lds	r20, 0x0169
    3788:	50 91 6a 01 	lds	r21, 0x016A
    378c:	b8 01       	movw	r22, r16
    378e:	8d a9       	ldd	r24, Y+53	; 0x35
    3790:	9c a9       	ldd	r25, Y+52	; 0x34
    3792:	0e 94 e2 36 	call	0x6dc4	; 0x6dc4 <__gesf2>
    3796:	18 16       	cp	r1, r24
    3798:	0c f0       	brlt	.+2      	; 0x379c <st_prep_buffer+0x424>
    379a:	c5 c3       	rjmp	.+1930   	; 0x3f26 <st_prep_buffer+0xbae>
    379c:	e0 91 81 01 	lds	r30, 0x0181
    37a0:	f0 91 82 01 	lds	r31, 0x0182
    37a4:	c8 01       	movw	r24, r16
    37a6:	ad a9       	ldd	r26, Y+53	; 0x35
    37a8:	bc a9       	ldd	r27, Y+52	; 0x34
    37aa:	85 a3       	std	Z+37, r24	; 0x25
    37ac:	96 a3       	std	Z+38, r25	; 0x26
    37ae:	a7 a3       	std	Z+39, r26	; 0x27
    37b0:	b0 a7       	std	Z+40, r27	; 0x28
    37b2:	89 81       	ldd	r24, Y+1	; 0x01
    37b4:	9a 81       	ldd	r25, Y+2	; 0x02
    37b6:	ab 81       	ldd	r26, Y+3	; 0x03
    37b8:	bc 81       	ldd	r27, Y+4	; 0x04
    37ba:	80 93 56 01 	sts	0x0156, r24
    37be:	90 93 57 01 	sts	0x0157, r25
    37c2:	a0 93 58 01 	sts	0x0158, r26
    37c6:	b0 93 59 01 	sts	0x0159, r27
    37ca:	90 91 88 01 	lds	r25, 0x0188
    37ce:	80 91 86 01 	lds	r24, 0x0186
    37d2:	98 13       	cpse	r25, r24
    37d4:	00 ce       	rjmp	.-1024   	; 0x33d6 <st_prep_buffer+0x5e>
    37d6:	02 c4       	rjmp	.+2052   	; 0x3fdc <st_prep_buffer+0xc64>
    37d8:	0e 94 bb 24 	call	0x4976	; 0x4976 <plan_get_current_block>
    37dc:	1c 01       	movw	r2, r24
    37de:	90 93 82 01 	sts	0x0182, r25
    37e2:	80 93 81 01 	sts	0x0181, r24
    37e6:	00 97       	sbiw	r24, 0x00	; 0
    37e8:	09 f4       	brne	.+2      	; 0x37ec <st_prep_buffer+0x474>
    37ea:	f8 c3       	rjmp	.+2032   	; 0x3fdc <st_prep_buffer+0xc64>
    37ec:	80 91 55 01 	lds	r24, 0x0155
    37f0:	10 91 28 05 	lds	r17, 0x0528
    37f4:	88 23       	and	r24, r24
    37f6:	19 f0       	breq	.+6      	; 0x37fe <st_prep_buffer+0x486>
    37f8:	10 92 55 01 	sts	0x0155, r1
    37fc:	be c0       	rjmp	.+380    	; 0x397a <st_prep_buffer+0x602>
    37fe:	80 91 54 01 	lds	r24, 0x0154
    3802:	8f 5f       	subi	r24, 0xFF	; 255
    3804:	85 30       	cpi	r24, 0x05	; 5
    3806:	19 f0       	breq	.+6      	; 0x380e <st_prep_buffer+0x496>
    3808:	80 93 54 01 	sts	0x0154, r24
    380c:	02 c0       	rjmp	.+4      	; 0x3812 <st_prep_buffer+0x49a>
    380e:	10 92 54 01 	sts	0x0154, r1
    3812:	e0 91 54 01 	lds	r30, 0x0154
    3816:	21 e1       	ldi	r18, 0x11	; 17
    3818:	2e 9f       	mul	r18, r30
    381a:	f0 01       	movw	r30, r0
    381c:	11 24       	eor	r1, r1
    381e:	e0 53       	subi	r30, 0x30	; 48
    3820:	fe 4f       	sbci	r31, 0xFE	; 254
    3822:	f0 93 80 01 	sts	0x0180, r31
    3826:	e0 93 7f 01 	sts	0x017F, r30
    382a:	d1 01       	movw	r26, r2
    382c:	8c 91       	ld	r24, X
    382e:	80 83       	st	Z, r24
    3830:	11 96       	adiw	r26, 0x01	; 1
    3832:	4d 91       	ld	r20, X+
    3834:	5d 91       	ld	r21, X+
    3836:	6d 91       	ld	r22, X+
    3838:	7c 91       	ld	r23, X
    383a:	14 97       	sbiw	r26, 0x04	; 4
    383c:	03 e0       	ldi	r16, 0x03	; 3
    383e:	44 0f       	add	r20, r20
    3840:	55 1f       	adc	r21, r21
    3842:	66 1f       	adc	r22, r22
    3844:	77 1f       	adc	r23, r23
    3846:	0a 95       	dec	r16
    3848:	d1 f7       	brne	.-12     	; 0x383e <st_prep_buffer+0x4c6>
    384a:	41 83       	std	Z+1, r20	; 0x01
    384c:	52 83       	std	Z+2, r21	; 0x02
    384e:	63 83       	std	Z+3, r22	; 0x03
    3850:	74 83       	std	Z+4, r23	; 0x04
    3852:	15 96       	adiw	r26, 0x05	; 5
    3854:	4d 91       	ld	r20, X+
    3856:	5d 91       	ld	r21, X+
    3858:	6d 91       	ld	r22, X+
    385a:	7c 91       	ld	r23, X
    385c:	18 97       	sbiw	r26, 0x08	; 8
    385e:	83 e0       	ldi	r24, 0x03	; 3
    3860:	44 0f       	add	r20, r20
    3862:	55 1f       	adc	r21, r21
    3864:	66 1f       	adc	r22, r22
    3866:	77 1f       	adc	r23, r23
    3868:	8a 95       	dec	r24
    386a:	d1 f7       	brne	.-12     	; 0x3860 <st_prep_buffer+0x4e8>
    386c:	45 83       	std	Z+5, r20	; 0x05
    386e:	56 83       	std	Z+6, r21	; 0x06
    3870:	67 83       	std	Z+7, r22	; 0x07
    3872:	70 87       	std	Z+8, r23	; 0x08
    3874:	19 96       	adiw	r26, 0x09	; 9
    3876:	4d 91       	ld	r20, X+
    3878:	5d 91       	ld	r21, X+
    387a:	6d 91       	ld	r22, X+
    387c:	7c 91       	ld	r23, X
    387e:	1c 97       	sbiw	r26, 0x0c	; 12
    3880:	93 e0       	ldi	r25, 0x03	; 3
    3882:	44 0f       	add	r20, r20
    3884:	55 1f       	adc	r21, r21
    3886:	66 1f       	adc	r22, r22
    3888:	77 1f       	adc	r23, r23
    388a:	9a 95       	dec	r25
    388c:	d1 f7       	brne	.-12     	; 0x3882 <st_prep_buffer+0x50a>
    388e:	41 87       	std	Z+9, r20	; 0x09
    3890:	52 87       	std	Z+10, r21	; 0x0a
    3892:	63 87       	std	Z+11, r22	; 0x0b
    3894:	74 87       	std	Z+12, r23	; 0x0c
    3896:	1d 96       	adiw	r26, 0x0d	; 13
    3898:	6d 91       	ld	r22, X+
    389a:	7d 91       	ld	r23, X+
    389c:	8d 91       	ld	r24, X+
    389e:	9c 91       	ld	r25, X
    38a0:	50 97       	sbiw	r26, 0x10	; 16
    38a2:	6b 01       	movw	r12, r22
    38a4:	7c 01       	movw	r14, r24
    38a6:	23 e0       	ldi	r18, 0x03	; 3
    38a8:	cc 0c       	add	r12, r12
    38aa:	dd 1c       	adc	r13, r13
    38ac:	ee 1c       	adc	r14, r14
    38ae:	ff 1c       	adc	r15, r15
    38b0:	2a 95       	dec	r18
    38b2:	d1 f7       	brne	.-12     	; 0x38a8 <st_prep_buffer+0x530>
    38b4:	c5 86       	std	Z+13, r12	; 0x0d
    38b6:	d6 86       	std	Z+14, r13	; 0x0e
    38b8:	e7 86       	std	Z+15, r14	; 0x0f
    38ba:	f0 8a       	std	Z+16, r15	; 0x10
    38bc:	0e 94 7f 35 	call	0x6afe	; 0x6afe <__floatunsisf>
    38c0:	60 93 56 01 	sts	0x0156, r22
    38c4:	70 93 57 01 	sts	0x0157, r23
    38c8:	80 93 58 01 	sts	0x0158, r24
    38cc:	90 93 59 01 	sts	0x0159, r25
    38d0:	f1 01       	movw	r30, r2
    38d2:	25 a1       	ldd	r18, Z+37	; 0x25
    38d4:	36 a1       	ldd	r19, Z+38	; 0x26
    38d6:	47 a1       	ldd	r20, Z+39	; 0x27
    38d8:	50 a5       	ldd	r21, Z+40	; 0x28
    38da:	0e 94 e6 34 	call	0x69cc	; 0x69cc <__divsf3>
    38de:	9b 01       	movw	r18, r22
    38e0:	ac 01       	movw	r20, r24
    38e2:	60 93 5a 01 	sts	0x015A, r22
    38e6:	70 93 5b 01 	sts	0x015B, r23
    38ea:	80 93 5c 01 	sts	0x015C, r24
    38ee:	90 93 5d 01 	sts	0x015D, r25
    38f2:	60 e0       	ldi	r22, 0x00	; 0
    38f4:	70 e0       	ldi	r23, 0x00	; 0
    38f6:	80 ea       	ldi	r24, 0xA0	; 160
    38f8:	9f e3       	ldi	r25, 0x3F	; 63
    38fa:	0e 94 e6 34 	call	0x69cc	; 0x69cc <__divsf3>
    38fe:	60 93 5e 01 	sts	0x015E, r22
    3902:	70 93 5f 01 	sts	0x015F, r23
    3906:	80 93 60 01 	sts	0x0160, r24
    390a:	90 93 61 01 	sts	0x0161, r25
    390e:	10 92 62 01 	sts	0x0162, r1
    3912:	10 92 63 01 	sts	0x0163, r1
    3916:	10 92 64 01 	sts	0x0164, r1
    391a:	10 92 65 01 	sts	0x0165, r1
    391e:	81 2f       	mov	r24, r17
    3920:	80 77       	andi	r24, 0x70	; 112
    3922:	e1 f0       	breq	.+56     	; 0x395c <st_prep_buffer+0x5e4>
    3924:	60 91 73 01 	lds	r22, 0x0173
    3928:	70 91 74 01 	lds	r23, 0x0174
    392c:	80 91 75 01 	lds	r24, 0x0175
    3930:	90 91 76 01 	lds	r25, 0x0176
    3934:	60 93 6b 01 	sts	0x016B, r22
    3938:	70 93 6c 01 	sts	0x016C, r23
    393c:	80 93 6d 01 	sts	0x016D, r24
    3940:	90 93 6e 01 	sts	0x016E, r25
    3944:	9b 01       	movw	r18, r22
    3946:	ac 01       	movw	r20, r24
    3948:	0e 94 1d 37 	call	0x6e3a	; 0x6e3a <__mulsf3>
    394c:	d1 01       	movw	r26, r2
    394e:	51 96       	adiw	r26, 0x11	; 17
    3950:	6d 93       	st	X+, r22
    3952:	7d 93       	st	X+, r23
    3954:	8d 93       	st	X+, r24
    3956:	9c 93       	st	X, r25
    3958:	54 97       	sbiw	r26, 0x14	; 20
    395a:	0f c0       	rjmp	.+30     	; 0x397a <st_prep_buffer+0x602>
    395c:	f1 01       	movw	r30, r2
    395e:	61 89       	ldd	r22, Z+17	; 0x11
    3960:	72 89       	ldd	r23, Z+18	; 0x12
    3962:	83 89       	ldd	r24, Z+19	; 0x13
    3964:	94 89       	ldd	r25, Z+20	; 0x14
    3966:	0e 94 aa 37 	call	0x6f54	; 0x6f54 <sqrt>
    396a:	60 93 6b 01 	sts	0x016B, r22
    396e:	70 93 6c 01 	sts	0x016C, r23
    3972:	80 93 6d 01 	sts	0x016D, r24
    3976:	90 93 6e 01 	sts	0x016E, r25
    397a:	10 92 67 01 	sts	0x0167, r1
    397e:	10 92 68 01 	sts	0x0168, r1
    3982:	10 92 69 01 	sts	0x0169, r1
    3986:	10 92 6a 01 	sts	0x016A, r1
    398a:	d1 01       	movw	r26, r2
    398c:	91 96       	adiw	r26, 0x21	; 33
    398e:	8d 90       	ld	r8, X+
    3990:	9d 90       	ld	r9, X+
    3992:	ad 90       	ld	r10, X+
    3994:	bc 90       	ld	r11, X
    3996:	94 97       	sbiw	r26, 0x24	; 36
    3998:	a5 01       	movw	r20, r10
    399a:	94 01       	movw	r18, r8
    399c:	60 e0       	ldi	r22, 0x00	; 0
    399e:	70 e0       	ldi	r23, 0x00	; 0
    39a0:	80 e0       	ldi	r24, 0x00	; 0
    39a2:	9f e3       	ldi	r25, 0x3F	; 63
    39a4:	0e 94 e6 34 	call	0x69cc	; 0x69cc <__divsf3>
    39a8:	2b 01       	movw	r4, r22
    39aa:	3c 01       	movw	r6, r24
    39ac:	10 77       	andi	r17, 0x70	; 112
    39ae:	f1 01       	movw	r30, r2
    39b0:	c5 a0       	ldd	r12, Z+37	; 0x25
    39b2:	d6 a0       	ldd	r13, Z+38	; 0x26
    39b4:	e7 a0       	ldd	r14, Z+39	; 0x27
    39b6:	f0 a4       	ldd	r15, Z+40	; 0x28
    39b8:	11 23       	and	r17, r17
    39ba:	09 f4       	brne	.+2      	; 0x39be <st_prep_buffer+0x646>
    39bc:	4d c0       	rjmp	.+154    	; 0x3a58 <st_prep_buffer+0x6e0>
    39be:	f2 e0       	ldi	r31, 0x02	; 2
    39c0:	f0 93 66 01 	sts	0x0166, r31
    39c4:	d1 01       	movw	r26, r2
    39c6:	51 96       	adiw	r26, 0x11	; 17
    39c8:	2d 91       	ld	r18, X+
    39ca:	3d 91       	ld	r19, X+
    39cc:	4d 91       	ld	r20, X+
    39ce:	5c 91       	ld	r21, X
    39d0:	54 97       	sbiw	r26, 0x14	; 20
    39d2:	2d 83       	std	Y+5, r18	; 0x05
    39d4:	3e 83       	std	Y+6, r19	; 0x06
    39d6:	4f 83       	std	Y+7, r20	; 0x07
    39d8:	58 87       	std	Y+8, r21	; 0x08
    39da:	0e 94 1d 37 	call	0x6e3a	; 0x6e3a <__mulsf3>
    39de:	9b 01       	movw	r18, r22
    39e0:	ac 01       	movw	r20, r24
    39e2:	c7 01       	movw	r24, r14
    39e4:	b6 01       	movw	r22, r12
    39e6:	0e 94 05 34 	call	0x680a	; 0x680a <__subsf3>
    39ea:	2b 01       	movw	r4, r22
    39ec:	3c 01       	movw	r6, r24
    39ee:	20 e0       	ldi	r18, 0x00	; 0
    39f0:	30 e0       	ldi	r19, 0x00	; 0
    39f2:	a9 01       	movw	r20, r18
    39f4:	0e 94 df 34 	call	0x69be	; 0x69be <__cmpsf2>
    39f8:	87 ff       	sbrs	r24, 7
    39fa:	1d c0       	rjmp	.+58     	; 0x3a36 <st_prep_buffer+0x6be>
    39fc:	a5 01       	movw	r20, r10
    39fe:	94 01       	movw	r18, r8
    3a00:	c5 01       	movw	r24, r10
    3a02:	b4 01       	movw	r22, r8
    3a04:	0e 94 06 34 	call	0x680c	; 0x680c <__addsf3>
    3a08:	a7 01       	movw	r20, r14
    3a0a:	96 01       	movw	r18, r12
    3a0c:	0e 94 1d 37 	call	0x6e3a	; 0x6e3a <__mulsf3>
    3a10:	9b 01       	movw	r18, r22
    3a12:	ac 01       	movw	r20, r24
    3a14:	6d 81       	ldd	r22, Y+5	; 0x05
    3a16:	7e 81       	ldd	r23, Y+6	; 0x06
    3a18:	8f 81       	ldd	r24, Y+7	; 0x07
    3a1a:	98 85       	ldd	r25, Y+8	; 0x08
    3a1c:	0e 94 05 34 	call	0x680a	; 0x680a <__subsf3>
    3a20:	0e 94 aa 37 	call	0x6f54	; 0x6f54 <sqrt>
    3a24:	60 93 73 01 	sts	0x0173, r22
    3a28:	70 93 74 01 	sts	0x0174, r23
    3a2c:	80 93 75 01 	sts	0x0175, r24
    3a30:	90 93 76 01 	sts	0x0176, r25
    3a34:	d7 cc       	rjmp	.-1618   	; 0x33e4 <st_prep_buffer+0x6c>
    3a36:	40 92 67 01 	sts	0x0167, r4
    3a3a:	50 92 68 01 	sts	0x0168, r5
    3a3e:	60 92 69 01 	sts	0x0169, r6
    3a42:	70 92 6a 01 	sts	0x016A, r7
    3a46:	10 92 73 01 	sts	0x0173, r1
    3a4a:	10 92 74 01 	sts	0x0174, r1
    3a4e:	10 92 75 01 	sts	0x0175, r1
    3a52:	10 92 76 01 	sts	0x0176, r1
    3a56:	c6 cc       	rjmp	.-1652   	; 0x33e4 <st_prep_buffer+0x6c>
    3a58:	10 92 66 01 	sts	0x0166, r1
    3a5c:	c0 92 77 01 	sts	0x0177, r12
    3a60:	d0 92 78 01 	sts	0x0178, r13
    3a64:	e0 92 79 01 	sts	0x0179, r14
    3a68:	f0 92 7a 01 	sts	0x017A, r15
    3a6c:	0e 94 cb 24 	call	0x4996	; 0x4996 <plan_get_exec_block_exit_speed>
    3a70:	4b 01       	movw	r8, r22
    3a72:	5c 01       	movw	r10, r24
    3a74:	60 93 73 01 	sts	0x0173, r22
    3a78:	70 93 74 01 	sts	0x0174, r23
    3a7c:	80 93 75 01 	sts	0x0175, r24
    3a80:	90 93 76 01 	sts	0x0176, r25
    3a84:	9b 01       	movw	r18, r22
    3a86:	ac 01       	movw	r20, r24
    3a88:	0e 94 1d 37 	call	0x6e3a	; 0x6e3a <__mulsf3>
    3a8c:	69 83       	std	Y+1, r22	; 0x01
    3a8e:	7a 83       	std	Y+2, r23	; 0x02
    3a90:	8b 83       	std	Y+3, r24	; 0x03
    3a92:	9c 83       	std	Y+4, r25	; 0x04
    3a94:	00 91 81 01 	lds	r16, 0x0181
    3a98:	10 91 82 01 	lds	r17, 0x0182
    3a9c:	d8 01       	movw	r26, r16
    3a9e:	95 96       	adiw	r26, 0x25	; 37
    3aa0:	2d 91       	ld	r18, X+
    3aa2:	3d 91       	ld	r19, X+
    3aa4:	4d 91       	ld	r20, X+
    3aa6:	5c 91       	ld	r21, X
    3aa8:	98 97       	sbiw	r26, 0x28	; 40
    3aaa:	29 87       	std	Y+9, r18	; 0x09
    3aac:	3a 87       	std	Y+10, r19	; 0x0a
    3aae:	4b 87       	std	Y+11, r20	; 0x0b
    3ab0:	5c 87       	std	Y+12, r21	; 0x0c
    3ab2:	51 96       	adiw	r26, 0x11	; 17
    3ab4:	2d 91       	ld	r18, X+
    3ab6:	3d 91       	ld	r19, X+
    3ab8:	4d 91       	ld	r20, X+
    3aba:	5c 91       	ld	r21, X
    3abc:	54 97       	sbiw	r26, 0x14	; 20
    3abe:	2d 83       	std	Y+5, r18	; 0x05
    3ac0:	3e 83       	std	Y+6, r19	; 0x06
    3ac2:	4f 83       	std	Y+7, r20	; 0x07
    3ac4:	58 87       	std	Y+8, r21	; 0x08
    3ac6:	9b 01       	movw	r18, r22
    3ac8:	ac 01       	movw	r20, r24
    3aca:	6d 81       	ldd	r22, Y+5	; 0x05
    3acc:	7e 81       	ldd	r23, Y+6	; 0x06
    3ace:	8f 81       	ldd	r24, Y+7	; 0x07
    3ad0:	98 85       	ldd	r25, Y+8	; 0x08
    3ad2:	0e 94 05 34 	call	0x680a	; 0x680a <__subsf3>
    3ad6:	9b 01       	movw	r18, r22
    3ad8:	ac 01       	movw	r20, r24
    3ada:	c3 01       	movw	r24, r6
    3adc:	b2 01       	movw	r22, r4
    3ade:	0e 94 1d 37 	call	0x6e3a	; 0x6e3a <__mulsf3>
    3ae2:	9b 01       	movw	r18, r22
    3ae4:	ac 01       	movw	r20, r24
    3ae6:	69 85       	ldd	r22, Y+9	; 0x09
    3ae8:	7a 85       	ldd	r23, Y+10	; 0x0a
    3aea:	8b 85       	ldd	r24, Y+11	; 0x0b
    3aec:	9c 85       	ldd	r25, Y+12	; 0x0c
    3aee:	0e 94 06 34 	call	0x680c	; 0x680c <__addsf3>
    3af2:	20 e0       	ldi	r18, 0x00	; 0
    3af4:	30 e0       	ldi	r19, 0x00	; 0
    3af6:	40 e0       	ldi	r20, 0x00	; 0
    3af8:	5f e3       	ldi	r21, 0x3F	; 63
    3afa:	0e 94 1d 37 	call	0x6e3a	; 0x6e3a <__mulsf3>
    3afe:	6b 01       	movw	r12, r22
    3b00:	7c 01       	movw	r14, r24
    3b02:	20 e0       	ldi	r18, 0x00	; 0
    3b04:	30 e0       	ldi	r19, 0x00	; 0
    3b06:	a9 01       	movw	r20, r18
    3b08:	0e 94 e2 36 	call	0x6dc4	; 0x6dc4 <__gesf2>
    3b0c:	18 16       	cp	r1, r24
    3b0e:	0c f0       	brlt	.+2      	; 0x3b12 <st_prep_buffer+0x79a>
    3b10:	ac c0       	rjmp	.+344    	; 0x3c6a <st_prep_buffer+0x8f2>
    3b12:	29 85       	ldd	r18, Y+9	; 0x09
    3b14:	3a 85       	ldd	r19, Y+10	; 0x0a
    3b16:	4b 85       	ldd	r20, Y+11	; 0x0b
    3b18:	5c 85       	ldd	r21, Y+12	; 0x0c
    3b1a:	c7 01       	movw	r24, r14
    3b1c:	b6 01       	movw	r22, r12
    3b1e:	0e 94 df 34 	call	0x69be	; 0x69be <__cmpsf2>
    3b22:	87 ff       	sbrs	r24, 7
    3b24:	8e c0       	rjmp	.+284    	; 0x3c42 <st_prep_buffer+0x8ca>
    3b26:	f8 01       	movw	r30, r16
    3b28:	85 8c       	ldd	r8, Z+29	; 0x1d
    3b2a:	96 8c       	ldd	r9, Z+30	; 0x1e
    3b2c:	a7 8c       	ldd	r10, Z+31	; 0x1f
    3b2e:	b0 a0       	ldd	r11, Z+32	; 0x20
    3b30:	29 81       	ldd	r18, Y+1	; 0x01
    3b32:	3a 81       	ldd	r19, Y+2	; 0x02
    3b34:	4b 81       	ldd	r20, Y+3	; 0x03
    3b36:	5c 81       	ldd	r21, Y+4	; 0x04
    3b38:	c5 01       	movw	r24, r10
    3b3a:	b4 01       	movw	r22, r8
    3b3c:	0e 94 05 34 	call	0x680a	; 0x680a <__subsf3>
    3b40:	9b 01       	movw	r18, r22
    3b42:	ac 01       	movw	r20, r24
    3b44:	c3 01       	movw	r24, r6
    3b46:	b2 01       	movw	r22, r4
    3b48:	0e 94 1d 37 	call	0x6e3a	; 0x6e3a <__mulsf3>
    3b4c:	60 93 7b 01 	sts	0x017B, r22
    3b50:	70 93 7c 01 	sts	0x017C, r23
    3b54:	80 93 7d 01 	sts	0x017D, r24
    3b58:	90 93 7e 01 	sts	0x017E, r25
    3b5c:	a7 01       	movw	r20, r14
    3b5e:	96 01       	movw	r18, r12
    3b60:	0e 94 df 34 	call	0x69be	; 0x69be <__cmpsf2>
    3b64:	87 ff       	sbrs	r24, 7
    3b66:	3d c0       	rjmp	.+122    	; 0x3be2 <st_prep_buffer+0x86a>
    3b68:	c5 01       	movw	r24, r10
    3b6a:	b4 01       	movw	r22, r8
    3b6c:	0e 94 aa 37 	call	0x6f54	; 0x6f54 <sqrt>
    3b70:	60 93 6f 01 	sts	0x016F, r22
    3b74:	70 93 70 01 	sts	0x0170, r23
    3b78:	80 93 71 01 	sts	0x0171, r24
    3b7c:	90 93 72 01 	sts	0x0172, r25
    3b80:	a5 01       	movw	r20, r10
    3b82:	94 01       	movw	r18, r8
    3b84:	6d 81       	ldd	r22, Y+5	; 0x05
    3b86:	7e 81       	ldd	r23, Y+6	; 0x06
    3b88:	8f 81       	ldd	r24, Y+7	; 0x07
    3b8a:	98 85       	ldd	r25, Y+8	; 0x08
    3b8c:	0e 94 df 34 	call	0x69be	; 0x69be <__cmpsf2>
    3b90:	81 11       	cpse	r24, r1
    3b92:	04 c0       	rjmp	.+8      	; 0x3b9c <st_prep_buffer+0x824>
    3b94:	f1 e0       	ldi	r31, 0x01	; 1
    3b96:	f0 93 66 01 	sts	0x0166, r31
    3b9a:	24 cc       	rjmp	.-1976   	; 0x33e4 <st_prep_buffer+0x6c>
    3b9c:	2d 81       	ldd	r18, Y+5	; 0x05
    3b9e:	3e 81       	ldd	r19, Y+6	; 0x06
    3ba0:	4f 81       	ldd	r20, Y+7	; 0x07
    3ba2:	58 85       	ldd	r21, Y+8	; 0x08
    3ba4:	c5 01       	movw	r24, r10
    3ba6:	b4 01       	movw	r22, r8
    3ba8:	0e 94 05 34 	call	0x680a	; 0x680a <__subsf3>
    3bac:	9b 01       	movw	r18, r22
    3bae:	ac 01       	movw	r20, r24
    3bb0:	c3 01       	movw	r24, r6
    3bb2:	b2 01       	movw	r22, r4
    3bb4:	0e 94 1d 37 	call	0x6e3a	; 0x6e3a <__mulsf3>
    3bb8:	9b 01       	movw	r18, r22
    3bba:	ac 01       	movw	r20, r24
    3bbc:	60 91 77 01 	lds	r22, 0x0177
    3bc0:	70 91 78 01 	lds	r23, 0x0178
    3bc4:	80 91 79 01 	lds	r24, 0x0179
    3bc8:	90 91 7a 01 	lds	r25, 0x017A
    3bcc:	0e 94 05 34 	call	0x680a	; 0x680a <__subsf3>
    3bd0:	60 93 77 01 	sts	0x0177, r22
    3bd4:	70 93 78 01 	sts	0x0178, r23
    3bd8:	80 93 79 01 	sts	0x0179, r24
    3bdc:	90 93 7a 01 	sts	0x017A, r25
    3be0:	01 cc       	rjmp	.-2046   	; 0x33e4 <st_prep_buffer+0x6c>
    3be2:	c0 92 77 01 	sts	0x0177, r12
    3be6:	d0 92 78 01 	sts	0x0178, r13
    3bea:	e0 92 79 01 	sts	0x0179, r14
    3bee:	f0 92 7a 01 	sts	0x017A, r15
    3bf2:	c0 92 7b 01 	sts	0x017B, r12
    3bf6:	d0 92 7c 01 	sts	0x017C, r13
    3bfa:	e0 92 7d 01 	sts	0x017D, r14
    3bfe:	f0 92 7e 01 	sts	0x017E, r15
    3c02:	d8 01       	movw	r26, r16
    3c04:	91 96       	adiw	r26, 0x21	; 33
    3c06:	6d 91       	ld	r22, X+
    3c08:	7d 91       	ld	r23, X+
    3c0a:	8d 91       	ld	r24, X+
    3c0c:	9c 91       	ld	r25, X
    3c0e:	94 97       	sbiw	r26, 0x24	; 36
    3c10:	9b 01       	movw	r18, r22
    3c12:	ac 01       	movw	r20, r24
    3c14:	0e 94 06 34 	call	0x680c	; 0x680c <__addsf3>
    3c18:	a7 01       	movw	r20, r14
    3c1a:	96 01       	movw	r18, r12
    3c1c:	0e 94 1d 37 	call	0x6e3a	; 0x6e3a <__mulsf3>
    3c20:	29 81       	ldd	r18, Y+1	; 0x01
    3c22:	3a 81       	ldd	r19, Y+2	; 0x02
    3c24:	4b 81       	ldd	r20, Y+3	; 0x03
    3c26:	5c 81       	ldd	r21, Y+4	; 0x04
    3c28:	0e 94 06 34 	call	0x680c	; 0x680c <__addsf3>
    3c2c:	0e 94 aa 37 	call	0x6f54	; 0x6f54 <sqrt>
    3c30:	60 93 6f 01 	sts	0x016F, r22
    3c34:	70 93 70 01 	sts	0x0170, r23
    3c38:	80 93 71 01 	sts	0x0171, r24
    3c3c:	90 93 72 01 	sts	0x0172, r25
    3c40:	d1 cb       	rjmp	.-2142   	; 0x33e4 <st_prep_buffer+0x6c>
    3c42:	b2 e0       	ldi	r27, 0x02	; 2
    3c44:	b0 93 66 01 	sts	0x0166, r27
    3c48:	80 91 6b 01 	lds	r24, 0x016B
    3c4c:	90 91 6c 01 	lds	r25, 0x016C
    3c50:	a0 91 6d 01 	lds	r26, 0x016D
    3c54:	b0 91 6e 01 	lds	r27, 0x016E
    3c58:	80 93 6f 01 	sts	0x016F, r24
    3c5c:	90 93 70 01 	sts	0x0170, r25
    3c60:	a0 93 71 01 	sts	0x0171, r26
    3c64:	b0 93 72 01 	sts	0x0172, r27
    3c68:	bd cb       	rjmp	.-2182   	; 0x33e4 <st_prep_buffer+0x6c>
    3c6a:	10 92 77 01 	sts	0x0177, r1
    3c6e:	10 92 78 01 	sts	0x0178, r1
    3c72:	10 92 79 01 	sts	0x0179, r1
    3c76:	10 92 7a 01 	sts	0x017A, r1
    3c7a:	80 92 6f 01 	sts	0x016F, r8
    3c7e:	90 92 70 01 	sts	0x0170, r9
    3c82:	a0 92 71 01 	sts	0x0171, r10
    3c86:	b0 92 72 01 	sts	0x0172, r11
    3c8a:	ac cb       	rjmp	.-2216   	; 0x33e4 <st_prep_buffer+0x6c>
    3c8c:	e1 30       	cpi	r30, 0x01	; 1
    3c8e:	61 f0       	breq	.+24     	; 0x3ca8 <st_prep_buffer+0x930>
    3c90:	41 c0       	rjmp	.+130    	; 0x3d14 <st_prep_buffer+0x99c>
    3c92:	e2 e0       	ldi	r30, 0x02	; 2
    3c94:	ef 87       	std	Y+15, r30	; 0x0f
    3c96:	aa cc       	rjmp	.-1708   	; 0x35ec <st_prep_buffer+0x274>
    3c98:	a5 01       	movw	r20, r10
    3c9a:	94 01       	movw	r18, r8
    3c9c:	69 81       	ldd	r22, Y+1	; 0x01
    3c9e:	79 85       	ldd	r23, Y+9	; 0x09
    3ca0:	c1 01       	movw	r24, r2
    3ca2:	0e 94 06 34 	call	0x680c	; 0x680c <__addsf3>
    3ca6:	7c c0       	rjmp	.+248    	; 0x3da0 <st_prep_buffer+0xa28>
    3ca8:	a7 01       	movw	r20, r14
    3caa:	96 01       	movw	r18, r12
    3cac:	6c 8d       	ldd	r22, Y+28	; 0x1c
    3cae:	7d 8d       	ldd	r23, Y+29	; 0x1d
    3cb0:	8e 8d       	ldd	r24, Y+30	; 0x1e
    3cb2:	9f 8d       	ldd	r25, Y+31	; 0x1f
    3cb4:	0e 94 1d 37 	call	0x6e3a	; 0x6e3a <__mulsf3>
    3cb8:	9b 01       	movw	r18, r22
    3cba:	ac 01       	movw	r20, r24
    3cbc:	6c 89       	ldd	r22, Y+20	; 0x14
    3cbe:	7d 89       	ldd	r23, Y+21	; 0x15
    3cc0:	8e 89       	ldd	r24, Y+22	; 0x16
    3cc2:	9f 89       	ldd	r25, Y+23	; 0x17
    3cc4:	0e 94 05 34 	call	0x680a	; 0x680a <__subsf3>
    3cc8:	8b 01       	movw	r16, r22
    3cca:	8d ab       	std	Y+53, r24	; 0x35
    3ccc:	9c ab       	std	Y+52, r25	; 0x34
    3cce:	28 a1       	ldd	r18, Y+32	; 0x20
    3cd0:	39 a1       	ldd	r19, Y+33	; 0x21
    3cd2:	4a a1       	ldd	r20, Y+34	; 0x22
    3cd4:	5b a1       	ldd	r21, Y+35	; 0x23
    3cd6:	0e 94 df 34 	call	0x69be	; 0x69be <__cmpsf2>
    3cda:	87 ff       	sbrs	r24, 7
    3cdc:	93 cc       	rjmp	.-1754   	; 0x3604 <st_prep_buffer+0x28c>
    3cde:	28 a1       	ldd	r18, Y+32	; 0x20
    3ce0:	39 a1       	ldd	r19, Y+33	; 0x21
    3ce2:	4a a1       	ldd	r20, Y+34	; 0x22
    3ce4:	5b a1       	ldd	r21, Y+35	; 0x23
    3ce6:	6c 89       	ldd	r22, Y+20	; 0x14
    3ce8:	7d 89       	ldd	r23, Y+21	; 0x15
    3cea:	8e 89       	ldd	r24, Y+22	; 0x16
    3cec:	9f 89       	ldd	r25, Y+23	; 0x17
    3cee:	0e 94 05 34 	call	0x680a	; 0x680a <__subsf3>
    3cf2:	2c 8d       	ldd	r18, Y+28	; 0x1c
    3cf4:	3d 8d       	ldd	r19, Y+29	; 0x1d
    3cf6:	4e 8d       	ldd	r20, Y+30	; 0x1e
    3cf8:	5f 8d       	ldd	r21, Y+31	; 0x1f
    3cfa:	0e 94 e6 34 	call	0x69cc	; 0x69cc <__divsf3>
    3cfe:	6b 01       	movw	r12, r22
    3d00:	7c 01       	movw	r14, r24
    3d02:	08 a1       	ldd	r16, Y+32	; 0x20
    3d04:	19 a1       	ldd	r17, Y+33	; 0x21
    3d06:	5a a1       	ldd	r21, Y+34	; 0x22
    3d08:	5d ab       	std	Y+53, r21	; 0x35
    3d0a:	8b a1       	ldd	r24, Y+35	; 0x23
    3d0c:	8c ab       	std	Y+52, r24	; 0x34
    3d0e:	92 e0       	ldi	r25, 0x02	; 2
    3d10:	9f 87       	std	Y+15, r25	; 0x0f
    3d12:	78 cc       	rjmp	.-1808   	; 0x3604 <st_prep_buffer+0x28c>
    3d14:	ad 85       	ldd	r26, Y+13	; 0x0d
    3d16:	be 85       	ldd	r27, Y+14	; 0x0e
    3d18:	91 96       	adiw	r26, 0x21	; 33
    3d1a:	2d 91       	ld	r18, X+
    3d1c:	3d 91       	ld	r19, X+
    3d1e:	4d 91       	ld	r20, X+
    3d20:	5c 91       	ld	r21, X
    3d22:	94 97       	sbiw	r26, 0x24	; 36
    3d24:	c7 01       	movw	r24, r14
    3d26:	b6 01       	movw	r22, r12
    3d28:	0e 94 1d 37 	call	0x6e3a	; 0x6e3a <__mulsf3>
    3d2c:	4b 01       	movw	r8, r22
    3d2e:	5c 01       	movw	r10, r24
    3d30:	9b 01       	movw	r18, r22
    3d32:	ac 01       	movw	r20, r24
    3d34:	69 81       	ldd	r22, Y+1	; 0x01
    3d36:	79 85       	ldd	r23, Y+9	; 0x09
    3d38:	c1 01       	movw	r24, r2
    3d3a:	0e 94 e2 36 	call	0x6dc4	; 0x6dc4 <__gesf2>
    3d3e:	18 16       	cp	r1, r24
    3d40:	9c f5       	brge	.+102    	; 0x3da8 <st_prep_buffer+0xa30>
    3d42:	20 e0       	ldi	r18, 0x00	; 0
    3d44:	30 e0       	ldi	r19, 0x00	; 0
    3d46:	40 e0       	ldi	r20, 0x00	; 0
    3d48:	5f e3       	ldi	r21, 0x3F	; 63
    3d4a:	c5 01       	movw	r24, r10
    3d4c:	b4 01       	movw	r22, r8
    3d4e:	0e 94 1d 37 	call	0x6e3a	; 0x6e3a <__mulsf3>
    3d52:	9b 01       	movw	r18, r22
    3d54:	ac 01       	movw	r20, r24
    3d56:	69 81       	ldd	r22, Y+1	; 0x01
    3d58:	79 85       	ldd	r23, Y+9	; 0x09
    3d5a:	c1 01       	movw	r24, r2
    3d5c:	0e 94 05 34 	call	0x680a	; 0x680a <__subsf3>
    3d60:	9b 01       	movw	r18, r22
    3d62:	ac 01       	movw	r20, r24
    3d64:	c7 01       	movw	r24, r14
    3d66:	b6 01       	movw	r22, r12
    3d68:	0e 94 1d 37 	call	0x6e3a	; 0x6e3a <__mulsf3>
    3d6c:	9b 01       	movw	r18, r22
    3d6e:	ac 01       	movw	r20, r24
    3d70:	6c 89       	ldd	r22, Y+20	; 0x14
    3d72:	7d 89       	ldd	r23, Y+21	; 0x15
    3d74:	8e 89       	ldd	r24, Y+22	; 0x16
    3d76:	9f 89       	ldd	r25, Y+23	; 0x17
    3d78:	0e 94 05 34 	call	0x680a	; 0x680a <__subsf3>
    3d7c:	8b 01       	movw	r16, r22
    3d7e:	8d ab       	std	Y+53, r24	; 0x35
    3d80:	9c ab       	std	Y+52, r25	; 0x34
    3d82:	2c a1       	ldd	r18, Y+36	; 0x24
    3d84:	3d a1       	ldd	r19, Y+37	; 0x25
    3d86:	4e a1       	ldd	r20, Y+38	; 0x26
    3d88:	5f a1       	ldd	r21, Y+39	; 0x27
    3d8a:	0e 94 e2 36 	call	0x6dc4	; 0x6dc4 <__gesf2>
    3d8e:	18 16       	cp	r1, r24
    3d90:	5c f4       	brge	.+22     	; 0x3da8 <st_prep_buffer+0xa30>
    3d92:	a5 01       	movw	r20, r10
    3d94:	94 01       	movw	r18, r8
    3d96:	69 81       	ldd	r22, Y+1	; 0x01
    3d98:	79 85       	ldd	r23, Y+9	; 0x09
    3d9a:	c1 01       	movw	r24, r2
    3d9c:	0e 94 05 34 	call	0x680a	; 0x680a <__subsf3>
    3da0:	69 83       	std	Y+1, r22	; 0x01
    3da2:	79 87       	std	Y+9, r23	; 0x09
    3da4:	1c 01       	movw	r2, r24
    3da6:	2e cc       	rjmp	.-1956   	; 0x3604 <st_prep_buffer+0x28c>
    3da8:	2c a1       	ldd	r18, Y+36	; 0x24
    3daa:	3d a1       	ldd	r19, Y+37	; 0x25
    3dac:	4e a1       	ldd	r20, Y+38	; 0x26
    3dae:	5f a1       	ldd	r21, Y+39	; 0x27
    3db0:	6c 89       	ldd	r22, Y+20	; 0x14
    3db2:	7d 89       	ldd	r23, Y+21	; 0x15
    3db4:	8e 89       	ldd	r24, Y+22	; 0x16
    3db6:	9f 89       	ldd	r25, Y+23	; 0x17
    3db8:	0e 94 05 34 	call	0x680a	; 0x680a <__subsf3>
    3dbc:	9b 01       	movw	r18, r22
    3dbe:	ac 01       	movw	r20, r24
    3dc0:	0e 94 06 34 	call	0x680c	; 0x680c <__addsf3>
    3dc4:	6b 01       	movw	r12, r22
    3dc6:	7c 01       	movw	r14, r24
    3dc8:	28 a9       	ldd	r18, Y+48	; 0x30
    3dca:	39 a9       	ldd	r19, Y+49	; 0x31
    3dcc:	4a a9       	ldd	r20, Y+50	; 0x32
    3dce:	5b a9       	ldd	r21, Y+51	; 0x33
    3dd0:	69 81       	ldd	r22, Y+1	; 0x01
    3dd2:	79 85       	ldd	r23, Y+9	; 0x09
    3dd4:	c1 01       	movw	r24, r2
    3dd6:	0e 94 06 34 	call	0x680c	; 0x680c <__addsf3>
    3dda:	9b 01       	movw	r18, r22
    3ddc:	ac 01       	movw	r20, r24
    3dde:	c7 01       	movw	r24, r14
    3de0:	b6 01       	movw	r22, r12
    3de2:	0e 94 e6 34 	call	0x69cc	; 0x69cc <__divsf3>
    3de6:	6b 01       	movw	r12, r22
    3de8:	7c 01       	movw	r14, r24
    3dea:	0c a1       	ldd	r16, Y+36	; 0x24
    3dec:	1d a1       	ldd	r17, Y+37	; 0x25
    3dee:	be a1       	ldd	r27, Y+38	; 0x26
    3df0:	bd ab       	std	Y+53, r27	; 0x35
    3df2:	ef a1       	ldd	r30, Y+39	; 0x27
    3df4:	ec ab       	std	Y+52, r30	; 0x34
    3df6:	06 cc       	rjmp	.-2036   	; 0x3604 <st_prep_buffer+0x28c>
    3df8:	2e e3       	ldi	r18, 0x3E	; 62
    3dfa:	33 ec       	ldi	r19, 0xC3	; 195
    3dfc:	4e e2       	ldi	r20, 0x2E	; 46
    3dfe:	59 e3       	ldi	r21, 0x39	; 57
    3e00:	c3 01       	movw	r24, r6
    3e02:	b2 01       	movw	r22, r4
    3e04:	0e 94 06 34 	call	0x680c	; 0x680c <__addsf3>
    3e08:	2b 01       	movw	r4, r22
    3e0a:	3c 01       	movw	r6, r24
    3e0c:	28 89       	ldd	r18, Y+16	; 0x10
    3e0e:	39 89       	ldd	r19, Y+17	; 0x11
    3e10:	4a 89       	ldd	r20, Y+18	; 0x12
    3e12:	5b 89       	ldd	r21, Y+19	; 0x13
    3e14:	c3 01       	movw	r24, r6
    3e16:	b2 01       	movw	r22, r4
    3e18:	0e 94 05 34 	call	0x680a	; 0x680a <__subsf3>
    3e1c:	6b 01       	movw	r12, r22
    3e1e:	7c 01       	movw	r14, r24
    3e20:	2c a1       	ldd	r18, Y+36	; 0x24
    3e22:	3d a1       	ldd	r19, Y+37	; 0x25
    3e24:	4e a1       	ldd	r20, Y+38	; 0x26
    3e26:	5f a1       	ldd	r21, Y+39	; 0x27
    3e28:	b8 01       	movw	r22, r16
    3e2a:	8d a9       	ldd	r24, Y+53	; 0x35
    3e2c:	9c a9       	ldd	r25, Y+52	; 0x34
    3e2e:	0e 94 e2 36 	call	0x6dc4	; 0x6dc4 <__gesf2>
    3e32:	18 16       	cp	r1, r24
    3e34:	7c f0       	brlt	.+30     	; 0x3e54 <st_prep_buffer+0xadc>
    3e36:	89 81       	ldd	r24, Y+1	; 0x01
    3e38:	99 85       	ldd	r25, Y+9	; 0x09
    3e3a:	d1 01       	movw	r26, r2
    3e3c:	80 93 6b 01 	sts	0x016B, r24
    3e40:	90 93 6c 01 	sts	0x016C, r25
    3e44:	a0 93 6d 01 	sts	0x016D, r26
    3e48:	b0 93 6e 01 	sts	0x016E, r27
    3e4c:	3f 85       	ldd	r19, Y+15	; 0x0f
    3e4e:	30 93 66 01 	sts	0x0166, r19
    3e52:	04 cc       	rjmp	.-2040   	; 0x365c <st_prep_buffer+0x2e4>
    3e54:	0c 8b       	std	Y+20, r16	; 0x14
    3e56:	1d 8b       	std	Y+21, r17	; 0x15
    3e58:	4d a9       	ldd	r20, Y+53	; 0x35
    3e5a:	4e 8b       	std	Y+22, r20	; 0x16
    3e5c:	5c a9       	ldd	r21, Y+52	; 0x34
    3e5e:	5f 8b       	std	Y+23, r21	; 0x17
    3e60:	5e cb       	rjmp	.-2372   	; 0x351e <st_prep_buffer+0x1a6>
    3e62:	80 91 28 05 	lds	r24, 0x0528
    3e66:	80 77       	andi	r24, 0x70	; 112
    3e68:	09 f4       	brne	.+2      	; 0x3e6c <st_prep_buffer+0xaf4>
    3e6a:	2e cc       	rjmp	.-1956   	; 0x36c8 <st_prep_buffer+0x350>
    3e6c:	10 92 6b 01 	sts	0x016B, r1
    3e70:	10 92 6c 01 	sts	0x016C, r1
    3e74:	10 92 6d 01 	sts	0x016D, r1
    3e78:	10 92 6e 01 	sts	0x016E, r1
    3e7c:	10 92 62 01 	sts	0x0162, r1
    3e80:	10 92 63 01 	sts	0x0163, r1
    3e84:	10 92 64 01 	sts	0x0164, r1
    3e88:	10 92 65 01 	sts	0x0165, r1
    3e8c:	c0 92 56 01 	sts	0x0156, r12
    3e90:	d0 92 57 01 	sts	0x0157, r13
    3e94:	e0 92 58 01 	sts	0x0158, r14
    3e98:	f0 92 59 01 	sts	0x0159, r15
    3e9c:	a3 01       	movw	r20, r6
    3e9e:	92 01       	movw	r18, r4
    3ea0:	c7 01       	movw	r24, r14
    3ea2:	b6 01       	movw	r22, r12
    3ea4:	0e 94 e6 34 	call	0x69cc	; 0x69cc <__divsf3>
    3ea8:	ad 85       	ldd	r26, Y+13	; 0x0d
    3eaa:	be 85       	ldd	r27, Y+14	; 0x0e
    3eac:	70 c0       	rjmp	.+224    	; 0x3f8e <st_prep_buffer+0xc16>
    3eae:	60 3a       	cpi	r22, 0xA0	; 160
    3eb0:	ff e0       	ldi	r31, 0x0F	; 15
    3eb2:	7f 07       	cpc	r23, r31
    3eb4:	81 05       	cpc	r24, r1
    3eb6:	91 05       	cpc	r25, r1
    3eb8:	10 f4       	brcc	.+4      	; 0x3ebe <st_prep_buffer+0xb46>
    3eba:	e1 e0       	ldi	r30, 0x01	; 1
    3ebc:	09 c0       	rjmp	.+18     	; 0x3ed0 <st_prep_buffer+0xb58>
    3ebe:	60 34       	cpi	r22, 0x40	; 64
    3ec0:	ff e1       	ldi	r31, 0x1F	; 31
    3ec2:	7f 07       	cpc	r23, r31
    3ec4:	81 05       	cpc	r24, r1
    3ec6:	91 05       	cpc	r25, r1
    3ec8:	10 f4       	brcc	.+4      	; 0x3ece <st_prep_buffer+0xb56>
    3eca:	e2 e0       	ldi	r30, 0x02	; 2
    3ecc:	01 c0       	rjmp	.+2      	; 0x3ed0 <st_prep_buffer+0xb58>
    3ece:	e3 e0       	ldi	r30, 0x03	; 3
    3ed0:	ad 81       	ldd	r26, Y+5	; 0x05
    3ed2:	be 81       	ldd	r27, Y+6	; 0x06
    3ed4:	15 96       	adiw	r26, 0x05	; 5
    3ed6:	ec 93       	st	X, r30
    3ed8:	ad 81       	ldd	r26, Y+5	; 0x05
    3eda:	be 81       	ldd	r27, Y+6	; 0x06
    3edc:	15 96       	adiw	r26, 0x05	; 5
    3ede:	2c 91       	ld	r18, X
    3ee0:	15 97       	sbiw	r26, 0x05	; 5
    3ee2:	02 2e       	mov	r0, r18
    3ee4:	04 c0       	rjmp	.+8      	; 0x3eee <st_prep_buffer+0xb76>
    3ee6:	96 95       	lsr	r25
    3ee8:	87 95       	ror	r24
    3eea:	77 95       	ror	r23
    3eec:	67 95       	ror	r22
    3eee:	0a 94       	dec	r0
    3ef0:	d2 f7       	brpl	.-12     	; 0x3ee6 <st_prep_buffer+0xb6e>
    3ef2:	e9 85       	ldd	r30, Y+9	; 0x09
    3ef4:	fa 85       	ldd	r31, Y+10	; 0x0a
    3ef6:	02 c0       	rjmp	.+4      	; 0x3efc <st_prep_buffer+0xb84>
    3ef8:	ee 0f       	add	r30, r30
    3efa:	ff 1f       	adc	r31, r31
    3efc:	2a 95       	dec	r18
    3efe:	e2 f7       	brpl	.-8      	; 0x3ef8 <st_prep_buffer+0xb80>
    3f00:	ed 93       	st	X+, r30
    3f02:	fc 93       	st	X, r31
    3f04:	61 15       	cp	r22, r1
    3f06:	71 05       	cpc	r23, r1
    3f08:	f1 e0       	ldi	r31, 0x01	; 1
    3f0a:	8f 07       	cpc	r24, r31
    3f0c:	91 05       	cpc	r25, r1
    3f0e:	08 f4       	brcc	.+2      	; 0x3f12 <st_prep_buffer+0xb9a>
    3f10:	25 cc       	rjmp	.-1974   	; 0x375c <st_prep_buffer+0x3e4>
    3f12:	2f ef       	ldi	r18, 0xFF	; 255
    3f14:	3f ef       	ldi	r19, 0xFF	; 255
    3f16:	ed 81       	ldd	r30, Y+5	; 0x05
    3f18:	fe 81       	ldd	r31, Y+6	; 0x06
    3f1a:	34 83       	std	Z+4, r19	; 0x04
    3f1c:	23 83       	std	Z+3, r18	; 0x03
    3f1e:	24 cc       	rjmp	.-1976   	; 0x3768 <st_prep_buffer+0x3f0>
    3f20:	10 92 86 01 	sts	0x0186, r1
    3f24:	2b cc       	rjmp	.-1962   	; 0x377c <st_prep_buffer+0x404>
    3f26:	20 e0       	ldi	r18, 0x00	; 0
    3f28:	30 e0       	ldi	r19, 0x00	; 0
    3f2a:	a9 01       	movw	r20, r18
    3f2c:	b8 01       	movw	r22, r16
    3f2e:	8d a9       	ldd	r24, Y+53	; 0x35
    3f30:	9c a9       	ldd	r25, Y+52	; 0x34
    3f32:	0e 94 e2 36 	call	0x6dc4	; 0x6dc4 <__gesf2>
    3f36:	18 16       	cp	r1, r24
    3f38:	0c f0       	brlt	.+2      	; 0x3f3c <st_prep_buffer+0xbc4>
    3f3a:	49 c0       	rjmp	.+146    	; 0x3fce <st_prep_buffer+0xc56>
    3f3c:	10 92 6b 01 	sts	0x016B, r1
    3f40:	10 92 6c 01 	sts	0x016C, r1
    3f44:	10 92 6d 01 	sts	0x016D, r1
    3f48:	10 92 6e 01 	sts	0x016E, r1
    3f4c:	10 92 62 01 	sts	0x0162, r1
    3f50:	10 92 63 01 	sts	0x0163, r1
    3f54:	10 92 64 01 	sts	0x0164, r1
    3f58:	10 92 65 01 	sts	0x0165, r1
    3f5c:	c0 92 56 01 	sts	0x0156, r12
    3f60:	d0 92 57 01 	sts	0x0157, r13
    3f64:	e0 92 58 01 	sts	0x0158, r14
    3f68:	f0 92 59 01 	sts	0x0159, r15
    3f6c:	00 91 81 01 	lds	r16, 0x0181
    3f70:	10 91 82 01 	lds	r17, 0x0182
    3f74:	20 91 5a 01 	lds	r18, 0x015A
    3f78:	30 91 5b 01 	lds	r19, 0x015B
    3f7c:	40 91 5c 01 	lds	r20, 0x015C
    3f80:	50 91 5d 01 	lds	r21, 0x015D
    3f84:	c7 01       	movw	r24, r14
    3f86:	b6 01       	movw	r22, r12
    3f88:	0e 94 e6 34 	call	0x69cc	; 0x69cc <__divsf3>
    3f8c:	d8 01       	movw	r26, r16
    3f8e:	95 96       	adiw	r26, 0x25	; 37
    3f90:	6d 93       	st	X+, r22
    3f92:	7d 93       	st	X+, r23
    3f94:	8d 93       	st	X+, r24
    3f96:	9c 93       	st	X, r25
    3f98:	98 97       	sbiw	r26, 0x28	; 40
    3f9a:	e5 96       	adiw	r28, 0x35	; 53
    3f9c:	0f b6       	in	r0, 0x3f	; 63
    3f9e:	f8 94       	cli
    3fa0:	de bf       	out	0x3e, r29	; 62
    3fa2:	0f be       	out	0x3f, r0	; 63
    3fa4:	cd bf       	out	0x3d, r28	; 61
    3fa6:	df 91       	pop	r29
    3fa8:	cf 91       	pop	r28
    3faa:	1f 91       	pop	r17
    3fac:	0f 91       	pop	r16
    3fae:	ff 90       	pop	r15
    3fb0:	ef 90       	pop	r14
    3fb2:	df 90       	pop	r13
    3fb4:	cf 90       	pop	r12
    3fb6:	bf 90       	pop	r11
    3fb8:	af 90       	pop	r10
    3fba:	9f 90       	pop	r9
    3fbc:	8f 90       	pop	r8
    3fbe:	7f 90       	pop	r7
    3fc0:	6f 90       	pop	r6
    3fc2:	5f 90       	pop	r5
    3fc4:	4f 90       	pop	r4
    3fc6:	3f 90       	pop	r3
    3fc8:	2f 90       	pop	r2
    3fca:	0c 94 20 28 	jmp	0x5040	; 0x5040 <plan_cycle_reinitialize>
    3fce:	10 92 82 01 	sts	0x0182, r1
    3fd2:	10 92 81 01 	sts	0x0181, r1
    3fd6:	0e 94 a7 24 	call	0x494e	; 0x494e <plan_discard_current_block>
    3fda:	f7 cb       	rjmp	.-2066   	; 0x37ca <st_prep_buffer+0x452>
    3fdc:	e5 96       	adiw	r28, 0x35	; 53
    3fde:	0f b6       	in	r0, 0x3f	; 63
    3fe0:	f8 94       	cli
    3fe2:	de bf       	out	0x3e, r29	; 62
    3fe4:	0f be       	out	0x3f, r0	; 63
    3fe6:	cd bf       	out	0x3d, r28	; 61
    3fe8:	df 91       	pop	r29
    3fea:	cf 91       	pop	r28
    3fec:	1f 91       	pop	r17
    3fee:	0f 91       	pop	r16
    3ff0:	ff 90       	pop	r15
    3ff2:	ef 90       	pop	r14
    3ff4:	df 90       	pop	r13
    3ff6:	cf 90       	pop	r12
    3ff8:	bf 90       	pop	r11
    3ffa:	af 90       	pop	r10
    3ffc:	9f 90       	pop	r9
    3ffe:	8f 90       	pop	r8
    4000:	7f 90       	pop	r7
    4002:	6f 90       	pop	r6
    4004:	5f 90       	pop	r5
    4006:	4f 90       	pop	r4
    4008:	3f 90       	pop	r3
    400a:	2f 90       	pop	r2
    400c:	08 95       	ret

0000400e <eeprom_get_char>:
    400e:	f9 99       	sbic	0x1f, 1	; 31
    4010:	fe cf       	rjmp	.-4      	; 0x400e <eeprom_get_char>
    4012:	92 bd       	out	0x22, r25	; 34
    4014:	81 bd       	out	0x21, r24	; 33
    4016:	81 e0       	ldi	r24, 0x01	; 1
    4018:	8f bb       	out	0x1f, r24	; 31
    401a:	80 b5       	in	r24, 0x20	; 32
    401c:	08 95       	ret

0000401e <eeprom_put_char>:
    401e:	f8 94       	cli
    4020:	f9 99       	sbic	0x1f, 1	; 31
    4022:	fe cf       	rjmp	.-4      	; 0x4020 <eeprom_put_char+0x2>
    4024:	92 bd       	out	0x22, r25	; 34
    4026:	81 bd       	out	0x21, r24	; 33
    4028:	81 e0       	ldi	r24, 0x01	; 1
    402a:	8f bb       	out	0x1f, r24	; 31
    402c:	40 b5       	in	r20, 0x20	; 32
    402e:	46 27       	eor	r20, r22
    4030:	84 2f       	mov	r24, r20
    4032:	99 27       	eor	r25, r25
    4034:	87 fd       	sbrc	r24, 7
    4036:	90 95       	com	r25
    4038:	26 2f       	mov	r18, r22
    403a:	30 e0       	ldi	r19, 0x00	; 0
    403c:	82 23       	and	r24, r18
    403e:	93 23       	and	r25, r19
    4040:	89 2b       	or	r24, r25
    4042:	39 f0       	breq	.+14     	; 0x4052 <eeprom_put_char+0x34>
    4044:	6f 3f       	cpi	r22, 0xFF	; 255
    4046:	19 f0       	breq	.+6      	; 0x404e <eeprom_put_char+0x30>
    4048:	60 bd       	out	0x20, r22	; 32
    404a:	84 e0       	ldi	r24, 0x04	; 4
    404c:	06 c0       	rjmp	.+12     	; 0x405a <eeprom_put_char+0x3c>
    404e:	84 e1       	ldi	r24, 0x14	; 20
    4050:	04 c0       	rjmp	.+8      	; 0x405a <eeprom_put_char+0x3c>
    4052:	44 23       	and	r20, r20
    4054:	21 f0       	breq	.+8      	; 0x405e <eeprom_put_char+0x40>
    4056:	60 bd       	out	0x20, r22	; 32
    4058:	84 e2       	ldi	r24, 0x24	; 36
    405a:	8f bb       	out	0x1f, r24	; 31
    405c:	f9 9a       	sbi	0x1f, 1	; 31
    405e:	78 94       	sei
    4060:	08 95       	ret

00004062 <memcpy_to_eeprom_with_checksum>:
    4062:	9f 92       	push	r9
    4064:	af 92       	push	r10
    4066:	bf 92       	push	r11
    4068:	cf 92       	push	r12
    406a:	df 92       	push	r13
    406c:	ef 92       	push	r14
    406e:	ff 92       	push	r15
    4070:	0f 93       	push	r16
    4072:	1f 93       	push	r17
    4074:	cf 93       	push	r28
    4076:	df 93       	push	r29
    4078:	8c 01       	movw	r16, r24
    407a:	7a 01       	movw	r14, r20
    407c:	6b 01       	movw	r12, r22
    407e:	c4 0e       	add	r12, r20
    4080:	d5 1e       	adc	r13, r21
    4082:	eb 01       	movw	r28, r22
    4084:	91 2c       	mov	r9, r1
    4086:	5c 01       	movw	r10, r24
    4088:	a6 1a       	sub	r10, r22
    408a:	b7 0a       	sbc	r11, r23
    408c:	ce 01       	movw	r24, r28
    408e:	8a 0d       	add	r24, r10
    4090:	9b 1d       	adc	r25, r11
    4092:	cc 15       	cp	r28, r12
    4094:	dd 05       	cpc	r29, r13
    4096:	91 f0       	breq	.+36     	; 0x40bc <memcpy_to_eeprom_with_checksum+0x5a>
    4098:	91 10       	cpse	r9, r1
    409a:	09 c0       	rjmp	.+18     	; 0x40ae <memcpy_to_eeprom_with_checksum+0x4c>
    409c:	69 2d       	mov	r22, r9
    409e:	77 27       	eor	r23, r23
    40a0:	67 fd       	sbrc	r22, 7
    40a2:	70 95       	com	r23
    40a4:	27 2f       	mov	r18, r23
    40a6:	22 1f       	adc	r18, r18
    40a8:	22 27       	eor	r18, r18
    40aa:	22 1f       	adc	r18, r18
    40ac:	01 c0       	rjmp	.+2      	; 0x40b0 <memcpy_to_eeprom_with_checksum+0x4e>
    40ae:	21 e0       	ldi	r18, 0x01	; 1
    40b0:	69 91       	ld	r22, Y+
    40b2:	92 2e       	mov	r9, r18
    40b4:	96 0e       	add	r9, r22
    40b6:	0e 94 0f 20 	call	0x401e	; 0x401e <eeprom_put_char>
    40ba:	e8 cf       	rjmp	.-48     	; 0x408c <memcpy_to_eeprom_with_checksum+0x2a>
    40bc:	69 2d       	mov	r22, r9
    40be:	c8 01       	movw	r24, r16
    40c0:	8e 0d       	add	r24, r14
    40c2:	9f 1d       	adc	r25, r15
    40c4:	df 91       	pop	r29
    40c6:	cf 91       	pop	r28
    40c8:	1f 91       	pop	r17
    40ca:	0f 91       	pop	r16
    40cc:	ff 90       	pop	r15
    40ce:	ef 90       	pop	r14
    40d0:	df 90       	pop	r13
    40d2:	cf 90       	pop	r12
    40d4:	bf 90       	pop	r11
    40d6:	af 90       	pop	r10
    40d8:	9f 90       	pop	r9
    40da:	0c 94 0f 20 	jmp	0x401e	; 0x401e <eeprom_put_char>

000040de <memcpy_from_eeprom_with_checksum>:
    40de:	9f 92       	push	r9
    40e0:	af 92       	push	r10
    40e2:	bf 92       	push	r11
    40e4:	cf 92       	push	r12
    40e6:	df 92       	push	r13
    40e8:	ef 92       	push	r14
    40ea:	ff 92       	push	r15
    40ec:	0f 93       	push	r16
    40ee:	1f 93       	push	r17
    40f0:	cf 93       	push	r28
    40f2:	df 93       	push	r29
    40f4:	8b 01       	movw	r16, r22
    40f6:	7a 01       	movw	r14, r20
    40f8:	6c 01       	movw	r12, r24
    40fa:	c4 0e       	add	r12, r20
    40fc:	d5 1e       	adc	r13, r21
    40fe:	ec 01       	movw	r28, r24
    4100:	91 2c       	mov	r9, r1
    4102:	5b 01       	movw	r10, r22
    4104:	a8 1a       	sub	r10, r24
    4106:	b9 0a       	sbc	r11, r25
    4108:	c5 01       	movw	r24, r10
    410a:	8c 0f       	add	r24, r28
    410c:	9d 1f       	adc	r25, r29
    410e:	cc 15       	cp	r28, r12
    4110:	dd 05       	cpc	r29, r13
    4112:	91 f0       	breq	.+36     	; 0x4138 <memcpy_from_eeprom_with_checksum+0x5a>
    4114:	0e 94 07 20 	call	0x400e	; 0x400e <eeprom_get_char>
    4118:	91 10       	cpse	r9, r1
    411a:	09 c0       	rjmp	.+18     	; 0x412e <memcpy_from_eeprom_with_checksum+0x50>
    411c:	29 2d       	mov	r18, r9
    411e:	33 27       	eor	r19, r19
    4120:	27 fd       	sbrc	r18, 7
    4122:	30 95       	com	r19
    4124:	23 2f       	mov	r18, r19
    4126:	22 1f       	adc	r18, r18
    4128:	22 27       	eor	r18, r18
    412a:	22 1f       	adc	r18, r18
    412c:	01 c0       	rjmp	.+2      	; 0x4130 <memcpy_from_eeprom_with_checksum+0x52>
    412e:	21 e0       	ldi	r18, 0x01	; 1
    4130:	92 2e       	mov	r9, r18
    4132:	98 0e       	add	r9, r24
    4134:	89 93       	st	Y+, r24
    4136:	e8 cf       	rjmp	.-48     	; 0x4108 <memcpy_from_eeprom_with_checksum+0x2a>
    4138:	c8 01       	movw	r24, r16
    413a:	8e 0d       	add	r24, r14
    413c:	9f 1d       	adc	r25, r15
    413e:	0e 94 07 20 	call	0x400e	; 0x400e <eeprom_get_char>
    4142:	21 e0       	ldi	r18, 0x01	; 1
    4144:	30 e0       	ldi	r19, 0x00	; 0
    4146:	98 16       	cp	r9, r24
    4148:	11 f0       	breq	.+4      	; 0x414e <memcpy_from_eeprom_with_checksum+0x70>
    414a:	20 e0       	ldi	r18, 0x00	; 0
    414c:	30 e0       	ldi	r19, 0x00	; 0
    414e:	c9 01       	movw	r24, r18
    4150:	df 91       	pop	r29
    4152:	cf 91       	pop	r28
    4154:	1f 91       	pop	r17
    4156:	0f 91       	pop	r16
    4158:	ff 90       	pop	r15
    415a:	ef 90       	pop	r14
    415c:	df 90       	pop	r13
    415e:	cf 90       	pop	r12
    4160:	bf 90       	pop	r11
    4162:	af 90       	pop	r10
    4164:	9f 90       	pop	r9
    4166:	08 95       	ret

00004168 <settings_store_startup_line>:
    4168:	21 e5       	ldi	r18, 0x51	; 81
    416a:	82 9f       	mul	r24, r18
    416c:	c0 01       	movw	r24, r0
    416e:	11 24       	eor	r1, r1
    4170:	40 e5       	ldi	r20, 0x50	; 80
    4172:	50 e0       	ldi	r21, 0x00	; 0
    4174:	9d 5f       	subi	r25, 0xFD	; 253
    4176:	0c 94 31 20 	jmp	0x4062	; 0x4062 <memcpy_to_eeprom_with_checksum>

0000417a <settings_store_build_info>:
    417a:	40 e5       	ldi	r20, 0x50	; 80
    417c:	50 e0       	ldi	r21, 0x00	; 0
    417e:	bc 01       	movw	r22, r24
    4180:	8e ea       	ldi	r24, 0xAE	; 174
    4182:	93 e0       	ldi	r25, 0x03	; 3
    4184:	0c 94 31 20 	jmp	0x4062	; 0x4062 <memcpy_to_eeprom_with_checksum>

00004188 <settings_write_coord_data>:
    4188:	2d e0       	ldi	r18, 0x0D	; 13
    418a:	82 9f       	mul	r24, r18
    418c:	c0 01       	movw	r24, r0
    418e:	11 24       	eor	r1, r1
    4190:	4c e0       	ldi	r20, 0x0C	; 12
    4192:	50 e0       	ldi	r21, 0x00	; 0
    4194:	9e 5f       	subi	r25, 0xFE	; 254
    4196:	0c 94 31 20 	jmp	0x4062	; 0x4062 <memcpy_to_eeprom_with_checksum>

0000419a <write_global_settings>:
    419a:	69 e0       	ldi	r22, 0x09	; 9
    419c:	80 e0       	ldi	r24, 0x00	; 0
    419e:	90 e0       	ldi	r25, 0x00	; 0
    41a0:	0e 94 0f 20 	call	0x401e	; 0x401e <eeprom_put_char>
    41a4:	4d e4       	ldi	r20, 0x4D	; 77
    41a6:	50 e0       	ldi	r21, 0x00	; 0
    41a8:	60 e8       	ldi	r22, 0x80	; 128
    41aa:	76 e0       	ldi	r23, 0x06	; 6
    41ac:	81 e0       	ldi	r24, 0x01	; 1
    41ae:	90 e0       	ldi	r25, 0x00	; 0
    41b0:	0c 94 31 20 	jmp	0x4062	; 0x4062 <memcpy_to_eeprom_with_checksum>

000041b4 <settings_restore>:
    41b4:	ef 92       	push	r14
    41b6:	ff 92       	push	r15
    41b8:	0f 93       	push	r16
    41ba:	1f 93       	push	r17
    41bc:	cf 93       	push	r28
    41be:	df 93       	push	r29
    41c0:	cd b7       	in	r28, 0x3d	; 61
    41c2:	de b7       	in	r29, 0x3e	; 62
    41c4:	2c 97       	sbiw	r28, 0x0c	; 12
    41c6:	0f b6       	in	r0, 0x3f	; 63
    41c8:	f8 94       	cli
    41ca:	de bf       	out	0x3e, r29	; 62
    41cc:	0f be       	out	0x3f, r0	; 63
    41ce:	cd bf       	out	0x3d, r28	; 61
    41d0:	f8 2e       	mov	r15, r24
    41d2:	80 ff       	sbrs	r24, 0
    41d4:	c5 c0       	rjmp	.+394    	; 0x4360 <settings_restore+0x1ac>
    41d6:	8a e0       	ldi	r24, 0x0A	; 10
    41d8:	80 93 b0 06 	sts	0x06B0, r24
    41dc:	89 e1       	ldi	r24, 0x19	; 25
    41de:	80 93 b3 06 	sts	0x06B3, r24
    41e2:	10 92 b1 06 	sts	0x06B1, r1
    41e6:	10 92 b2 06 	sts	0x06B2, r1
    41ea:	83 e0       	ldi	r24, 0x03	; 3
    41ec:	80 93 b4 06 	sts	0x06B4, r24
    41f0:	8a e0       	ldi	r24, 0x0A	; 10
    41f2:	97 ed       	ldi	r25, 0xD7	; 215
    41f4:	a3 e2       	ldi	r26, 0x23	; 35
    41f6:	bc e3       	ldi	r27, 0x3C	; 60
    41f8:	80 93 b5 06 	sts	0x06B5, r24
    41fc:	90 93 b6 06 	sts	0x06B6, r25
    4200:	a0 93 b7 06 	sts	0x06B7, r26
    4204:	b0 93 b8 06 	sts	0x06B8, r27
    4208:	8f e6       	ldi	r24, 0x6F	; 111
    420a:	92 e1       	ldi	r25, 0x12	; 18
    420c:	a3 e0       	ldi	r26, 0x03	; 3
    420e:	bb e3       	ldi	r27, 0x3B	; 59
    4210:	80 93 b9 06 	sts	0x06B9, r24
    4214:	90 93 ba 06 	sts	0x06BA, r25
    4218:	a0 93 bb 06 	sts	0x06BB, r26
    421c:	b0 93 bc 06 	sts	0x06BC, r27
    4220:	10 92 be 06 	sts	0x06BE, r1
    4224:	80 e0       	ldi	r24, 0x00	; 0
    4226:	90 e0       	ldi	r25, 0x00	; 0
    4228:	a8 ec       	ldi	r26, 0xC8	; 200
    422a:	b1 e4       	ldi	r27, 0x41	; 65
    422c:	80 93 bf 06 	sts	0x06BF, r24
    4230:	90 93 c0 06 	sts	0x06C0, r25
    4234:	a0 93 c1 06 	sts	0x06C1, r26
    4238:	b0 93 c2 06 	sts	0x06C2, r27
    423c:	40 e0       	ldi	r20, 0x00	; 0
    423e:	50 e0       	ldi	r21, 0x00	; 0
    4240:	6a ef       	ldi	r22, 0xFA	; 250
    4242:	73 e4       	ldi	r23, 0x43	; 67
    4244:	40 93 c3 06 	sts	0x06C3, r20
    4248:	50 93 c4 06 	sts	0x06C4, r21
    424c:	60 93 c5 06 	sts	0x06C5, r22
    4250:	70 93 c6 06 	sts	0x06C6, r23
    4254:	8a ef       	ldi	r24, 0xFA	; 250
    4256:	90 e0       	ldi	r25, 0x00	; 0
    4258:	90 93 c8 06 	sts	0x06C8, r25
    425c:	80 93 c7 06 	sts	0x06C7, r24
    4260:	80 e0       	ldi	r24, 0x00	; 0
    4262:	90 e0       	ldi	r25, 0x00	; 0
    4264:	a0 e8       	ldi	r26, 0x80	; 128
    4266:	bf e3       	ldi	r27, 0x3F	; 63
    4268:	80 93 c9 06 	sts	0x06C9, r24
    426c:	90 93 ca 06 	sts	0x06CA, r25
    4270:	a0 93 cb 06 	sts	0x06CB, r26
    4274:	b0 93 cc 06 	sts	0x06CC, r27
    4278:	10 92 bd 06 	sts	0x06BD, r1
    427c:	00 e0       	ldi	r16, 0x00	; 0
    427e:	10 e0       	ldi	r17, 0x00	; 0
    4280:	20 e2       	ldi	r18, 0x20	; 32
    4282:	32 e4       	ldi	r19, 0x42	; 66
    4284:	00 93 80 06 	sts	0x0680, r16
    4288:	10 93 81 06 	sts	0x0681, r17
    428c:	20 93 82 06 	sts	0x0682, r18
    4290:	30 93 83 06 	sts	0x0683, r19
    4294:	00 93 84 06 	sts	0x0684, r16
    4298:	10 93 85 06 	sts	0x0685, r17
    429c:	20 93 86 06 	sts	0x0686, r18
    42a0:	30 93 87 06 	sts	0x0687, r19
    42a4:	00 93 88 06 	sts	0x0688, r16
    42a8:	10 93 89 06 	sts	0x0689, r17
    42ac:	20 93 8a 06 	sts	0x068A, r18
    42b0:	30 93 8b 06 	sts	0x068B, r19
    42b4:	40 93 8c 06 	sts	0x068C, r20
    42b8:	50 93 8d 06 	sts	0x068D, r21
    42bc:	60 93 8e 06 	sts	0x068E, r22
    42c0:	70 93 8f 06 	sts	0x068F, r23
    42c4:	40 93 90 06 	sts	0x0690, r20
    42c8:	50 93 91 06 	sts	0x0691, r21
    42cc:	60 93 92 06 	sts	0x0692, r22
    42d0:	70 93 93 06 	sts	0x0693, r23
    42d4:	40 93 94 06 	sts	0x0694, r20
    42d8:	50 93 95 06 	sts	0x0695, r21
    42dc:	60 93 96 06 	sts	0x0696, r22
    42e0:	70 93 97 06 	sts	0x0697, r23
    42e4:	40 e0       	ldi	r20, 0x00	; 0
    42e6:	50 ea       	ldi	r21, 0xA0	; 160
    42e8:	6c e0       	ldi	r22, 0x0C	; 12
    42ea:	77 e4       	ldi	r23, 0x47	; 71
    42ec:	40 93 98 06 	sts	0x0698, r20
    42f0:	50 93 99 06 	sts	0x0699, r21
    42f4:	60 93 9a 06 	sts	0x069A, r22
    42f8:	70 93 9b 06 	sts	0x069B, r23
    42fc:	40 93 9c 06 	sts	0x069C, r20
    4300:	50 93 9d 06 	sts	0x069D, r21
    4304:	60 93 9e 06 	sts	0x069E, r22
    4308:	70 93 9f 06 	sts	0x069F, r23
    430c:	40 93 a0 06 	sts	0x06A0, r20
    4310:	50 93 a1 06 	sts	0x06A1, r21
    4314:	60 93 a2 06 	sts	0x06A2, r22
    4318:	70 93 a3 06 	sts	0x06A3, r23
    431c:	80 e0       	ldi	r24, 0x00	; 0
    431e:	90 e0       	ldi	r25, 0x00	; 0
    4320:	a8 ed       	ldi	r26, 0xD8	; 216
    4322:	b1 ec       	ldi	r27, 0xC1	; 193
    4324:	80 93 a4 06 	sts	0x06A4, r24
    4328:	90 93 a5 06 	sts	0x06A5, r25
    432c:	a0 93 a6 06 	sts	0x06A6, r26
    4330:	b0 93 a7 06 	sts	0x06A7, r27
    4334:	80 93 a8 06 	sts	0x06A8, r24
    4338:	90 93 a9 06 	sts	0x06A9, r25
    433c:	a0 93 aa 06 	sts	0x06AA, r26
    4340:	b0 93 ab 06 	sts	0x06AB, r27
    4344:	80 e0       	ldi	r24, 0x00	; 0
    4346:	90 e0       	ldi	r25, 0x00	; 0
    4348:	a8 e4       	ldi	r26, 0x48	; 72
    434a:	b3 ec       	ldi	r27, 0xC3	; 195
    434c:	80 93 ac 06 	sts	0x06AC, r24
    4350:	90 93 ad 06 	sts	0x06AD, r25
    4354:	a0 93 ae 06 	sts	0x06AE, r26
    4358:	b0 93 af 06 	sts	0x06AF, r27
    435c:	0e 94 cd 20 	call	0x419a	; 0x419a <write_global_settings>
    4360:	f1 fe       	sbrs	r15, 1
    4362:	11 c0       	rjmp	.+34     	; 0x4386 <settings_restore+0x1d2>
    4364:	8e 01       	movw	r16, r28
    4366:	0f 5f       	subi	r16, 0xFF	; 255
    4368:	1f 4f       	sbci	r17, 0xFF	; 255
    436a:	8c e0       	ldi	r24, 0x0C	; 12
    436c:	f8 01       	movw	r30, r16
    436e:	11 92       	st	Z+, r1
    4370:	8a 95       	dec	r24
    4372:	e9 f7       	brne	.-6      	; 0x436e <settings_restore+0x1ba>
    4374:	e1 2c       	mov	r14, r1
    4376:	b8 01       	movw	r22, r16
    4378:	8e 2d       	mov	r24, r14
    437a:	0e 94 c4 20 	call	0x4188	; 0x4188 <settings_write_coord_data>
    437e:	e3 94       	inc	r14
    4380:	f8 e0       	ldi	r31, 0x08	; 8
    4382:	ef 12       	cpse	r14, r31
    4384:	f8 cf       	rjmp	.-16     	; 0x4376 <settings_restore+0x1c2>
    4386:	f2 fe       	sbrs	r15, 2
    4388:	0a c0       	rjmp	.+20     	; 0x439e <settings_restore+0x1ea>
    438a:	60 e0       	ldi	r22, 0x00	; 0
    438c:	80 e0       	ldi	r24, 0x00	; 0
    438e:	93 e0       	ldi	r25, 0x03	; 3
    4390:	0e 94 0f 20 	call	0x401e	; 0x401e <eeprom_put_char>
    4394:	60 e0       	ldi	r22, 0x00	; 0
    4396:	81 e5       	ldi	r24, 0x51	; 81
    4398:	93 e0       	ldi	r25, 0x03	; 3
    439a:	0e 94 0f 20 	call	0x401e	; 0x401e <eeprom_put_char>
    439e:	f3 fe       	sbrs	r15, 3
    43a0:	05 c0       	rjmp	.+10     	; 0x43ac <settings_restore+0x1f8>
    43a2:	60 e0       	ldi	r22, 0x00	; 0
    43a4:	8e ea       	ldi	r24, 0xAE	; 174
    43a6:	93 e0       	ldi	r25, 0x03	; 3
    43a8:	0e 94 0f 20 	call	0x401e	; 0x401e <eeprom_put_char>
    43ac:	2c 96       	adiw	r28, 0x0c	; 12
    43ae:	0f b6       	in	r0, 0x3f	; 63
    43b0:	f8 94       	cli
    43b2:	de bf       	out	0x3e, r29	; 62
    43b4:	0f be       	out	0x3f, r0	; 63
    43b6:	cd bf       	out	0x3d, r28	; 61
    43b8:	df 91       	pop	r29
    43ba:	cf 91       	pop	r28
    43bc:	1f 91       	pop	r17
    43be:	0f 91       	pop	r16
    43c0:	ff 90       	pop	r15
    43c2:	ef 90       	pop	r14
    43c4:	08 95       	ret

000043c6 <settings_read_startup_line>:
    43c6:	1f 93       	push	r17
    43c8:	cf 93       	push	r28
    43ca:	df 93       	push	r29
    43cc:	18 2f       	mov	r17, r24
    43ce:	eb 01       	movw	r28, r22
    43d0:	81 e5       	ldi	r24, 0x51	; 81
    43d2:	18 9f       	mul	r17, r24
    43d4:	b0 01       	movw	r22, r0
    43d6:	11 24       	eor	r1, r1
    43d8:	7d 5f       	subi	r23, 0xFD	; 253
    43da:	40 e5       	ldi	r20, 0x50	; 80
    43dc:	50 e0       	ldi	r21, 0x00	; 0
    43de:	ce 01       	movw	r24, r28
    43e0:	0e 94 6f 20 	call	0x40de	; 0x40de <memcpy_from_eeprom_with_checksum>
    43e4:	89 2b       	or	r24, r25
    43e6:	39 f4       	brne	.+14     	; 0x43f6 <settings_read_startup_line+0x30>
    43e8:	18 82       	st	Y, r1
    43ea:	be 01       	movw	r22, r28
    43ec:	81 2f       	mov	r24, r17
    43ee:	0e 94 b4 20 	call	0x4168	; 0x4168 <settings_store_startup_line>
    43f2:	80 e0       	ldi	r24, 0x00	; 0
    43f4:	01 c0       	rjmp	.+2      	; 0x43f8 <settings_read_startup_line+0x32>
    43f6:	81 e0       	ldi	r24, 0x01	; 1
    43f8:	df 91       	pop	r29
    43fa:	cf 91       	pop	r28
    43fc:	1f 91       	pop	r17
    43fe:	08 95       	ret

00004400 <settings_read_build_info>:
    4400:	cf 93       	push	r28
    4402:	df 93       	push	r29
    4404:	ec 01       	movw	r28, r24
    4406:	40 e5       	ldi	r20, 0x50	; 80
    4408:	50 e0       	ldi	r21, 0x00	; 0
    440a:	6e ea       	ldi	r22, 0xAE	; 174
    440c:	73 e0       	ldi	r23, 0x03	; 3
    440e:	0e 94 6f 20 	call	0x40de	; 0x40de <memcpy_from_eeprom_with_checksum>
    4412:	89 2b       	or	r24, r25
    4414:	31 f4       	brne	.+12     	; 0x4422 <settings_read_build_info+0x22>
    4416:	18 82       	st	Y, r1
    4418:	ce 01       	movw	r24, r28
    441a:	0e 94 bd 20 	call	0x417a	; 0x417a <settings_store_build_info>
    441e:	80 e0       	ldi	r24, 0x00	; 0
    4420:	01 c0       	rjmp	.+2      	; 0x4424 <settings_read_build_info+0x24>
    4422:	81 e0       	ldi	r24, 0x01	; 1
    4424:	df 91       	pop	r29
    4426:	cf 91       	pop	r28
    4428:	08 95       	ret

0000442a <settings_read_coord_data>:
    442a:	1f 93       	push	r17
    442c:	cf 93       	push	r28
    442e:	df 93       	push	r29
    4430:	18 2f       	mov	r17, r24
    4432:	eb 01       	movw	r28, r22
    4434:	8d e0       	ldi	r24, 0x0D	; 13
    4436:	18 9f       	mul	r17, r24
    4438:	b0 01       	movw	r22, r0
    443a:	11 24       	eor	r1, r1
    443c:	7e 5f       	subi	r23, 0xFE	; 254
    443e:	4c e0       	ldi	r20, 0x0C	; 12
    4440:	50 e0       	ldi	r21, 0x00	; 0
    4442:	ce 01       	movw	r24, r28
    4444:	0e 94 6f 20 	call	0x40de	; 0x40de <memcpy_from_eeprom_with_checksum>
    4448:	89 2b       	or	r24, r25
    444a:	59 f4       	brne	.+22     	; 0x4462 <settings_read_coord_data+0x38>
    444c:	8c e0       	ldi	r24, 0x0C	; 12
    444e:	fe 01       	movw	r30, r28
    4450:	11 92       	st	Z+, r1
    4452:	8a 95       	dec	r24
    4454:	e9 f7       	brne	.-6      	; 0x4450 <settings_read_coord_data+0x26>
    4456:	be 01       	movw	r22, r28
    4458:	81 2f       	mov	r24, r17
    445a:	0e 94 c4 20 	call	0x4188	; 0x4188 <settings_write_coord_data>
    445e:	80 e0       	ldi	r24, 0x00	; 0
    4460:	01 c0       	rjmp	.+2      	; 0x4464 <settings_read_coord_data+0x3a>
    4462:	81 e0       	ldi	r24, 0x01	; 1
    4464:	df 91       	pop	r29
    4466:	cf 91       	pop	r28
    4468:	1f 91       	pop	r17
    446a:	08 95       	ret

0000446c <read_global_settings>:
    446c:	80 e0       	ldi	r24, 0x00	; 0
    446e:	90 e0       	ldi	r25, 0x00	; 0
    4470:	0e 94 07 20 	call	0x400e	; 0x400e <eeprom_get_char>
    4474:	89 30       	cpi	r24, 0x09	; 9
    4476:	59 f4       	brne	.+22     	; 0x448e <read_global_settings+0x22>
    4478:	4d e4       	ldi	r20, 0x4D	; 77
    447a:	50 e0       	ldi	r21, 0x00	; 0
    447c:	61 e0       	ldi	r22, 0x01	; 1
    447e:	70 e0       	ldi	r23, 0x00	; 0
    4480:	80 e8       	ldi	r24, 0x80	; 128
    4482:	96 e0       	ldi	r25, 0x06	; 6
    4484:	0e 94 6f 20 	call	0x40de	; 0x40de <memcpy_from_eeprom_with_checksum>
    4488:	21 e0       	ldi	r18, 0x01	; 1
    448a:	89 2b       	or	r24, r25
    448c:	09 f4       	brne	.+2      	; 0x4490 <read_global_settings+0x24>
    448e:	20 e0       	ldi	r18, 0x00	; 0
    4490:	82 2f       	mov	r24, r18
    4492:	08 95       	ret

00004494 <settings_store_global_setting>:
    4494:	cf 92       	push	r12
    4496:	df 92       	push	r13
    4498:	ef 92       	push	r14
    449a:	ff 92       	push	r15
    449c:	cf 93       	push	r28
    449e:	df 93       	push	r29
    44a0:	c8 2f       	mov	r28, r24
    44a2:	6a 01       	movw	r12, r20
    44a4:	7b 01       	movw	r14, r22
    44a6:	20 e0       	ldi	r18, 0x00	; 0
    44a8:	30 e0       	ldi	r19, 0x00	; 0
    44aa:	a9 01       	movw	r20, r18
    44ac:	c7 01       	movw	r24, r14
    44ae:	b6 01       	movw	r22, r12
    44b0:	0e 94 df 34 	call	0x69be	; 0x69be <__cmpsf2>
    44b4:	87 fd       	sbrc	r24, 7
    44b6:	e6 c0       	rjmp	.+460    	; 0x4684 <settings_store_global_setting+0x1f0>
    44b8:	c4 36       	cpi	r28, 0x64	; 100
    44ba:	08 f4       	brcc	.+2      	; 0x44be <settings_store_global_setting+0x2a>
    44bc:	45 c0       	rjmp	.+138    	; 0x4548 <settings_store_global_setting+0xb4>
    44be:	2c e9       	ldi	r18, 0x9C	; 156
    44c0:	2c 0f       	add	r18, r28
    44c2:	80 e0       	ldi	r24, 0x00	; 0
    44c4:	23 30       	cpi	r18, 0x03	; 3
    44c6:	b8 f5       	brcc	.+110    	; 0x4536 <settings_store_global_setting+0xa2>
    44c8:	30 e0       	ldi	r19, 0x00	; 0
    44ca:	82 30       	cpi	r24, 0x02	; 2
    44cc:	79 f0       	breq	.+30     	; 0x44ec <settings_store_global_setting+0x58>
    44ce:	f9 01       	movw	r30, r18
    44d0:	ee 0f       	add	r30, r30
    44d2:	ff 1f       	adc	r31, r31
    44d4:	ee 0f       	add	r30, r30
    44d6:	ff 1f       	adc	r31, r31
    44d8:	83 30       	cpi	r24, 0x03	; 3
    44da:	11 f1       	breq	.+68     	; 0x4520 <settings_store_global_setting+0x8c>
    44dc:	81 30       	cpi	r24, 0x01	; 1
    44de:	19 f0       	breq	.+6      	; 0x44e6 <settings_store_global_setting+0x52>
    44e0:	e0 58       	subi	r30, 0x80	; 128
    44e2:	f9 4f       	sbci	r31, 0xF9	; 249
    44e4:	23 c0       	rjmp	.+70     	; 0x452c <settings_store_global_setting+0x98>
    44e6:	e4 57       	subi	r30, 0x74	; 116
    44e8:	f9 4f       	sbci	r31, 0xF9	; 249
    44ea:	20 c0       	rjmp	.+64     	; 0x452c <settings_store_global_setting+0x98>
    44ec:	e9 01       	movw	r28, r18
    44ee:	cc 0f       	add	r28, r28
    44f0:	dd 1f       	adc	r29, r29
    44f2:	cc 0f       	add	r28, r28
    44f4:	dd 1f       	adc	r29, r29
    44f6:	c8 56       	subi	r28, 0x68	; 104
    44f8:	d9 4f       	sbci	r29, 0xF9	; 249
    44fa:	20 e0       	ldi	r18, 0x00	; 0
    44fc:	30 e0       	ldi	r19, 0x00	; 0
    44fe:	40 e7       	ldi	r20, 0x70	; 112
    4500:	52 e4       	ldi	r21, 0x42	; 66
    4502:	c7 01       	movw	r24, r14
    4504:	b6 01       	movw	r22, r12
    4506:	0e 94 1d 37 	call	0x6e3a	; 0x6e3a <__mulsf3>
    450a:	20 e0       	ldi	r18, 0x00	; 0
    450c:	30 e0       	ldi	r19, 0x00	; 0
    450e:	40 e7       	ldi	r20, 0x70	; 112
    4510:	52 e4       	ldi	r21, 0x42	; 66
    4512:	0e 94 1d 37 	call	0x6e3a	; 0x6e3a <__mulsf3>
    4516:	68 83       	st	Y, r22
    4518:	79 83       	std	Y+1, r23	; 0x01
    451a:	8a 83       	std	Y+2, r24	; 0x02
    451c:	9b 83       	std	Y+3, r25	; 0x03
    451e:	ae c0       	rjmp	.+348    	; 0x467c <settings_store_global_setting+0x1e8>
    4520:	ec 55       	subi	r30, 0x5C	; 92
    4522:	f9 4f       	sbci	r31, 0xF9	; 249
    4524:	f7 fa       	bst	r15, 7
    4526:	f0 94       	com	r15
    4528:	f7 f8       	bld	r15, 7
    452a:	f0 94       	com	r15
    452c:	c0 82       	st	Z, r12
    452e:	d1 82       	std	Z+1, r13	; 0x01
    4530:	e2 82       	std	Z+2, r14	; 0x02
    4532:	f3 82       	std	Z+3, r15	; 0x03
    4534:	a3 c0       	rjmp	.+326    	; 0x467c <settings_store_global_setting+0x1e8>
    4536:	8f 5f       	subi	r24, 0xFF	; 255
    4538:	2a 30       	cpi	r18, 0x0A	; 10
    453a:	08 f4       	brcc	.+2      	; 0x453e <settings_store_global_setting+0xaa>
    453c:	a5 c0       	rjmp	.+330    	; 0x4688 <settings_store_global_setting+0x1f4>
    453e:	84 30       	cpi	r24, 0x04	; 4
    4540:	09 f4       	brne	.+2      	; 0x4544 <settings_store_global_setting+0xb0>
    4542:	a2 c0       	rjmp	.+324    	; 0x4688 <settings_store_global_setting+0x1f4>
    4544:	2a 50       	subi	r18, 0x0A	; 10
    4546:	be cf       	rjmp	.-132    	; 0x44c4 <settings_store_global_setting+0x30>
    4548:	c7 01       	movw	r24, r14
    454a:	b6 01       	movw	r22, r12
    454c:	0e 94 eb 37 	call	0x6fd6	; 0x6fd6 <trunc>
    4550:	0e 94 53 35 	call	0x6aa6	; 0x6aa6 <__fixunssfsi>
    4554:	8c 2f       	mov	r24, r28
    4556:	90 e0       	ldi	r25, 0x00	; 0
    4558:	8c 31       	cpi	r24, 0x1C	; 28
    455a:	91 05       	cpc	r25, r1
    455c:	08 f0       	brcs	.+2      	; 0x4560 <settings_store_global_setting+0xcc>
    455e:	94 c0       	rjmp	.+296    	; 0x4688 <settings_store_global_setting+0x1f4>
    4560:	fc 01       	movw	r30, r24
    4562:	e7 5a       	subi	r30, 0xA7	; 167
    4564:	ff 4f       	sbci	r31, 0xFF	; 255
    4566:	0c 94 38 38 	jmp	0x7070	; 0x7070 <__tablejump2__>
    456a:	63 30       	cpi	r22, 0x03	; 3
    456c:	08 f4       	brcc	.+2      	; 0x4570 <settings_store_global_setting+0xdc>
    456e:	8e c0       	rjmp	.+284    	; 0x468c <settings_store_global_setting+0x1f8>
    4570:	60 93 b0 06 	sts	0x06B0, r22
    4574:	83 c0       	rjmp	.+262    	; 0x467c <settings_store_global_setting+0x1e8>
    4576:	60 93 b3 06 	sts	0x06B3, r22
    457a:	80 c0       	rjmp	.+256    	; 0x467c <settings_store_global_setting+0x1e8>
    457c:	60 93 b1 06 	sts	0x06B1, r22
    4580:	02 c0       	rjmp	.+4      	; 0x4586 <settings_store_global_setting+0xf2>
    4582:	60 93 b2 06 	sts	0x06B2, r22
    4586:	0e 94 10 19 	call	0x3220	; 0x3220 <st_generate_step_dir_invert_masks>
    458a:	78 c0       	rjmp	.+240    	; 0x467c <settings_store_global_setting+0x1e8>
    458c:	80 91 bd 06 	lds	r24, 0x06BD
    4590:	66 23       	and	r22, r22
    4592:	11 f0       	breq	.+4      	; 0x4598 <settings_store_global_setting+0x104>
    4594:	84 60       	ori	r24, 0x04	; 4
    4596:	07 c0       	rjmp	.+14     	; 0x45a6 <settings_store_global_setting+0x112>
    4598:	8b 7f       	andi	r24, 0xFB	; 251
    459a:	05 c0       	rjmp	.+10     	; 0x45a6 <settings_store_global_setting+0x112>
    459c:	80 91 bd 06 	lds	r24, 0x06BD
    45a0:	66 23       	and	r22, r22
    45a2:	21 f0       	breq	.+8      	; 0x45ac <settings_store_global_setting+0x118>
    45a4:	80 64       	ori	r24, 0x40	; 64
    45a6:	80 93 bd 06 	sts	0x06BD, r24
    45aa:	68 c0       	rjmp	.+208    	; 0x467c <settings_store_global_setting+0x1e8>
    45ac:	8f 7b       	andi	r24, 0xBF	; 191
    45ae:	fb cf       	rjmp	.-10     	; 0x45a6 <settings_store_global_setting+0x112>
    45b0:	80 91 bd 06 	lds	r24, 0x06BD
    45b4:	66 23       	and	r22, r22
    45b6:	11 f0       	breq	.+4      	; 0x45bc <settings_store_global_setting+0x128>
    45b8:	80 68       	ori	r24, 0x80	; 128
    45ba:	f5 cf       	rjmp	.-22     	; 0x45a6 <settings_store_global_setting+0x112>
    45bc:	8f 77       	andi	r24, 0x7F	; 127
    45be:	f3 cf       	rjmp	.-26     	; 0x45a6 <settings_store_global_setting+0x112>
    45c0:	60 93 b4 06 	sts	0x06B4, r22
    45c4:	5b c0       	rjmp	.+182    	; 0x467c <settings_store_global_setting+0x1e8>
    45c6:	c0 92 b5 06 	sts	0x06B5, r12
    45ca:	d0 92 b6 06 	sts	0x06B6, r13
    45ce:	e0 92 b7 06 	sts	0x06B7, r14
    45d2:	f0 92 b8 06 	sts	0x06B8, r15
    45d6:	52 c0       	rjmp	.+164    	; 0x467c <settings_store_global_setting+0x1e8>
    45d8:	c0 92 b9 06 	sts	0x06B9, r12
    45dc:	d0 92 ba 06 	sts	0x06BA, r13
    45e0:	e0 92 bb 06 	sts	0x06BB, r14
    45e4:	f0 92 bc 06 	sts	0x06BC, r15
    45e8:	49 c0       	rjmp	.+146    	; 0x467c <settings_store_global_setting+0x1e8>
    45ea:	80 91 bd 06 	lds	r24, 0x06BD
    45ee:	66 23       	and	r22, r22
    45f0:	11 f0       	breq	.+4      	; 0x45f6 <settings_store_global_setting+0x162>
    45f2:	81 60       	ori	r24, 0x01	; 1
    45f4:	d8 cf       	rjmp	.-80     	; 0x45a6 <settings_store_global_setting+0x112>
    45f6:	8e 7f       	andi	r24, 0xFE	; 254
    45f8:	d6 cf       	rjmp	.-84     	; 0x45a6 <settings_store_global_setting+0x112>
    45fa:	80 91 bd 06 	lds	r24, 0x06BD
    45fe:	66 23       	and	r22, r22
    4600:	21 f0       	breq	.+8      	; 0x460a <settings_store_global_setting+0x176>
    4602:	84 ff       	sbrs	r24, 4
    4604:	45 c0       	rjmp	.+138    	; 0x4690 <settings_store_global_setting+0x1fc>
    4606:	80 62       	ori	r24, 0x20	; 32
    4608:	ce cf       	rjmp	.-100    	; 0x45a6 <settings_store_global_setting+0x112>
    460a:	8f 7d       	andi	r24, 0xDF	; 223
    460c:	cc cf       	rjmp	.-104    	; 0x45a6 <settings_store_global_setting+0x112>
    460e:	80 91 bd 06 	lds	r24, 0x06BD
    4612:	66 23       	and	r22, r22
    4614:	11 f0       	breq	.+4      	; 0x461a <settings_store_global_setting+0x186>
    4616:	88 60       	ori	r24, 0x08	; 8
    4618:	01 c0       	rjmp	.+2      	; 0x461c <settings_store_global_setting+0x188>
    461a:	87 7f       	andi	r24, 0xF7	; 247
    461c:	80 93 bd 06 	sts	0x06BD, r24
    4620:	0e 94 16 29 	call	0x522c	; 0x522c <limits_init>
    4624:	2b c0       	rjmp	.+86     	; 0x467c <settings_store_global_setting+0x1e8>
    4626:	80 91 bd 06 	lds	r24, 0x06BD
    462a:	66 23       	and	r22, r22
    462c:	11 f0       	breq	.+4      	; 0x4632 <settings_store_global_setting+0x19e>
    462e:	80 61       	ori	r24, 0x10	; 16
    4630:	ba cf       	rjmp	.-140    	; 0x45a6 <settings_store_global_setting+0x112>
    4632:	8f 7c       	andi	r24, 0xCF	; 207
    4634:	b8 cf       	rjmp	.-144    	; 0x45a6 <settings_store_global_setting+0x112>
    4636:	60 93 be 06 	sts	0x06BE, r22
    463a:	20 c0       	rjmp	.+64     	; 0x467c <settings_store_global_setting+0x1e8>
    463c:	c0 92 bf 06 	sts	0x06BF, r12
    4640:	d0 92 c0 06 	sts	0x06C0, r13
    4644:	e0 92 c1 06 	sts	0x06C1, r14
    4648:	f0 92 c2 06 	sts	0x06C2, r15
    464c:	17 c0       	rjmp	.+46     	; 0x467c <settings_store_global_setting+0x1e8>
    464e:	c0 92 c3 06 	sts	0x06C3, r12
    4652:	d0 92 c4 06 	sts	0x06C4, r13
    4656:	e0 92 c5 06 	sts	0x06C5, r14
    465a:	f0 92 c6 06 	sts	0x06C6, r15
    465e:	0e c0       	rjmp	.+28     	; 0x467c <settings_store_global_setting+0x1e8>
    4660:	70 e0       	ldi	r23, 0x00	; 0
    4662:	70 93 c8 06 	sts	0x06C8, r23
    4666:	60 93 c7 06 	sts	0x06C7, r22
    466a:	08 c0       	rjmp	.+16     	; 0x467c <settings_store_global_setting+0x1e8>
    466c:	c0 92 c9 06 	sts	0x06C9, r12
    4670:	d0 92 ca 06 	sts	0x06CA, r13
    4674:	e0 92 cb 06 	sts	0x06CB, r14
    4678:	f0 92 cc 06 	sts	0x06CC, r15
    467c:	0e 94 cd 20 	call	0x419a	; 0x419a <write_global_settings>
    4680:	80 e0       	ldi	r24, 0x00	; 0
    4682:	07 c0       	rjmp	.+14     	; 0x4692 <settings_store_global_setting+0x1fe>
    4684:	84 e0       	ldi	r24, 0x04	; 4
    4686:	05 c0       	rjmp	.+10     	; 0x4692 <settings_store_global_setting+0x1fe>
    4688:	83 e0       	ldi	r24, 0x03	; 3
    468a:	03 c0       	rjmp	.+6      	; 0x4692 <settings_store_global_setting+0x1fe>
    468c:	86 e0       	ldi	r24, 0x06	; 6
    468e:	01 c0       	rjmp	.+2      	; 0x4692 <settings_store_global_setting+0x1fe>
    4690:	8a e0       	ldi	r24, 0x0A	; 10
    4692:	df 91       	pop	r29
    4694:	cf 91       	pop	r28
    4696:	ff 90       	pop	r15
    4698:	ef 90       	pop	r14
    469a:	df 90       	pop	r13
    469c:	cf 90       	pop	r12
    469e:	08 95       	ret

000046a0 <settings_init>:
    46a0:	0e 94 36 22 	call	0x446c	; 0x446c <read_global_settings>
    46a4:	81 11       	cpse	r24, r1
    46a6:	08 c0       	rjmp	.+16     	; 0x46b8 <settings_init+0x18>
    46a8:	87 e0       	ldi	r24, 0x07	; 7
    46aa:	0e 94 44 2d 	call	0x5a88	; 0x5a88 <report_status_message>
    46ae:	8f ef       	ldi	r24, 0xFF	; 255
    46b0:	0e 94 da 20 	call	0x41b4	; 0x41b4 <settings_restore>
    46b4:	0c 94 f3 2d 	jmp	0x5be6	; 0x5be6 <report_grbl_settings>
    46b8:	08 95       	ret

000046ba <get_step_pin_mask>:
    46ba:	88 23       	and	r24, r24
    46bc:	21 f0       	breq	.+8      	; 0x46c6 <get_step_pin_mask+0xc>
    46be:	81 30       	cpi	r24, 0x01	; 1
    46c0:	21 f4       	brne	.+8      	; 0x46ca <get_step_pin_mask+0x10>
    46c2:	88 e0       	ldi	r24, 0x08	; 8
    46c4:	08 95       	ret
    46c6:	84 e0       	ldi	r24, 0x04	; 4
    46c8:	08 95       	ret
    46ca:	80 e1       	ldi	r24, 0x10	; 16
    46cc:	08 95       	ret

000046ce <get_direction_pin_mask>:
    46ce:	88 23       	and	r24, r24
    46d0:	21 f0       	breq	.+8      	; 0x46da <get_direction_pin_mask+0xc>
    46d2:	81 30       	cpi	r24, 0x01	; 1
    46d4:	21 f4       	brne	.+8      	; 0x46de <get_direction_pin_mask+0x10>
    46d6:	80 e4       	ldi	r24, 0x40	; 64
    46d8:	08 95       	ret
    46da:	80 e2       	ldi	r24, 0x20	; 32
    46dc:	08 95       	ret
    46de:	80 e8       	ldi	r24, 0x80	; 128
    46e0:	08 95       	ret

000046e2 <get_limit_pin_mask>:
    46e2:	88 23       	and	r24, r24
    46e4:	21 f0       	breq	.+8      	; 0x46ee <get_limit_pin_mask+0xc>
    46e6:	81 30       	cpi	r24, 0x01	; 1
    46e8:	21 f4       	brne	.+8      	; 0x46f2 <get_limit_pin_mask+0x10>
    46ea:	84 e0       	ldi	r24, 0x04	; 4
    46ec:	08 95       	ret
    46ee:	82 e0       	ldi	r24, 0x02	; 2
    46f0:	08 95       	ret
    46f2:	80 e1       	ldi	r24, 0x10	; 16
    46f4:	08 95       	ret

000046f6 <planner_recalculate>:
    46f6:	4f 92       	push	r4
    46f8:	5f 92       	push	r5
    46fa:	6f 92       	push	r6
    46fc:	7f 92       	push	r7
    46fe:	8f 92       	push	r8
    4700:	9f 92       	push	r9
    4702:	af 92       	push	r10
    4704:	bf 92       	push	r11
    4706:	cf 92       	push	r12
    4708:	df 92       	push	r13
    470a:	ef 92       	push	r14
    470c:	ff 92       	push	r15
    470e:	0f 93       	push	r16
    4710:	1f 93       	push	r17
    4712:	cf 93       	push	r28
    4714:	df 93       	push	r29
    4716:	10 91 43 02 	lds	r17, 0x0243
    471a:	11 11       	cpse	r17, r1
    471c:	01 c0       	rjmp	.+2      	; 0x4720 <planner_recalculate+0x2a>
    471e:	12 e1       	ldi	r17, 0x12	; 18
    4720:	11 50       	subi	r17, 0x01	; 1
    4722:	00 91 41 02 	lds	r16, 0x0241
    4726:	10 17       	cp	r17, r16
    4728:	09 f4       	brne	.+2      	; 0x472c <planner_recalculate+0x36>
    472a:	ef c0       	rjmp	.+478    	; 0x490a <planner_recalculate+0x214>
    472c:	89 e2       	ldi	r24, 0x29	; 41
    472e:	18 9f       	mul	r17, r24
    4730:	e0 01       	movw	r28, r0
    4732:	11 24       	eor	r1, r1
    4734:	cb 5b       	subi	r28, 0xBB	; 187
    4736:	dd 4f       	sbci	r29, 0xFD	; 253
    4738:	8d 88       	ldd	r8, Y+21	; 0x15
    473a:	9e 88       	ldd	r9, Y+22	; 0x16
    473c:	af 88       	ldd	r10, Y+23	; 0x17
    473e:	b8 8c       	ldd	r11, Y+24	; 0x18
    4740:	69 a1       	ldd	r22, Y+33	; 0x21
    4742:	7a a1       	ldd	r23, Y+34	; 0x22
    4744:	8b a1       	ldd	r24, Y+35	; 0x23
    4746:	9c a1       	ldd	r25, Y+36	; 0x24
    4748:	9b 01       	movw	r18, r22
    474a:	ac 01       	movw	r20, r24
    474c:	0e 94 06 34 	call	0x680c	; 0x680c <__addsf3>
    4750:	2d a1       	ldd	r18, Y+37	; 0x25
    4752:	3e a1       	ldd	r19, Y+38	; 0x26
    4754:	4f a1       	ldd	r20, Y+39	; 0x27
    4756:	58 a5       	ldd	r21, Y+40	; 0x28
    4758:	0e 94 1d 37 	call	0x6e3a	; 0x6e3a <__mulsf3>
    475c:	6b 01       	movw	r12, r22
    475e:	7c 01       	movw	r14, r24
    4760:	9b 01       	movw	r18, r22
    4762:	ac 01       	movw	r20, r24
    4764:	b4 01       	movw	r22, r8
    4766:	c5 01       	movw	r24, r10
    4768:	0e 94 df 34 	call	0x69be	; 0x69be <__cmpsf2>
    476c:	87 ff       	sbrs	r24, 7
    476e:	02 c0       	rjmp	.+4      	; 0x4774 <planner_recalculate+0x7e>
    4770:	64 01       	movw	r12, r8
    4772:	75 01       	movw	r14, r10
    4774:	a6 01       	movw	r20, r12
    4776:	b7 01       	movw	r22, r14
    4778:	49 8b       	std	Y+17, r20	; 0x11
    477a:	5a 8b       	std	Y+18, r21	; 0x12
    477c:	6b 8b       	std	Y+19, r22	; 0x13
    477e:	7c 8b       	std	Y+20, r23	; 0x14
    4780:	11 11       	cpse	r17, r1
    4782:	01 c0       	rjmp	.+2      	; 0x4786 <planner_recalculate+0x90>
    4784:	12 e1       	ldi	r17, 0x12	; 18
    4786:	77 24       	eor	r7, r7
    4788:	7a 94       	dec	r7
    478a:	71 0e       	add	r7, r17
    478c:	70 16       	cp	r7, r16
    478e:	19 f0       	breq	.+6      	; 0x4796 <planner_recalculate+0xa0>
    4790:	29 e2       	ldi	r18, 0x29	; 41
    4792:	62 2e       	mov	r6, r18
    4794:	27 c0       	rjmp	.+78     	; 0x47e4 <planner_recalculate+0xee>
    4796:	80 91 44 02 	lds	r24, 0x0244
    479a:	08 13       	cpse	r16, r24
    479c:	51 c0       	rjmp	.+162    	; 0x4840 <planner_recalculate+0x14a>
    479e:	0e 94 9a 19 	call	0x3334	; 0x3334 <st_update_plan_block_parameters>
    47a2:	4e c0       	rjmp	.+156    	; 0x4840 <planner_recalculate+0x14a>
    47a4:	67 9c       	mul	r6, r7
    47a6:	80 01       	movw	r16, r0
    47a8:	11 24       	eor	r1, r1
    47aa:	0b 5b       	subi	r16, 0xBB	; 187
    47ac:	1d 4f       	sbci	r17, 0xFD	; 253
    47ae:	71 10       	cpse	r7, r1
    47b0:	02 c0       	rjmp	.+4      	; 0x47b6 <planner_recalculate+0xc0>
    47b2:	92 e1       	ldi	r25, 0x12	; 18
    47b4:	79 2e       	mov	r7, r25
    47b6:	7a 94       	dec	r7
    47b8:	80 91 44 02 	lds	r24, 0x0244
    47bc:	78 12       	cpse	r7, r24
    47be:	02 c0       	rjmp	.+4      	; 0x47c4 <planner_recalculate+0xce>
    47c0:	0e 94 9a 19 	call	0x3334	; 0x3334 <st_update_plan_block_parameters>
    47c4:	f8 01       	movw	r30, r16
    47c6:	c5 88       	ldd	r12, Z+21	; 0x15
    47c8:	d6 88       	ldd	r13, Z+22	; 0x16
    47ca:	e7 88       	ldd	r14, Z+23	; 0x17
    47cc:	f0 8c       	ldd	r15, Z+24	; 0x18
    47ce:	a7 01       	movw	r20, r14
    47d0:	96 01       	movw	r18, r12
    47d2:	61 89       	ldd	r22, Z+17	; 0x11
    47d4:	72 89       	ldd	r23, Z+18	; 0x12
    47d6:	83 89       	ldd	r24, Z+19	; 0x13
    47d8:	94 89       	ldd	r25, Z+20	; 0x14
    47da:	0e 94 df 34 	call	0x69be	; 0x69be <__cmpsf2>
    47de:	81 11       	cpse	r24, r1
    47e0:	06 c0       	rjmp	.+12     	; 0x47ee <planner_recalculate+0xf8>
    47e2:	e8 01       	movw	r28, r16
    47e4:	80 91 41 02 	lds	r24, 0x0241
    47e8:	78 12       	cpse	r7, r24
    47ea:	dc cf       	rjmp	.-72     	; 0x47a4 <planner_recalculate+0xae>
    47ec:	29 c0       	rjmp	.+82     	; 0x4840 <planner_recalculate+0x14a>
    47ee:	f8 01       	movw	r30, r16
    47f0:	61 a1       	ldd	r22, Z+33	; 0x21
    47f2:	72 a1       	ldd	r23, Z+34	; 0x22
    47f4:	83 a1       	ldd	r24, Z+35	; 0x23
    47f6:	94 a1       	ldd	r25, Z+36	; 0x24
    47f8:	9b 01       	movw	r18, r22
    47fa:	ac 01       	movw	r20, r24
    47fc:	0e 94 06 34 	call	0x680c	; 0x680c <__addsf3>
    4800:	f8 01       	movw	r30, r16
    4802:	25 a1       	ldd	r18, Z+37	; 0x25
    4804:	36 a1       	ldd	r19, Z+38	; 0x26
    4806:	47 a1       	ldd	r20, Z+39	; 0x27
    4808:	50 a5       	ldd	r21, Z+40	; 0x28
    480a:	0e 94 1d 37 	call	0x6e3a	; 0x6e3a <__mulsf3>
    480e:	29 89       	ldd	r18, Y+17	; 0x11
    4810:	3a 89       	ldd	r19, Y+18	; 0x12
    4812:	4b 89       	ldd	r20, Y+19	; 0x13
    4814:	5c 89       	ldd	r21, Y+20	; 0x14
    4816:	0e 94 06 34 	call	0x680c	; 0x680c <__addsf3>
    481a:	4b 01       	movw	r8, r22
    481c:	5c 01       	movw	r10, r24
    481e:	a7 01       	movw	r20, r14
    4820:	96 01       	movw	r18, r12
    4822:	0e 94 df 34 	call	0x69be	; 0x69be <__cmpsf2>
    4826:	f8 01       	movw	r30, r16
    4828:	87 ff       	sbrs	r24, 7
    482a:	05 c0       	rjmp	.+10     	; 0x4836 <planner_recalculate+0x140>
    482c:	81 8a       	std	Z+17, r8	; 0x11
    482e:	92 8a       	std	Z+18, r9	; 0x12
    4830:	a3 8a       	std	Z+19, r10	; 0x13
    4832:	b4 8a       	std	Z+20, r11	; 0x14
    4834:	d6 cf       	rjmp	.-84     	; 0x47e2 <planner_recalculate+0xec>
    4836:	c1 8a       	std	Z+17, r12	; 0x11
    4838:	d2 8a       	std	Z+18, r13	; 0x12
    483a:	e3 8a       	std	Z+19, r14	; 0x13
    483c:	f4 8a       	std	Z+20, r15	; 0x14
    483e:	d1 cf       	rjmp	.-94     	; 0x47e2 <planner_recalculate+0xec>
    4840:	60 90 41 02 	lds	r6, 0x0241
    4844:	f9 e2       	ldi	r31, 0x29	; 41
    4846:	6f 9e       	mul	r6, r31
    4848:	80 01       	movw	r16, r0
    484a:	11 24       	eor	r1, r1
    484c:	0b 5b       	subi	r16, 0xBB	; 187
    484e:	1d 4f       	sbci	r17, 0xFD	; 253
    4850:	77 24       	eor	r7, r7
    4852:	73 94       	inc	r7
    4854:	76 0c       	add	r7, r6
    4856:	82 e1       	ldi	r24, 0x12	; 18
    4858:	78 12       	cpse	r7, r24
    485a:	01 c0       	rjmp	.+2      	; 0x485e <planner_recalculate+0x168>
    485c:	71 2c       	mov	r7, r1
    485e:	50 90 43 02 	lds	r5, 0x0243
    4862:	89 e2       	ldi	r24, 0x29	; 41
    4864:	48 2e       	mov	r4, r24
    4866:	75 14       	cp	r7, r5
    4868:	09 f4       	brne	.+2      	; 0x486c <planner_recalculate+0x176>
    486a:	4d c0       	rjmp	.+154    	; 0x4906 <planner_recalculate+0x210>
    486c:	47 9c       	mul	r4, r7
    486e:	e0 01       	movw	r28, r0
    4870:	11 24       	eor	r1, r1
    4872:	cb 5b       	subi	r28, 0xBB	; 187
    4874:	dd 4f       	sbci	r29, 0xFD	; 253
    4876:	f8 01       	movw	r30, r16
    4878:	81 88       	ldd	r8, Z+17	; 0x11
    487a:	92 88       	ldd	r9, Z+18	; 0x12
    487c:	a3 88       	ldd	r10, Z+19	; 0x13
    487e:	b4 88       	ldd	r11, Z+20	; 0x14
    4880:	c9 88       	ldd	r12, Y+17	; 0x11
    4882:	da 88       	ldd	r13, Y+18	; 0x12
    4884:	eb 88       	ldd	r14, Y+19	; 0x13
    4886:	fc 88       	ldd	r15, Y+20	; 0x14
    4888:	a7 01       	movw	r20, r14
    488a:	96 01       	movw	r18, r12
    488c:	c5 01       	movw	r24, r10
    488e:	b4 01       	movw	r22, r8
    4890:	0e 94 df 34 	call	0x69be	; 0x69be <__cmpsf2>
    4894:	87 ff       	sbrs	r24, 7
    4896:	23 c0       	rjmp	.+70     	; 0x48de <planner_recalculate+0x1e8>
    4898:	f8 01       	movw	r30, r16
    489a:	61 a1       	ldd	r22, Z+33	; 0x21
    489c:	72 a1       	ldd	r23, Z+34	; 0x22
    489e:	83 a1       	ldd	r24, Z+35	; 0x23
    48a0:	94 a1       	ldd	r25, Z+36	; 0x24
    48a2:	9b 01       	movw	r18, r22
    48a4:	ac 01       	movw	r20, r24
    48a6:	0e 94 06 34 	call	0x680c	; 0x680c <__addsf3>
    48aa:	f8 01       	movw	r30, r16
    48ac:	25 a1       	ldd	r18, Z+37	; 0x25
    48ae:	36 a1       	ldd	r19, Z+38	; 0x26
    48b0:	47 a1       	ldd	r20, Z+39	; 0x27
    48b2:	50 a5       	ldd	r21, Z+40	; 0x28
    48b4:	0e 94 1d 37 	call	0x6e3a	; 0x6e3a <__mulsf3>
    48b8:	9b 01       	movw	r18, r22
    48ba:	ac 01       	movw	r20, r24
    48bc:	c5 01       	movw	r24, r10
    48be:	b4 01       	movw	r22, r8
    48c0:	0e 94 06 34 	call	0x680c	; 0x680c <__addsf3>
    48c4:	4b 01       	movw	r8, r22
    48c6:	5c 01       	movw	r10, r24
    48c8:	a7 01       	movw	r20, r14
    48ca:	96 01       	movw	r18, r12
    48cc:	0e 94 df 34 	call	0x69be	; 0x69be <__cmpsf2>
    48d0:	87 ff       	sbrs	r24, 7
    48d2:	05 c0       	rjmp	.+10     	; 0x48de <planner_recalculate+0x1e8>
    48d4:	89 8a       	std	Y+17, r8	; 0x11
    48d6:	9a 8a       	std	Y+18, r9	; 0x12
    48d8:	ab 8a       	std	Y+19, r10	; 0x13
    48da:	bc 8a       	std	Y+20, r11	; 0x14
    48dc:	67 2c       	mov	r6, r7
    48de:	2d 89       	ldd	r18, Y+21	; 0x15
    48e0:	3e 89       	ldd	r19, Y+22	; 0x16
    48e2:	4f 89       	ldd	r20, Y+23	; 0x17
    48e4:	58 8d       	ldd	r21, Y+24	; 0x18
    48e6:	69 89       	ldd	r22, Y+17	; 0x11
    48e8:	7a 89       	ldd	r23, Y+18	; 0x12
    48ea:	8b 89       	ldd	r24, Y+19	; 0x13
    48ec:	9c 89       	ldd	r25, Y+20	; 0x14
    48ee:	0e 94 df 34 	call	0x69be	; 0x69be <__cmpsf2>
    48f2:	81 11       	cpse	r24, r1
    48f4:	01 c0       	rjmp	.+2      	; 0x48f8 <planner_recalculate+0x202>
    48f6:	67 2c       	mov	r6, r7
    48f8:	73 94       	inc	r7
    48fa:	f2 e1       	ldi	r31, 0x12	; 18
    48fc:	7f 12       	cpse	r7, r31
    48fe:	01 c0       	rjmp	.+2      	; 0x4902 <planner_recalculate+0x20c>
    4900:	71 2c       	mov	r7, r1
    4902:	8e 01       	movw	r16, r28
    4904:	b0 cf       	rjmp	.-160    	; 0x4866 <planner_recalculate+0x170>
    4906:	60 92 41 02 	sts	0x0241, r6
    490a:	df 91       	pop	r29
    490c:	cf 91       	pop	r28
    490e:	1f 91       	pop	r17
    4910:	0f 91       	pop	r16
    4912:	ff 90       	pop	r15
    4914:	ef 90       	pop	r14
    4916:	df 90       	pop	r13
    4918:	cf 90       	pop	r12
    491a:	bf 90       	pop	r11
    491c:	af 90       	pop	r10
    491e:	9f 90       	pop	r9
    4920:	8f 90       	pop	r8
    4922:	7f 90       	pop	r7
    4924:	6f 90       	pop	r6
    4926:	5f 90       	pop	r5
    4928:	4f 90       	pop	r4
    492a:	08 95       	ret

0000492c <plan_reset>:
    492c:	8c e1       	ldi	r24, 0x1C	; 28
    492e:	e5 e2       	ldi	r30, 0x25	; 37
    4930:	f2 e0       	ldi	r31, 0x02	; 2
    4932:	df 01       	movw	r26, r30
    4934:	1d 92       	st	X+, r1
    4936:	8a 95       	dec	r24
    4938:	e9 f7       	brne	.-6      	; 0x4934 <plan_reset+0x8>
    493a:	10 92 44 02 	sts	0x0244, r1
    493e:	10 92 43 02 	sts	0x0243, r1
    4942:	81 e0       	ldi	r24, 0x01	; 1
    4944:	80 93 42 02 	sts	0x0242, r24
    4948:	10 92 41 02 	sts	0x0241, r1
    494c:	08 95       	ret

0000494e <plan_discard_current_block>:
    494e:	90 91 44 02 	lds	r25, 0x0244
    4952:	80 91 43 02 	lds	r24, 0x0243
    4956:	89 17       	cp	r24, r25
    4958:	69 f0       	breq	.+26     	; 0x4974 <plan_discard_current_block+0x26>
    495a:	81 e0       	ldi	r24, 0x01	; 1
    495c:	89 0f       	add	r24, r25
    495e:	82 31       	cpi	r24, 0x12	; 18
    4960:	09 f4       	brne	.+2      	; 0x4964 <plan_discard_current_block+0x16>
    4962:	80 e0       	ldi	r24, 0x00	; 0
    4964:	20 91 41 02 	lds	r18, 0x0241
    4968:	92 13       	cpse	r25, r18
    496a:	02 c0       	rjmp	.+4      	; 0x4970 <plan_discard_current_block+0x22>
    496c:	80 93 41 02 	sts	0x0241, r24
    4970:	80 93 44 02 	sts	0x0244, r24
    4974:	08 95       	ret

00004976 <plan_get_current_block>:
    4976:	80 91 44 02 	lds	r24, 0x0244
    497a:	90 91 43 02 	lds	r25, 0x0243
    497e:	98 17       	cp	r25, r24
    4980:	39 f0       	breq	.+14     	; 0x4990 <plan_get_current_block+0x1a>
    4982:	29 e2       	ldi	r18, 0x29	; 41
    4984:	82 9f       	mul	r24, r18
    4986:	c0 01       	movw	r24, r0
    4988:	11 24       	eor	r1, r1
    498a:	8b 5b       	subi	r24, 0xBB	; 187
    498c:	9d 4f       	sbci	r25, 0xFD	; 253
    498e:	08 95       	ret
    4990:	80 e0       	ldi	r24, 0x00	; 0
    4992:	90 e0       	ldi	r25, 0x00	; 0
    4994:	08 95       	ret

00004996 <plan_get_exec_block_exit_speed>:
    4996:	e0 91 44 02 	lds	r30, 0x0244
    499a:	ef 5f       	subi	r30, 0xFF	; 255
    499c:	e2 31       	cpi	r30, 0x12	; 18
    499e:	09 f4       	brne	.+2      	; 0x49a2 <plan_get_exec_block_exit_speed+0xc>
    49a0:	e0 e0       	ldi	r30, 0x00	; 0
    49a2:	80 91 43 02 	lds	r24, 0x0243
    49a6:	e8 17       	cp	r30, r24
    49a8:	61 f0       	breq	.+24     	; 0x49c2 <plan_get_exec_block_exit_speed+0x2c>
    49aa:	89 e2       	ldi	r24, 0x29	; 41
    49ac:	e8 9f       	mul	r30, r24
    49ae:	f0 01       	movw	r30, r0
    49b0:	11 24       	eor	r1, r1
    49b2:	eb 5b       	subi	r30, 0xBB	; 187
    49b4:	fd 4f       	sbci	r31, 0xFD	; 253
    49b6:	61 89       	ldd	r22, Z+17	; 0x11
    49b8:	72 89       	ldd	r23, Z+18	; 0x12
    49ba:	83 89       	ldd	r24, Z+19	; 0x13
    49bc:	94 89       	ldd	r25, Z+20	; 0x14
    49be:	0c 94 aa 37 	jmp	0x6f54	; 0x6f54 <sqrt>
    49c2:	60 e0       	ldi	r22, 0x00	; 0
    49c4:	70 e0       	ldi	r23, 0x00	; 0
    49c6:	cb 01       	movw	r24, r22
    49c8:	08 95       	ret

000049ca <plan_check_full_buffer>:
    49ca:	81 e0       	ldi	r24, 0x01	; 1
    49cc:	20 91 44 02 	lds	r18, 0x0244
    49d0:	90 91 42 02 	lds	r25, 0x0242
    49d4:	29 13       	cpse	r18, r25
    49d6:	80 e0       	ldi	r24, 0x00	; 0
    49d8:	08 95       	ret

000049da <plan_buffer_line>:
    49da:	2f 92       	push	r2
    49dc:	3f 92       	push	r3
    49de:	4f 92       	push	r4
    49e0:	5f 92       	push	r5
    49e2:	6f 92       	push	r6
    49e4:	7f 92       	push	r7
    49e6:	8f 92       	push	r8
    49e8:	9f 92       	push	r9
    49ea:	af 92       	push	r10
    49ec:	bf 92       	push	r11
    49ee:	cf 92       	push	r12
    49f0:	df 92       	push	r13
    49f2:	ef 92       	push	r14
    49f4:	ff 92       	push	r15
    49f6:	0f 93       	push	r16
    49f8:	1f 93       	push	r17
    49fa:	cf 93       	push	r28
    49fc:	df 93       	push	r29
    49fe:	cd b7       	in	r28, 0x3d	; 61
    4a00:	de b7       	in	r29, 0x3e	; 62
    4a02:	ad 97       	sbiw	r28, 0x2d	; 45
    4a04:	0f b6       	in	r0, 0x3f	; 63
    4a06:	f8 94       	cli
    4a08:	de bf       	out	0x3e, r29	; 62
    4a0a:	0f be       	out	0x3f, r0	; 63
    4a0c:	cd bf       	out	0x3d, r28	; 61
    4a0e:	14 2f       	mov	r17, r20
    4a10:	05 2f       	mov	r16, r21
    4a12:	6b 8f       	std	Y+27, r22	; 0x1b
    4a14:	7c 8f       	std	Y+28, r23	; 0x1c
    4a16:	82 2e       	mov	r8, r18
    4a18:	20 91 43 02 	lds	r18, 0x0243
    4a1c:	39 e2       	ldi	r19, 0x29	; 41
    4a1e:	23 9f       	mul	r18, r19
    4a20:	10 01       	movw	r2, r0
    4a22:	11 24       	eor	r1, r1
    4a24:	f1 01       	movw	r30, r2
    4a26:	eb 5b       	subi	r30, 0xBB	; 187
    4a28:	fd 4f       	sbci	r31, 0xFD	; 253
    4a2a:	1f 01       	movw	r2, r30
    4a2c:	15 86       	std	Z+13, r1	; 0x0d
    4a2e:	16 86       	std	Z+14, r1	; 0x0e
    4a30:	17 86       	std	Z+15, r1	; 0x0f
    4a32:	10 8a       	std	Z+16, r1	; 0x10
    4a34:	15 a2       	std	Z+37, r1	; 0x25
    4a36:	16 a2       	std	Z+38, r1	; 0x26
    4a38:	17 a2       	std	Z+39, r1	; 0x27
    4a3a:	10 a6       	std	Z+40, r1	; 0x28
    4a3c:	10 82       	st	Z, r1
    4a3e:	49 e9       	ldi	r20, 0x99	; 153
    4a40:	56 e7       	ldi	r21, 0x76	; 118
    4a42:	66 e9       	ldi	r22, 0x96	; 150
    4a44:	7e e7       	ldi	r23, 0x7E	; 126
    4a46:	41 a3       	std	Z+33, r20	; 0x21
    4a48:	52 a3       	std	Z+34, r21	; 0x22
    4a4a:	63 a3       	std	Z+35, r22	; 0x23
    4a4c:	74 a3       	std	Z+36, r23	; 0x24
    4a4e:	5c 01       	movw	r10, r24
    4a50:	40 e8       	ldi	r20, 0x80	; 128
    4a52:	e4 2e       	mov	r14, r20
    4a54:	46 e0       	ldi	r20, 0x06	; 6
    4a56:	f4 2e       	mov	r15, r20
    4a58:	9e 01       	movw	r18, r28
    4a5a:	23 5f       	subi	r18, 0xF3	; 243
    4a5c:	3f 4f       	sbci	r19, 0xFF	; 255
    4a5e:	38 a3       	std	Y+32, r19	; 0x20
    4a60:	2f 8f       	std	Y+31, r18	; 0x1f
    4a62:	85 e2       	ldi	r24, 0x25	; 37
    4a64:	92 e0       	ldi	r25, 0x02	; 2
    4a66:	9e 8f       	std	Y+30, r25	; 0x1e
    4a68:	8d 8f       	std	Y+29, r24	; 0x1d
    4a6a:	6f 01       	movw	r12, r30
    4a6c:	fe 01       	movw	r30, r28
    4a6e:	31 96       	adiw	r30, 0x01	; 1
    4a70:	fa a3       	std	Y+34, r31	; 0x22
    4a72:	e9 a3       	std	Y+33, r30	; 0x21
    4a74:	91 2c       	mov	r9, r1
    4a76:	f5 01       	movw	r30, r10
    4a78:	61 91       	ld	r22, Z+
    4a7a:	71 91       	ld	r23, Z+
    4a7c:	81 91       	ld	r24, Z+
    4a7e:	91 91       	ld	r25, Z+
    4a80:	5f 01       	movw	r10, r30
    4a82:	f7 01       	movw	r30, r14
    4a84:	20 81       	ld	r18, Z
    4a86:	31 81       	ldd	r19, Z+1	; 0x01
    4a88:	42 81       	ldd	r20, Z+2	; 0x02
    4a8a:	53 81       	ldd	r21, Z+3	; 0x03
    4a8c:	0e 94 1d 37 	call	0x6e3a	; 0x6e3a <__mulsf3>
    4a90:	0e 94 ed 36 	call	0x6dda	; 0x6dda <lround>
    4a94:	ef 8d       	ldd	r30, Y+31	; 0x1f
    4a96:	f8 a1       	ldd	r31, Y+32	; 0x20
    4a98:	61 93       	st	Z+, r22
    4a9a:	71 93       	st	Z+, r23
    4a9c:	81 93       	st	Z+, r24
    4a9e:	91 93       	st	Z+, r25
    4aa0:	f8 a3       	std	Y+32, r31	; 0x20
    4aa2:	ef 8f       	std	Y+31, r30	; 0x1f
    4aa4:	ed 8d       	ldd	r30, Y+29	; 0x1d
    4aa6:	fe 8d       	ldd	r31, Y+30	; 0x1e
    4aa8:	41 90       	ld	r4, Z+
    4aaa:	51 90       	ld	r5, Z+
    4aac:	61 90       	ld	r6, Z+
    4aae:	71 90       	ld	r7, Z+
    4ab0:	fe 8f       	std	Y+30, r31	; 0x1e
    4ab2:	ed 8f       	std	Y+29, r30	; 0x1d
    4ab4:	64 19       	sub	r22, r4
    4ab6:	75 09       	sbc	r23, r5
    4ab8:	86 09       	sbc	r24, r6
    4aba:	97 09       	sbc	r25, r7
    4abc:	2b 01       	movw	r4, r22
    4abe:	3c 01       	movw	r6, r24
    4ac0:	97 ff       	sbrs	r25, 7
    4ac2:	07 c0       	rjmp	.+14     	; 0x4ad2 <plan_buffer_line+0xf8>
    4ac4:	44 24       	eor	r4, r4
    4ac6:	55 24       	eor	r5, r5
    4ac8:	32 01       	movw	r6, r4
    4aca:	46 1a       	sub	r4, r22
    4acc:	57 0a       	sbc	r5, r23
    4ace:	68 0a       	sbc	r6, r24
    4ad0:	79 0a       	sbc	r7, r25
    4ad2:	f6 01       	movw	r30, r12
    4ad4:	41 82       	std	Z+1, r4	; 0x01
    4ad6:	52 82       	std	Z+2, r5	; 0x02
    4ad8:	63 82       	std	Z+3, r6	; 0x03
    4ada:	74 82       	std	Z+4, r7	; 0x04
    4adc:	f1 01       	movw	r30, r2
    4ade:	25 85       	ldd	r18, Z+13	; 0x0d
    4ae0:	36 85       	ldd	r19, Z+14	; 0x0e
    4ae2:	47 85       	ldd	r20, Z+15	; 0x0f
    4ae4:	50 89       	ldd	r21, Z+16	; 0x10
    4ae6:	42 16       	cp	r4, r18
    4ae8:	53 06       	cpc	r5, r19
    4aea:	64 06       	cpc	r6, r20
    4aec:	75 06       	cpc	r7, r21
    4aee:	10 f4       	brcc	.+4      	; 0x4af4 <plan_buffer_line+0x11a>
    4af0:	29 01       	movw	r4, r18
    4af2:	3a 01       	movw	r6, r20
    4af4:	f1 01       	movw	r30, r2
    4af6:	45 86       	std	Z+13, r4	; 0x0d
    4af8:	56 86       	std	Z+14, r5	; 0x0e
    4afa:	67 86       	std	Z+15, r6	; 0x0f
    4afc:	70 8a       	std	Z+16, r7	; 0x10
    4afe:	0e 94 81 35 	call	0x6b02	; 0x6b02 <__floatsisf>
    4b02:	f7 01       	movw	r30, r14
    4b04:	20 81       	ld	r18, Z
    4b06:	31 81       	ldd	r19, Z+1	; 0x01
    4b08:	42 81       	ldd	r20, Z+2	; 0x02
    4b0a:	53 81       	ldd	r21, Z+3	; 0x03
    4b0c:	0e 94 e6 34 	call	0x69cc	; 0x69cc <__divsf3>
    4b10:	2b 01       	movw	r4, r22
    4b12:	3c 01       	movw	r6, r24
    4b14:	e9 a1       	ldd	r30, Y+33	; 0x21
    4b16:	fa a1       	ldd	r31, Y+34	; 0x22
    4b18:	61 93       	st	Z+, r22
    4b1a:	71 93       	st	Z+, r23
    4b1c:	81 93       	st	Z+, r24
    4b1e:	91 93       	st	Z+, r25
    4b20:	fa a3       	std	Y+34, r31	; 0x22
    4b22:	e9 a3       	std	Y+33, r30	; 0x21
    4b24:	20 e0       	ldi	r18, 0x00	; 0
    4b26:	30 e0       	ldi	r19, 0x00	; 0
    4b28:	a9 01       	movw	r20, r18
    4b2a:	0e 94 df 34 	call	0x69be	; 0x69be <__cmpsf2>
    4b2e:	87 ff       	sbrs	r24, 7
    4b30:	0a c0       	rjmp	.+20     	; 0x4b46 <plan_buffer_line+0x16c>
    4b32:	f1 01       	movw	r30, r2
    4b34:	90 81       	ld	r25, Z
    4b36:	89 2d       	mov	r24, r9
    4b38:	9d a7       	std	Y+45, r25	; 0x2d
    4b3a:	0e 94 67 23 	call	0x46ce	; 0x46ce <get_direction_pin_mask>
    4b3e:	9d a5       	ldd	r25, Y+45	; 0x2d
    4b40:	89 2b       	or	r24, r25
    4b42:	f1 01       	movw	r30, r2
    4b44:	80 83       	st	Z, r24
    4b46:	a3 01       	movw	r20, r6
    4b48:	92 01       	movw	r18, r4
    4b4a:	c3 01       	movw	r24, r6
    4b4c:	b2 01       	movw	r22, r4
    4b4e:	0e 94 1d 37 	call	0x6e3a	; 0x6e3a <__mulsf3>
    4b52:	f1 01       	movw	r30, r2
    4b54:	25 a1       	ldd	r18, Z+37	; 0x25
    4b56:	36 a1       	ldd	r19, Z+38	; 0x26
    4b58:	47 a1       	ldd	r20, Z+39	; 0x27
    4b5a:	50 a5       	ldd	r21, Z+40	; 0x28
    4b5c:	0e 94 06 34 	call	0x680c	; 0x680c <__addsf3>
    4b60:	f1 01       	movw	r30, r2
    4b62:	65 a3       	std	Z+37, r22	; 0x25
    4b64:	76 a3       	std	Z+38, r23	; 0x26
    4b66:	87 a3       	std	Z+39, r24	; 0x27
    4b68:	90 a7       	std	Z+40, r25	; 0x28
    4b6a:	93 94       	inc	r9
    4b6c:	f4 e0       	ldi	r31, 0x04	; 4
    4b6e:	ef 0e       	add	r14, r31
    4b70:	f1 1c       	adc	r15, r1
    4b72:	24 e0       	ldi	r18, 0x04	; 4
    4b74:	c2 0e       	add	r12, r18
    4b76:	d1 1c       	adc	r13, r1
    4b78:	33 e0       	ldi	r19, 0x03	; 3
    4b7a:	93 12       	cpse	r9, r19
    4b7c:	7c cf       	rjmp	.-264    	; 0x4a76 <plan_buffer_line+0x9c>
    4b7e:	0e 94 aa 37 	call	0x6f54	; 0x6f54 <sqrt>
    4b82:	6b 01       	movw	r12, r22
    4b84:	7c 01       	movw	r14, r24
    4b86:	f1 01       	movw	r30, r2
    4b88:	65 a3       	std	Z+37, r22	; 0x25
    4b8a:	76 a3       	std	Z+38, r23	; 0x26
    4b8c:	87 a3       	std	Z+39, r24	; 0x27
    4b8e:	90 a7       	std	Z+40, r25	; 0x28
    4b90:	85 85       	ldd	r24, Z+13	; 0x0d
    4b92:	96 85       	ldd	r25, Z+14	; 0x0e
    4b94:	a7 85       	ldd	r26, Z+15	; 0x0f
    4b96:	b0 89       	ldd	r27, Z+16	; 0x10
    4b98:	89 2b       	or	r24, r25
    4b9a:	8a 2b       	or	r24, r26
    4b9c:	8b 2b       	or	r24, r27
    4b9e:	09 f4       	brne	.+2      	; 0x4ba2 <plan_buffer_line+0x1c8>
    4ba0:	fc c1       	rjmp	.+1016   	; 0x4f9a <plan_buffer_line+0x5c0>
    4ba2:	20 e0       	ldi	r18, 0x00	; 0
    4ba4:	30 e0       	ldi	r19, 0x00	; 0
    4ba6:	a9 01       	movw	r20, r18
    4ba8:	61 2f       	mov	r22, r17
    4baa:	70 2f       	mov	r23, r16
    4bac:	8b 8d       	ldd	r24, Y+27	; 0x1b
    4bae:	9c 8d       	ldd	r25, Y+28	; 0x1c
    4bb0:	0e 94 df 34 	call	0x69be	; 0x69be <__cmpsf2>
    4bb4:	87 fd       	sbrc	r24, 7
    4bb6:	21 c0       	rjmp	.+66     	; 0x4bfa <plan_buffer_line+0x220>
    4bb8:	88 20       	and	r8, r8
    4bba:	61 f0       	breq	.+24     	; 0x4bd4 <plan_buffer_line+0x1fa>
    4bbc:	a7 01       	movw	r20, r14
    4bbe:	96 01       	movw	r18, r12
    4bc0:	61 2f       	mov	r22, r17
    4bc2:	70 2f       	mov	r23, r16
    4bc4:	8b 8d       	ldd	r24, Y+27	; 0x1b
    4bc6:	9c 8d       	ldd	r25, Y+28	; 0x1c
    4bc8:	0e 94 1d 37 	call	0x6e3a	; 0x6e3a <__mulsf3>
    4bcc:	16 2f       	mov	r17, r22
    4bce:	07 2f       	mov	r16, r23
    4bd0:	8b 8f       	std	Y+27, r24	; 0x1b
    4bd2:	9c 8f       	std	Y+28, r25	; 0x1c
    4bd4:	20 e0       	ldi	r18, 0x00	; 0
    4bd6:	30 e0       	ldi	r19, 0x00	; 0
    4bd8:	40 e8       	ldi	r20, 0x80	; 128
    4bda:	5f e3       	ldi	r21, 0x3F	; 63
    4bdc:	61 2f       	mov	r22, r17
    4bde:	70 2f       	mov	r23, r16
    4be0:	8b 8d       	ldd	r24, Y+27	; 0x1b
    4be2:	9c 8d       	ldd	r25, Y+28	; 0x1c
    4be4:	0e 94 df 34 	call	0x69be	; 0x69be <__cmpsf2>
    4be8:	87 ff       	sbrs	r24, 7
    4bea:	0d c0       	rjmp	.+26     	; 0x4c06 <plan_buffer_line+0x22c>
    4bec:	10 e0       	ldi	r17, 0x00	; 0
    4bee:	00 e0       	ldi	r16, 0x00	; 0
    4bf0:	30 e8       	ldi	r19, 0x80	; 128
    4bf2:	3b 8f       	std	Y+27, r19	; 0x1b
    4bf4:	8f e3       	ldi	r24, 0x3F	; 63
    4bf6:	8c 8f       	std	Y+28, r24	; 0x1c
    4bf8:	06 c0       	rjmp	.+12     	; 0x4c06 <plan_buffer_line+0x22c>
    4bfa:	19 e9       	ldi	r17, 0x99	; 153
    4bfc:	06 e7       	ldi	r16, 0x76	; 118
    4bfe:	f6 e9       	ldi	r31, 0x96	; 150
    4c00:	fb 8f       	std	Y+27, r31	; 0x1b
    4c02:	2e e7       	ldi	r18, 0x7E	; 126
    4c04:	2c 8f       	std	Y+28, r18	; 0x1c
    4c06:	a7 01       	movw	r20, r14
    4c08:	96 01       	movw	r18, r12
    4c0a:	60 e0       	ldi	r22, 0x00	; 0
    4c0c:	70 e0       	ldi	r23, 0x00	; 0
    4c0e:	80 e8       	ldi	r24, 0x80	; 128
    4c10:	9f e3       	ldi	r25, 0x3F	; 63
    4c12:	0e 94 e6 34 	call	0x69cc	; 0x69cc <__divsf3>
    4c16:	69 a7       	std	Y+41, r22	; 0x29
    4c18:	7a a7       	std	Y+42, r23	; 0x2a
    4c1a:	8b a7       	std	Y+43, r24	; 0x2b
    4c1c:	9c a7       	std	Y+44, r25	; 0x2c
    4c1e:	e1 e3       	ldi	r30, 0x31	; 49
    4c20:	f2 e0       	ldi	r31, 0x02	; 2
    4c22:	fa a3       	std	Y+34, r31	; 0x22
    4c24:	e9 a3       	std	Y+33, r30	; 0x21
    4c26:	2c e8       	ldi	r18, 0x8C	; 140
    4c28:	36 e0       	ldi	r19, 0x06	; 6
    4c2a:	38 a3       	std	Y+32, r19	; 0x20
    4c2c:	2f 8f       	std	Y+31, r18	; 0x1f
    4c2e:	ce 01       	movw	r24, r28
    4c30:	0d 96       	adiw	r24, 0x0d	; 13
    4c32:	9a 8f       	std	Y+26, r25	; 0x1a
    4c34:	89 8f       	std	Y+25, r24	; 0x19
    4c36:	fe 01       	movw	r30, r28
    4c38:	31 96       	adiw	r30, 0x01	; 1
    4c3a:	fe 8f       	std	Y+30, r31	; 0x1e
    4c3c:	ed 8f       	std	Y+29, r30	; 0x1d
    4c3e:	c1 2c       	mov	r12, r1
    4c40:	d1 2c       	mov	r13, r1
    4c42:	76 01       	movw	r14, r12
    4c44:	ed 8d       	ldd	r30, Y+29	; 0x1d
    4c46:	fe 8d       	ldd	r31, Y+30	; 0x1e
    4c48:	80 80       	ld	r8, Z
    4c4a:	91 80       	ldd	r9, Z+1	; 0x01
    4c4c:	a2 80       	ldd	r10, Z+2	; 0x02
    4c4e:	b3 80       	ldd	r11, Z+3	; 0x03
    4c50:	20 e0       	ldi	r18, 0x00	; 0
    4c52:	30 e0       	ldi	r19, 0x00	; 0
    4c54:	a9 01       	movw	r20, r18
    4c56:	c5 01       	movw	r24, r10
    4c58:	b4 01       	movw	r22, r8
    4c5a:	0e 94 df 34 	call	0x69be	; 0x69be <__cmpsf2>
    4c5e:	88 23       	and	r24, r24
    4c60:	09 f4       	brne	.+2      	; 0x4c64 <plan_buffer_line+0x28a>
    4c62:	7f c0       	rjmp	.+254    	; 0x4d62 <plan_buffer_line+0x388>
    4c64:	29 a5       	ldd	r18, Y+41	; 0x29
    4c66:	3a a5       	ldd	r19, Y+42	; 0x2a
    4c68:	4b a5       	ldd	r20, Y+43	; 0x2b
    4c6a:	5c a5       	ldd	r21, Y+44	; 0x2c
    4c6c:	c5 01       	movw	r24, r10
    4c6e:	b4 01       	movw	r22, r8
    4c70:	0e 94 1d 37 	call	0x6e3a	; 0x6e3a <__mulsf3>
    4c74:	4b 01       	movw	r8, r22
    4c76:	5c 01       	movw	r10, r24
    4c78:	ed 8d       	ldd	r30, Y+29	; 0x1d
    4c7a:	fe 8d       	ldd	r31, Y+30	; 0x1e
    4c7c:	60 83       	st	Z, r22
    4c7e:	71 83       	std	Z+1, r23	; 0x01
    4c80:	82 83       	std	Z+2, r24	; 0x02
    4c82:	93 83       	std	Z+3, r25	; 0x03
    4c84:	9b 01       	movw	r18, r22
    4c86:	ac 01       	movw	r20, r24
    4c88:	60 e0       	ldi	r22, 0x00	; 0
    4c8a:	70 e0       	ldi	r23, 0x00	; 0
    4c8c:	80 e8       	ldi	r24, 0x80	; 128
    4c8e:	9f e3       	ldi	r25, 0x3F	; 63
    4c90:	0e 94 e6 34 	call	0x69cc	; 0x69cc <__divsf3>
    4c94:	2b 01       	movw	r4, r22
    4c96:	3c 01       	movw	r6, r24
    4c98:	e8 94       	clt
    4c9a:	77 f8       	bld	r7, 7
    4c9c:	ef 8d       	ldd	r30, Y+31	; 0x1f
    4c9e:	f8 a1       	ldd	r31, Y+32	; 0x20
    4ca0:	20 81       	ld	r18, Z
    4ca2:	31 81       	ldd	r19, Z+1	; 0x01
    4ca4:	42 81       	ldd	r20, Z+2	; 0x02
    4ca6:	53 81       	ldd	r21, Z+3	; 0x03
    4ca8:	c3 01       	movw	r24, r6
    4caa:	b2 01       	movw	r22, r4
    4cac:	0e 94 1d 37 	call	0x6e3a	; 0x6e3a <__mulsf3>
    4cb0:	6b a3       	std	Y+35, r22	; 0x23
    4cb2:	7c a3       	std	Y+36, r23	; 0x24
    4cb4:	8d a3       	std	Y+37, r24	; 0x25
    4cb6:	9e a3       	std	Y+38, r25	; 0x26
    4cb8:	9b 01       	movw	r18, r22
    4cba:	ac 01       	movw	r20, r24
    4cbc:	61 2f       	mov	r22, r17
    4cbe:	70 2f       	mov	r23, r16
    4cc0:	8b 8d       	ldd	r24, Y+27	; 0x1b
    4cc2:	9c 8d       	ldd	r25, Y+28	; 0x1c
    4cc4:	0e 94 df 34 	call	0x69be	; 0x69be <__cmpsf2>
    4cc8:	87 ff       	sbrs	r24, 7
    4cca:	06 c0       	rjmp	.+12     	; 0x4cd8 <plan_buffer_line+0x2fe>
    4ccc:	1b a3       	std	Y+35, r17	; 0x23
    4cce:	0c a3       	std	Y+36, r16	; 0x24
    4cd0:	fb 8d       	ldd	r31, Y+27	; 0x1b
    4cd2:	fd a3       	std	Y+37, r31	; 0x25
    4cd4:	2c 8d       	ldd	r18, Y+28	; 0x1c
    4cd6:	2e a3       	std	Y+38, r18	; 0x26
    4cd8:	f1 01       	movw	r30, r2
    4cda:	f1 a1       	ldd	r31, Z+33	; 0x21
    4cdc:	fb 8f       	std	Y+27, r31	; 0x1b
    4cde:	f1 01       	movw	r30, r2
    4ce0:	f2 a1       	ldd	r31, Z+34	; 0x22
    4ce2:	fc 8f       	std	Y+28, r31	; 0x1c
    4ce4:	f1 01       	movw	r30, r2
    4ce6:	f3 a1       	ldd	r31, Z+35	; 0x23
    4ce8:	ff a3       	std	Y+39, r31	; 0x27
    4cea:	f1 01       	movw	r30, r2
    4cec:	f4 a1       	ldd	r31, Z+36	; 0x24
    4cee:	f8 a7       	std	Y+40, r31	; 0x28
    4cf0:	ef 8d       	ldd	r30, Y+31	; 0x1f
    4cf2:	f8 a1       	ldd	r31, Y+32	; 0x20
    4cf4:	24 85       	ldd	r18, Z+12	; 0x0c
    4cf6:	35 85       	ldd	r19, Z+13	; 0x0d
    4cf8:	46 85       	ldd	r20, Z+14	; 0x0e
    4cfa:	57 85       	ldd	r21, Z+15	; 0x0f
    4cfc:	c3 01       	movw	r24, r6
    4cfe:	b2 01       	movw	r22, r4
    4d00:	0e 94 1d 37 	call	0x6e3a	; 0x6e3a <__mulsf3>
    4d04:	3b 01       	movw	r6, r22
    4d06:	8c 01       	movw	r16, r24
    4d08:	9b 01       	movw	r18, r22
    4d0a:	ac 01       	movw	r20, r24
    4d0c:	6b 8d       	ldd	r22, Y+27	; 0x1b
    4d0e:	7c 8d       	ldd	r23, Y+28	; 0x1c
    4d10:	8f a1       	ldd	r24, Y+39	; 0x27
    4d12:	98 a5       	ldd	r25, Y+40	; 0x28
    4d14:	0e 94 df 34 	call	0x69be	; 0x69be <__cmpsf2>
    4d18:	87 ff       	sbrs	r24, 7
    4d1a:	04 c0       	rjmp	.+8      	; 0x4d24 <plan_buffer_line+0x34a>
    4d1c:	6b 8c       	ldd	r6, Y+27	; 0x1b
    4d1e:	7c 8c       	ldd	r7, Y+28	; 0x1c
    4d20:	0f a1       	ldd	r16, Y+39	; 0x27
    4d22:	18 a5       	ldd	r17, Y+40	; 0x28
    4d24:	c3 01       	movw	r24, r6
    4d26:	d8 01       	movw	r26, r16
    4d28:	f1 01       	movw	r30, r2
    4d2a:	81 a3       	std	Z+33, r24	; 0x21
    4d2c:	92 a3       	std	Z+34, r25	; 0x22
    4d2e:	a3 a3       	std	Z+35, r26	; 0x23
    4d30:	b4 a3       	std	Z+36, r27	; 0x24
    4d32:	e9 a1       	ldd	r30, Y+33	; 0x21
    4d34:	fa a1       	ldd	r31, Y+34	; 0x22
    4d36:	20 81       	ld	r18, Z
    4d38:	31 81       	ldd	r19, Z+1	; 0x01
    4d3a:	42 81       	ldd	r20, Z+2	; 0x02
    4d3c:	53 81       	ldd	r21, Z+3	; 0x03
    4d3e:	c5 01       	movw	r24, r10
    4d40:	b4 01       	movw	r22, r8
    4d42:	0e 94 1d 37 	call	0x6e3a	; 0x6e3a <__mulsf3>
    4d46:	9b 01       	movw	r18, r22
    4d48:	ac 01       	movw	r20, r24
    4d4a:	c7 01       	movw	r24, r14
    4d4c:	b6 01       	movw	r22, r12
    4d4e:	0e 94 05 34 	call	0x680a	; 0x680a <__subsf3>
    4d52:	6b 01       	movw	r12, r22
    4d54:	7c 01       	movw	r14, r24
    4d56:	1b a1       	ldd	r17, Y+35	; 0x23
    4d58:	0c a1       	ldd	r16, Y+36	; 0x24
    4d5a:	fd a1       	ldd	r31, Y+37	; 0x25
    4d5c:	fb 8f       	std	Y+27, r31	; 0x1b
    4d5e:	2e a1       	ldd	r18, Y+38	; 0x26
    4d60:	2c 8f       	std	Y+28, r18	; 0x1c
    4d62:	8d 8d       	ldd	r24, Y+29	; 0x1d
    4d64:	9e 8d       	ldd	r25, Y+30	; 0x1e
    4d66:	04 96       	adiw	r24, 0x04	; 4
    4d68:	9e 8f       	std	Y+30, r25	; 0x1e
    4d6a:	8d 8f       	std	Y+29, r24	; 0x1d
    4d6c:	e9 a1       	ldd	r30, Y+33	; 0x21
    4d6e:	fa a1       	ldd	r31, Y+34	; 0x22
    4d70:	34 96       	adiw	r30, 0x04	; 4
    4d72:	fa a3       	std	Y+34, r31	; 0x22
    4d74:	e9 a3       	std	Y+33, r30	; 0x21
    4d76:	2f 8d       	ldd	r18, Y+31	; 0x1f
    4d78:	38 a1       	ldd	r19, Y+32	; 0x20
    4d7a:	2c 5f       	subi	r18, 0xFC	; 252
    4d7c:	3f 4f       	sbci	r19, 0xFF	; 255
    4d7e:	38 a3       	std	Y+32, r19	; 0x20
    4d80:	2f 8f       	std	Y+31, r18	; 0x1f
    4d82:	e9 8d       	ldd	r30, Y+25	; 0x19
    4d84:	fa 8d       	ldd	r31, Y+26	; 0x1a
    4d86:	8e 17       	cp	r24, r30
    4d88:	9f 07       	cpc	r25, r31
    4d8a:	09 f0       	breq	.+2      	; 0x4d8e <plan_buffer_line+0x3b4>
    4d8c:	5b cf       	rjmp	.-330    	; 0x4c44 <plan_buffer_line+0x26a>
    4d8e:	90 91 43 02 	lds	r25, 0x0243
    4d92:	80 91 44 02 	lds	r24, 0x0244
    4d96:	98 13       	cpse	r25, r24
    4d98:	06 c0       	rjmp	.+12     	; 0x4da6 <plan_buffer_line+0x3cc>
    4d9a:	f1 01       	movw	r30, r2
    4d9c:	11 8a       	std	Z+17, r1	; 0x11
    4d9e:	12 8a       	std	Z+18, r1	; 0x12
    4da0:	13 8a       	std	Z+19, r1	; 0x13
    4da2:	14 8a       	std	Z+20, r1	; 0x14
    4da4:	0b c0       	rjmp	.+22     	; 0x4dbc <plan_buffer_line+0x3e2>
    4da6:	2f ee       	ldi	r18, 0xEF	; 239
    4da8:	3f ef       	ldi	r19, 0xFF	; 255
    4daa:	4f e7       	ldi	r20, 0x7F	; 127
    4dac:	5f e3       	ldi	r21, 0x3F	; 63
    4dae:	c7 01       	movw	r24, r14
    4db0:	b6 01       	movw	r22, r12
    4db2:	0e 94 e2 36 	call	0x6dc4	; 0x6dc4 <__gesf2>
    4db6:	18 16       	cp	r1, r24
    4db8:	34 f4       	brge	.+12     	; 0x4dc6 <plan_buffer_line+0x3ec>
    4dba:	f1 01       	movw	r30, r2
    4dbc:	11 8e       	std	Z+25, r1	; 0x19
    4dbe:	12 8e       	std	Z+26, r1	; 0x1a
    4dc0:	13 8e       	std	Z+27, r1	; 0x1b
    4dc2:	14 8e       	std	Z+28, r1	; 0x1c
    4dc4:	5b c0       	rjmp	.+182    	; 0x4e7c <plan_buffer_line+0x4a2>
    4dc6:	2f ee       	ldi	r18, 0xEF	; 239
    4dc8:	3f ef       	ldi	r19, 0xFF	; 255
    4dca:	4f e7       	ldi	r20, 0x7F	; 127
    4dcc:	5f eb       	ldi	r21, 0xBF	; 191
    4dce:	c7 01       	movw	r24, r14
    4dd0:	b6 01       	movw	r22, r12
    4dd2:	0e 94 e2 36 	call	0x6dc4	; 0x6dc4 <__gesf2>
    4dd6:	18 16       	cp	r1, r24
    4dd8:	44 f0       	brlt	.+16     	; 0x4dea <plan_buffer_line+0x410>
    4dda:	3f ee       	ldi	r19, 0xEF	; 239
    4ddc:	c3 2e       	mov	r12, r19
    4dde:	dd 24       	eor	r13, r13
    4de0:	da 94       	dec	r13
    4de2:	3f e7       	ldi	r19, 0x7F	; 127
    4de4:	e3 2e       	mov	r14, r19
    4de6:	3f eb       	ldi	r19, 0xBF	; 191
    4de8:	f3 2e       	mov	r15, r19
    4dea:	a7 01       	movw	r20, r14
    4dec:	96 01       	movw	r18, r12
    4dee:	60 e0       	ldi	r22, 0x00	; 0
    4df0:	70 e0       	ldi	r23, 0x00	; 0
    4df2:	80 e8       	ldi	r24, 0x80	; 128
    4df4:	9f e3       	ldi	r25, 0x3F	; 63
    4df6:	0e 94 05 34 	call	0x680a	; 0x680a <__subsf3>
    4dfa:	20 e0       	ldi	r18, 0x00	; 0
    4dfc:	30 e0       	ldi	r19, 0x00	; 0
    4dfe:	40 e0       	ldi	r20, 0x00	; 0
    4e00:	5f e3       	ldi	r21, 0x3F	; 63
    4e02:	0e 94 1d 37 	call	0x6e3a	; 0x6e3a <__mulsf3>
    4e06:	0e 94 aa 37 	call	0x6f54	; 0x6f54 <sqrt>
    4e0a:	6b 01       	movw	r12, r22
    4e0c:	7c 01       	movw	r14, r24
    4e0e:	20 91 b5 06 	lds	r18, 0x06B5
    4e12:	30 91 b6 06 	lds	r19, 0x06B6
    4e16:	40 91 b7 06 	lds	r20, 0x06B7
    4e1a:	50 91 b8 06 	lds	r21, 0x06B8
    4e1e:	f1 01       	movw	r30, r2
    4e20:	61 a1       	ldd	r22, Z+33	; 0x21
    4e22:	72 a1       	ldd	r23, Z+34	; 0x22
    4e24:	83 a1       	ldd	r24, Z+35	; 0x23
    4e26:	94 a1       	ldd	r25, Z+36	; 0x24
    4e28:	0e 94 1d 37 	call	0x6e3a	; 0x6e3a <__mulsf3>
    4e2c:	a7 01       	movw	r20, r14
    4e2e:	96 01       	movw	r18, r12
    4e30:	0e 94 1d 37 	call	0x6e3a	; 0x6e3a <__mulsf3>
    4e34:	4b 01       	movw	r8, r22
    4e36:	5c 01       	movw	r10, r24
    4e38:	a7 01       	movw	r20, r14
    4e3a:	96 01       	movw	r18, r12
    4e3c:	60 e0       	ldi	r22, 0x00	; 0
    4e3e:	70 e0       	ldi	r23, 0x00	; 0
    4e40:	80 e8       	ldi	r24, 0x80	; 128
    4e42:	9f e3       	ldi	r25, 0x3F	; 63
    4e44:	0e 94 05 34 	call	0x680a	; 0x680a <__subsf3>
    4e48:	9b 01       	movw	r18, r22
    4e4a:	ac 01       	movw	r20, r24
    4e4c:	c5 01       	movw	r24, r10
    4e4e:	b4 01       	movw	r22, r8
    4e50:	0e 94 e6 34 	call	0x69cc	; 0x69cc <__divsf3>
    4e54:	6b 01       	movw	r12, r22
    4e56:	7c 01       	movw	r14, r24
    4e58:	20 e0       	ldi	r18, 0x00	; 0
    4e5a:	30 e0       	ldi	r19, 0x00	; 0
    4e5c:	a9 01       	movw	r20, r18
    4e5e:	0e 94 df 34 	call	0x69be	; 0x69be <__cmpsf2>
    4e62:	87 ff       	sbrs	r24, 7
    4e64:	04 c0       	rjmp	.+8      	; 0x4e6e <plan_buffer_line+0x494>
    4e66:	c1 2c       	mov	r12, r1
    4e68:	d1 2c       	mov	r13, r1
    4e6a:	e1 2c       	mov	r14, r1
    4e6c:	f1 2c       	mov	r15, r1
    4e6e:	a6 01       	movw	r20, r12
    4e70:	b7 01       	movw	r22, r14
    4e72:	f1 01       	movw	r30, r2
    4e74:	41 8f       	std	Z+25, r20	; 0x19
    4e76:	52 8f       	std	Z+26, r21	; 0x1a
    4e78:	63 8f       	std	Z+27, r22	; 0x1b
    4e7a:	74 8f       	std	Z+28, r23	; 0x1c
    4e7c:	21 2f       	mov	r18, r17
    4e7e:	30 2f       	mov	r19, r16
    4e80:	4b 8d       	ldd	r20, Y+27	; 0x1b
    4e82:	5c 8d       	ldd	r21, Y+28	; 0x1c
    4e84:	61 2f       	mov	r22, r17
    4e86:	70 2f       	mov	r23, r16
    4e88:	8b 8d       	ldd	r24, Y+27	; 0x1b
    4e8a:	9c 8d       	ldd	r25, Y+28	; 0x1c
    4e8c:	0e 94 1d 37 	call	0x6e3a	; 0x6e3a <__mulsf3>
    4e90:	16 2f       	mov	r17, r22
    4e92:	07 2f       	mov	r16, r23
    4e94:	f8 2e       	mov	r15, r24
    4e96:	e9 2e       	mov	r14, r25
    4e98:	86 2f       	mov	r24, r22
    4e9a:	90 2f       	mov	r25, r16
    4e9c:	af 2d       	mov	r26, r15
    4e9e:	be 2d       	mov	r27, r14
    4ea0:	f1 01       	movw	r30, r2
    4ea2:	85 8f       	std	Z+29, r24	; 0x1d
    4ea4:	96 8f       	std	Z+30, r25	; 0x1e
    4ea6:	a7 8f       	std	Z+31, r26	; 0x1f
    4ea8:	b0 a3       	std	Z+32, r27	; 0x20
    4eaa:	a1 8c       	ldd	r10, Z+25	; 0x19
    4eac:	b2 8c       	ldd	r11, Z+26	; 0x1a
    4eae:	c3 8c       	ldd	r12, Z+27	; 0x1b
    4eb0:	d4 8c       	ldd	r13, Z+28	; 0x1c
    4eb2:	60 90 3d 02 	lds	r6, 0x023D
    4eb6:	70 90 3e 02 	lds	r7, 0x023E
    4eba:	80 90 3f 02 	lds	r8, 0x023F
    4ebe:	90 90 40 02 	lds	r9, 0x0240
    4ec2:	93 01       	movw	r18, r6
    4ec4:	a4 01       	movw	r20, r8
    4ec6:	61 2f       	mov	r22, r17
    4ec8:	70 2f       	mov	r23, r16
    4eca:	8f 2d       	mov	r24, r15
    4ecc:	9e 2d       	mov	r25, r14
    4ece:	0e 94 df 34 	call	0x69be	; 0x69be <__cmpsf2>
    4ed2:	87 fd       	sbrc	r24, 7
    4ed4:	0b c0       	rjmp	.+22     	; 0x4eec <plan_buffer_line+0x512>
    4ed6:	93 01       	movw	r18, r6
    4ed8:	a4 01       	movw	r20, r8
    4eda:	b5 01       	movw	r22, r10
    4edc:	c6 01       	movw	r24, r12
    4ede:	0e 94 df 34 	call	0x69be	; 0x69be <__cmpsf2>
    4ee2:	87 fd       	sbrc	r24, 7
    4ee4:	11 c0       	rjmp	.+34     	; 0x4f08 <plan_buffer_line+0x52e>
    4ee6:	53 01       	movw	r10, r6
    4ee8:	64 01       	movw	r12, r8
    4eea:	0e c0       	rjmp	.+28     	; 0x4f08 <plan_buffer_line+0x52e>
    4eec:	21 2f       	mov	r18, r17
    4eee:	30 2f       	mov	r19, r16
    4ef0:	4f 2d       	mov	r20, r15
    4ef2:	5e 2d       	mov	r21, r14
    4ef4:	b5 01       	movw	r22, r10
    4ef6:	c6 01       	movw	r24, r12
    4ef8:	0e 94 df 34 	call	0x69be	; 0x69be <__cmpsf2>
    4efc:	87 fd       	sbrc	r24, 7
    4efe:	04 c0       	rjmp	.+8      	; 0x4f08 <plan_buffer_line+0x52e>
    4f00:	a1 2e       	mov	r10, r17
    4f02:	b0 2e       	mov	r11, r16
    4f04:	cf 2c       	mov	r12, r15
    4f06:	de 2c       	mov	r13, r14
    4f08:	c5 01       	movw	r24, r10
    4f0a:	d6 01       	movw	r26, r12
    4f0c:	f1 01       	movw	r30, r2
    4f0e:	85 8b       	std	Z+21, r24	; 0x15
    4f10:	96 8b       	std	Z+22, r25	; 0x16
    4f12:	a7 8b       	std	Z+23, r26	; 0x17
    4f14:	b0 8f       	std	Z+24, r27	; 0x18
    4f16:	8c e0       	ldi	r24, 0x0C	; 12
    4f18:	fe 01       	movw	r30, r28
    4f1a:	31 96       	adiw	r30, 0x01	; 1
    4f1c:	a1 e3       	ldi	r26, 0x31	; 49
    4f1e:	b2 e0       	ldi	r27, 0x02	; 2
    4f20:	01 90       	ld	r0, Z+
    4f22:	0d 92       	st	X+, r0
    4f24:	8a 95       	dec	r24
    4f26:	e1 f7       	brne	.-8      	; 0x4f20 <plan_buffer_line+0x546>
    4f28:	81 2f       	mov	r24, r17
    4f2a:	90 2f       	mov	r25, r16
    4f2c:	af 2d       	mov	r26, r15
    4f2e:	be 2d       	mov	r27, r14
    4f30:	80 93 3d 02 	sts	0x023D, r24
    4f34:	90 93 3e 02 	sts	0x023E, r25
    4f38:	a0 93 3f 02 	sts	0x023F, r26
    4f3c:	b0 93 40 02 	sts	0x0240, r27
    4f40:	8c e0       	ldi	r24, 0x0C	; 12
    4f42:	fe 01       	movw	r30, r28
    4f44:	3d 96       	adiw	r30, 0x0d	; 13
    4f46:	a5 e2       	ldi	r26, 0x25	; 37
    4f48:	b2 e0       	ldi	r27, 0x02	; 2
    4f4a:	01 90       	ld	r0, Z+
    4f4c:	0d 92       	st	X+, r0
    4f4e:	8a 95       	dec	r24
    4f50:	e1 f7       	brne	.-8      	; 0x4f4a <plan_buffer_line+0x570>
    4f52:	80 91 42 02 	lds	r24, 0x0242
    4f56:	80 93 43 02 	sts	0x0243, r24
    4f5a:	8f 5f       	subi	r24, 0xFF	; 255
    4f5c:	82 31       	cpi	r24, 0x12	; 18
    4f5e:	09 f4       	brne	.+2      	; 0x4f62 <plan_buffer_line+0x588>
    4f60:	80 e0       	ldi	r24, 0x00	; 0
    4f62:	80 93 42 02 	sts	0x0242, r24
    4f66:	ad 96       	adiw	r28, 0x2d	; 45
    4f68:	0f b6       	in	r0, 0x3f	; 63
    4f6a:	f8 94       	cli
    4f6c:	de bf       	out	0x3e, r29	; 62
    4f6e:	0f be       	out	0x3f, r0	; 63
    4f70:	cd bf       	out	0x3d, r28	; 61
    4f72:	df 91       	pop	r29
    4f74:	cf 91       	pop	r28
    4f76:	1f 91       	pop	r17
    4f78:	0f 91       	pop	r16
    4f7a:	ff 90       	pop	r15
    4f7c:	ef 90       	pop	r14
    4f7e:	df 90       	pop	r13
    4f80:	cf 90       	pop	r12
    4f82:	bf 90       	pop	r11
    4f84:	af 90       	pop	r10
    4f86:	9f 90       	pop	r9
    4f88:	8f 90       	pop	r8
    4f8a:	7f 90       	pop	r7
    4f8c:	6f 90       	pop	r6
    4f8e:	5f 90       	pop	r5
    4f90:	4f 90       	pop	r4
    4f92:	3f 90       	pop	r3
    4f94:	2f 90       	pop	r2
    4f96:	0c 94 7b 23 	jmp	0x46f6	; 0x46f6 <planner_recalculate>
    4f9a:	ad 96       	adiw	r28, 0x2d	; 45
    4f9c:	0f b6       	in	r0, 0x3f	; 63
    4f9e:	f8 94       	cli
    4fa0:	de bf       	out	0x3e, r29	; 62
    4fa2:	0f be       	out	0x3f, r0	; 63
    4fa4:	cd bf       	out	0x3d, r28	; 61
    4fa6:	df 91       	pop	r29
    4fa8:	cf 91       	pop	r28
    4faa:	1f 91       	pop	r17
    4fac:	0f 91       	pop	r16
    4fae:	ff 90       	pop	r15
    4fb0:	ef 90       	pop	r14
    4fb2:	df 90       	pop	r13
    4fb4:	cf 90       	pop	r12
    4fb6:	bf 90       	pop	r11
    4fb8:	af 90       	pop	r10
    4fba:	9f 90       	pop	r9
    4fbc:	8f 90       	pop	r8
    4fbe:	7f 90       	pop	r7
    4fc0:	6f 90       	pop	r6
    4fc2:	5f 90       	pop	r5
    4fc4:	4f 90       	pop	r4
    4fc6:	3f 90       	pop	r3
    4fc8:	2f 90       	pop	r2
    4fca:	08 95       	ret

00004fcc <plan_sync_position>:
    4fcc:	80 91 2b 05 	lds	r24, 0x052B
    4fd0:	90 91 2c 05 	lds	r25, 0x052C
    4fd4:	a0 91 2d 05 	lds	r26, 0x052D
    4fd8:	b0 91 2e 05 	lds	r27, 0x052E
    4fdc:	80 93 25 02 	sts	0x0225, r24
    4fe0:	90 93 26 02 	sts	0x0226, r25
    4fe4:	a0 93 27 02 	sts	0x0227, r26
    4fe8:	b0 93 28 02 	sts	0x0228, r27
    4fec:	80 91 2f 05 	lds	r24, 0x052F
    4ff0:	90 91 30 05 	lds	r25, 0x0530
    4ff4:	a0 91 31 05 	lds	r26, 0x0531
    4ff8:	b0 91 32 05 	lds	r27, 0x0532
    4ffc:	80 93 29 02 	sts	0x0229, r24
    5000:	90 93 2a 02 	sts	0x022A, r25
    5004:	a0 93 2b 02 	sts	0x022B, r26
    5008:	b0 93 2c 02 	sts	0x022C, r27
    500c:	80 91 33 05 	lds	r24, 0x0533
    5010:	90 91 34 05 	lds	r25, 0x0534
    5014:	a0 91 35 05 	lds	r26, 0x0535
    5018:	b0 91 36 05 	lds	r27, 0x0536
    501c:	80 93 2d 02 	sts	0x022D, r24
    5020:	90 93 2e 02 	sts	0x022E, r25
    5024:	a0 93 2f 02 	sts	0x022F, r26
    5028:	b0 93 30 02 	sts	0x0230, r27
    502c:	08 95       	ret

0000502e <plan_get_block_buffer_count>:
    502e:	80 91 43 02 	lds	r24, 0x0243
    5032:	90 91 44 02 	lds	r25, 0x0244
    5036:	89 17       	cp	r24, r25
    5038:	08 f4       	brcc	.+2      	; 0x503c <plan_get_block_buffer_count+0xe>
    503a:	8e 5e       	subi	r24, 0xEE	; 238
    503c:	89 1b       	sub	r24, r25
    503e:	08 95       	ret

00005040 <plan_cycle_reinitialize>:
    5040:	0e 94 9a 19 	call	0x3334	; 0x3334 <st_update_plan_block_parameters>
    5044:	80 91 44 02 	lds	r24, 0x0244
    5048:	80 93 41 02 	sts	0x0241, r24
    504c:	0c 94 7b 23 	jmp	0x46f6	; 0x46f6 <planner_recalculate>

00005050 <read_float>:
    5050:	6f 92       	push	r6
    5052:	7f 92       	push	r7
    5054:	8f 92       	push	r8
    5056:	9f 92       	push	r9
    5058:	af 92       	push	r10
    505a:	bf 92       	push	r11
    505c:	cf 92       	push	r12
    505e:	df 92       	push	r13
    5060:	ef 92       	push	r14
    5062:	ff 92       	push	r15
    5064:	0f 93       	push	r16
    5066:	1f 93       	push	r17
    5068:	cf 93       	push	r28
    506a:	df 93       	push	r29
    506c:	7c 01       	movw	r14, r24
    506e:	8b 01       	movw	r16, r22
    5070:	6a 01       	movw	r12, r20
    5072:	fb 01       	movw	r30, r22
    5074:	80 81       	ld	r24, Z
    5076:	f7 01       	movw	r30, r14
    5078:	e8 0f       	add	r30, r24
    507a:	f1 1d       	adc	r31, r1
    507c:	20 81       	ld	r18, Z
    507e:	ef 01       	movw	r28, r30
    5080:	2d 32       	cpi	r18, 0x2D	; 45
    5082:	29 f4       	brne	.+10     	; 0x508e <read_float+0x3e>
    5084:	22 96       	adiw	r28, 0x02	; 2
    5086:	21 81       	ldd	r18, Z+1	; 0x01
    5088:	66 24       	eor	r6, r6
    508a:	63 94       	inc	r6
    508c:	07 c0       	rjmp	.+14     	; 0x509c <read_float+0x4c>
    508e:	2b 32       	cpi	r18, 0x2B	; 43
    5090:	11 f0       	breq	.+4      	; 0x5096 <read_float+0x46>
    5092:	21 96       	adiw	r28, 0x01	; 1
    5094:	02 c0       	rjmp	.+4      	; 0x509a <read_float+0x4a>
    5096:	22 96       	adiw	r28, 0x02	; 2
    5098:	21 81       	ldd	r18, Z+1	; 0x01
    509a:	61 2c       	mov	r6, r1
    509c:	a1 2c       	mov	r10, r1
    509e:	b1 2c       	mov	r11, r1
    50a0:	71 2c       	mov	r7, r1
    50a2:	60 e0       	ldi	r22, 0x00	; 0
    50a4:	70 e0       	ldi	r23, 0x00	; 0
    50a6:	cb 01       	movw	r24, r22
    50a8:	fe 01       	movw	r30, r28
    50aa:	30 ed       	ldi	r19, 0xD0	; 208
    50ac:	93 2e       	mov	r9, r19
    50ae:	92 0e       	add	r9, r18
    50b0:	29 e0       	ldi	r18, 0x09	; 9
    50b2:	29 15       	cp	r18, r9
    50b4:	c8 f0       	brcs	.+50     	; 0x50e8 <read_float+0x98>
    50b6:	b3 94       	inc	r11
    50b8:	28 e0       	ldi	r18, 0x08	; 8
    50ba:	2b 15       	cp	r18, r11
    50bc:	88 f0       	brcs	.+34     	; 0x50e0 <read_float+0x90>
    50be:	a1 10       	cpse	r10, r1
    50c0:	7a 94       	dec	r7
    50c2:	a5 e0       	ldi	r26, 0x05	; 5
    50c4:	b0 e0       	ldi	r27, 0x00	; 0
    50c6:	9b 01       	movw	r18, r22
    50c8:	ac 01       	movw	r20, r24
    50ca:	0e 94 3e 38 	call	0x707c	; 0x707c <__muluhisi3>
    50ce:	66 0f       	add	r22, r22
    50d0:	77 1f       	adc	r23, r23
    50d2:	88 1f       	adc	r24, r24
    50d4:	99 1f       	adc	r25, r25
    50d6:	69 0d       	add	r22, r9
    50d8:	71 1d       	adc	r23, r1
    50da:	81 1d       	adc	r24, r1
    50dc:	91 1d       	adc	r25, r1
    50de:	0b c0       	rjmp	.+22     	; 0x50f6 <read_float+0xa6>
    50e0:	a1 10       	cpse	r10, r1
    50e2:	09 c0       	rjmp	.+18     	; 0x50f6 <read_float+0xa6>
    50e4:	73 94       	inc	r7
    50e6:	07 c0       	rjmp	.+14     	; 0x50f6 <read_float+0xa6>
    50e8:	2e ef       	ldi	r18, 0xFE	; 254
    50ea:	92 12       	cpse	r9, r18
    50ec:	07 c0       	rjmp	.+14     	; 0x50fc <read_float+0xac>
    50ee:	a1 10       	cpse	r10, r1
    50f0:	05 c0       	rjmp	.+10     	; 0x50fc <read_float+0xac>
    50f2:	aa 24       	eor	r10, r10
    50f4:	a3 94       	inc	r10
    50f6:	21 96       	adiw	r28, 0x01	; 1
    50f8:	20 81       	ld	r18, Z
    50fa:	d6 cf       	rjmp	.-84     	; 0x50a8 <read_float+0x58>
    50fc:	bb 20       	and	r11, r11
    50fe:	09 f4       	brne	.+2      	; 0x5102 <read_float+0xb2>
    5100:	49 c0       	rjmp	.+146    	; 0x5194 <read_float+0x144>
    5102:	0e 94 7f 35 	call	0x6afe	; 0x6afe <__floatunsisf>
    5106:	4b 01       	movw	r8, r22
    5108:	5c 01       	movw	r10, r24
    510a:	20 e0       	ldi	r18, 0x00	; 0
    510c:	30 e0       	ldi	r19, 0x00	; 0
    510e:	a9 01       	movw	r20, r18
    5110:	0e 94 df 34 	call	0x69be	; 0x69be <__cmpsf2>
    5114:	88 23       	and	r24, r24
    5116:	61 f1       	breq	.+88     	; 0x5170 <read_float+0x120>
    5118:	8f ef       	ldi	r24, 0xFF	; 255
    511a:	78 16       	cp	r7, r24
    511c:	6c f4       	brge	.+26     	; 0x5138 <read_float+0xe8>
    511e:	2a e0       	ldi	r18, 0x0A	; 10
    5120:	37 ed       	ldi	r19, 0xD7	; 215
    5122:	43 e2       	ldi	r20, 0x23	; 35
    5124:	5c e3       	ldi	r21, 0x3C	; 60
    5126:	c5 01       	movw	r24, r10
    5128:	b4 01       	movw	r22, r8
    512a:	0e 94 1d 37 	call	0x6e3a	; 0x6e3a <__mulsf3>
    512e:	4b 01       	movw	r8, r22
    5130:	5c 01       	movw	r10, r24
    5132:	73 94       	inc	r7
    5134:	73 94       	inc	r7
    5136:	f0 cf       	rjmp	.-32     	; 0x5118 <read_float+0xc8>
    5138:	78 12       	cpse	r7, r24
    513a:	0b c0       	rjmp	.+22     	; 0x5152 <read_float+0x102>
    513c:	2d ec       	ldi	r18, 0xCD	; 205
    513e:	3c ec       	ldi	r19, 0xCC	; 204
    5140:	4c ec       	ldi	r20, 0xCC	; 204
    5142:	5d e3       	ldi	r21, 0x3D	; 61
    5144:	c5 01       	movw	r24, r10
    5146:	b4 01       	movw	r22, r8
    5148:	0e 94 1d 37 	call	0x6e3a	; 0x6e3a <__mulsf3>
    514c:	4b 01       	movw	r8, r22
    514e:	5c 01       	movw	r10, r24
    5150:	0f c0       	rjmp	.+30     	; 0x5170 <read_float+0x120>
    5152:	77 20       	and	r7, r7
    5154:	69 f0       	breq	.+26     	; 0x5170 <read_float+0x120>
    5156:	20 e0       	ldi	r18, 0x00	; 0
    5158:	30 e0       	ldi	r19, 0x00	; 0
    515a:	40 e2       	ldi	r20, 0x20	; 32
    515c:	51 e4       	ldi	r21, 0x41	; 65
    515e:	c5 01       	movw	r24, r10
    5160:	b4 01       	movw	r22, r8
    5162:	0e 94 1d 37 	call	0x6e3a	; 0x6e3a <__mulsf3>
    5166:	4b 01       	movw	r8, r22
    5168:	5c 01       	movw	r10, r24
    516a:	7a 94       	dec	r7
    516c:	17 14       	cp	r1, r7
    516e:	9c f3       	brlt	.-26     	; 0x5156 <read_float+0x106>
    5170:	66 20       	and	r6, r6
    5172:	21 f0       	breq	.+8      	; 0x517c <read_float+0x12c>
    5174:	b7 fa       	bst	r11, 7
    5176:	b0 94       	com	r11
    5178:	b7 f8       	bld	r11, 7
    517a:	b0 94       	com	r11
    517c:	f6 01       	movw	r30, r12
    517e:	80 82       	st	Z, r8
    5180:	91 82       	std	Z+1, r9	; 0x01
    5182:	a2 82       	std	Z+2, r10	; 0x02
    5184:	b3 82       	std	Z+3, r11	; 0x03
    5186:	ce 19       	sub	r28, r14
    5188:	df 09       	sbc	r29, r15
    518a:	c1 50       	subi	r28, 0x01	; 1
    518c:	f8 01       	movw	r30, r16
    518e:	c0 83       	st	Z, r28
    5190:	81 e0       	ldi	r24, 0x01	; 1
    5192:	01 c0       	rjmp	.+2      	; 0x5196 <read_float+0x146>
    5194:	80 e0       	ldi	r24, 0x00	; 0
    5196:	df 91       	pop	r29
    5198:	cf 91       	pop	r28
    519a:	1f 91       	pop	r17
    519c:	0f 91       	pop	r16
    519e:	ff 90       	pop	r15
    51a0:	ef 90       	pop	r14
    51a2:	df 90       	pop	r13
    51a4:	cf 90       	pop	r12
    51a6:	bf 90       	pop	r11
    51a8:	af 90       	pop	r10
    51aa:	9f 90       	pop	r9
    51ac:	8f 90       	pop	r8
    51ae:	7f 90       	pop	r7
    51b0:	6f 90       	pop	r6
    51b2:	08 95       	ret

000051b4 <delay_ms>:
    51b4:	00 97       	sbiw	r24, 0x00	; 0
    51b6:	41 f0       	breq	.+16     	; 0x51c8 <delay_ms+0x14>
    51b8:	ef e9       	ldi	r30, 0x9F	; 159
    51ba:	ff e0       	ldi	r31, 0x0F	; 15
    51bc:	31 97       	sbiw	r30, 0x01	; 1
    51be:	f1 f7       	brne	.-4      	; 0x51bc <delay_ms+0x8>
    51c0:	00 c0       	rjmp	.+0      	; 0x51c2 <delay_ms+0xe>
    51c2:	00 00       	nop
    51c4:	01 97       	sbiw	r24, 0x01	; 1
    51c6:	f6 cf       	rjmp	.-20     	; 0x51b4 <delay_ms>
    51c8:	08 95       	ret

000051ca <hypot_f>:
    51ca:	8f 92       	push	r8
    51cc:	9f 92       	push	r9
    51ce:	af 92       	push	r10
    51d0:	bf 92       	push	r11
    51d2:	cf 92       	push	r12
    51d4:	df 92       	push	r13
    51d6:	ef 92       	push	r14
    51d8:	ff 92       	push	r15
    51da:	69 01       	movw	r12, r18
    51dc:	7a 01       	movw	r14, r20
    51de:	9b 01       	movw	r18, r22
    51e0:	ac 01       	movw	r20, r24
    51e2:	0e 94 1d 37 	call	0x6e3a	; 0x6e3a <__mulsf3>
    51e6:	4b 01       	movw	r8, r22
    51e8:	5c 01       	movw	r10, r24
    51ea:	a7 01       	movw	r20, r14
    51ec:	96 01       	movw	r18, r12
    51ee:	c7 01       	movw	r24, r14
    51f0:	b6 01       	movw	r22, r12
    51f2:	0e 94 1d 37 	call	0x6e3a	; 0x6e3a <__mulsf3>
    51f6:	9b 01       	movw	r18, r22
    51f8:	ac 01       	movw	r20, r24
    51fa:	c5 01       	movw	r24, r10
    51fc:	b4 01       	movw	r22, r8
    51fe:	0e 94 06 34 	call	0x680c	; 0x680c <__addsf3>
    5202:	ff 90       	pop	r15
    5204:	ef 90       	pop	r14
    5206:	df 90       	pop	r13
    5208:	cf 90       	pop	r12
    520a:	bf 90       	pop	r11
    520c:	af 90       	pop	r10
    520e:	9f 90       	pop	r9
    5210:	8f 90       	pop	r8
    5212:	0c 94 aa 37 	jmp	0x6f54	; 0x6f54 <sqrt>

00005216 <limits_disable>:
    5216:	eb e6       	ldi	r30, 0x6B	; 107
    5218:	f0 e0       	ldi	r31, 0x00	; 0
    521a:	80 81       	ld	r24, Z
    521c:	89 7e       	andi	r24, 0xE9	; 233
    521e:	80 83       	st	Z, r24
    5220:	e8 e6       	ldi	r30, 0x68	; 104
    5222:	f0 e0       	ldi	r31, 0x00	; 0
    5224:	80 81       	ld	r24, Z
    5226:	8e 7f       	andi	r24, 0xFE	; 254
    5228:	80 83       	st	Z, r24
    522a:	08 95       	ret

0000522c <limits_init>:
    522c:	84 b1       	in	r24, 0x04	; 4
    522e:	89 7e       	andi	r24, 0xE9	; 233
    5230:	84 b9       	out	0x04, r24	; 4
    5232:	85 b1       	in	r24, 0x05	; 5
    5234:	86 61       	ori	r24, 0x16	; 22
    5236:	85 b9       	out	0x05, r24	; 5
    5238:	80 91 bd 06 	lds	r24, 0x06BD
    523c:	83 ff       	sbrs	r24, 3
    523e:	0b c0       	rjmp	.+22     	; 0x5256 <limits_init+0x2a>
    5240:	80 91 6b 00 	lds	r24, 0x006B
    5244:	86 61       	ori	r24, 0x16	; 22
    5246:	80 93 6b 00 	sts	0x006B, r24
    524a:	80 91 68 00 	lds	r24, 0x0068
    524e:	81 60       	ori	r24, 0x01	; 1
    5250:	80 93 68 00 	sts	0x0068, r24
    5254:	08 95       	ret
    5256:	0c 94 0b 29 	jmp	0x5216	; 0x5216 <limits_disable>

0000525a <limits_get_state>:
    525a:	cf 92       	push	r12
    525c:	df 92       	push	r13
    525e:	ff 92       	push	r15
    5260:	0f 93       	push	r16
    5262:	1f 93       	push	r17
    5264:	cf 93       	push	r28
    5266:	df 93       	push	r29
    5268:	1f 92       	push	r1
    526a:	cd b7       	in	r28, 0x3d	; 61
    526c:	de b7       	in	r29, 0x3e	; 62
    526e:	93 b1       	in	r25, 0x03	; 3
    5270:	96 71       	andi	r25, 0x16	; 22
    5272:	80 91 bd 06 	lds	r24, 0x06BD
    5276:	86 fd       	sbrc	r24, 6
    5278:	02 c0       	rjmp	.+4      	; 0x527e <limits_get_state+0x24>
    527a:	86 e1       	ldi	r24, 0x16	; 22
    527c:	98 27       	eor	r25, r24
    527e:	99 23       	and	r25, r25
    5280:	d9 f0       	breq	.+54     	; 0x52b8 <limits_get_state+0x5e>
    5282:	c1 2c       	mov	r12, r1
    5284:	d1 2c       	mov	r13, r1
    5286:	f1 2c       	mov	r15, r1
    5288:	01 e0       	ldi	r16, 0x01	; 1
    528a:	10 e0       	ldi	r17, 0x00	; 0
    528c:	8c 2d       	mov	r24, r12
    528e:	99 83       	std	Y+1, r25	; 0x01
    5290:	0e 94 71 23 	call	0x46e2	; 0x46e2 <get_limit_pin_mask>
    5294:	99 81       	ldd	r25, Y+1	; 0x01
    5296:	89 23       	and	r24, r25
    5298:	39 f0       	breq	.+14     	; 0x52a8 <limits_get_state+0x4e>
    529a:	98 01       	movw	r18, r16
    529c:	0c 2c       	mov	r0, r12
    529e:	01 c0       	rjmp	.+2      	; 0x52a2 <limits_get_state+0x48>
    52a0:	22 0f       	add	r18, r18
    52a2:	0a 94       	dec	r0
    52a4:	ea f7       	brpl	.-6      	; 0x52a0 <limits_get_state+0x46>
    52a6:	f2 2a       	or	r15, r18
    52a8:	8f ef       	ldi	r24, 0xFF	; 255
    52aa:	c8 1a       	sub	r12, r24
    52ac:	d8 0a       	sbc	r13, r24
    52ae:	e3 e0       	ldi	r30, 0x03	; 3
    52b0:	ce 16       	cp	r12, r30
    52b2:	d1 04       	cpc	r13, r1
    52b4:	59 f7       	brne	.-42     	; 0x528c <limits_get_state+0x32>
    52b6:	01 c0       	rjmp	.+2      	; 0x52ba <limits_get_state+0x60>
    52b8:	f1 2c       	mov	r15, r1
    52ba:	8f 2d       	mov	r24, r15
    52bc:	0f 90       	pop	r0
    52be:	df 91       	pop	r29
    52c0:	cf 91       	pop	r28
    52c2:	1f 91       	pop	r17
    52c4:	0f 91       	pop	r16
    52c6:	ff 90       	pop	r15
    52c8:	df 90       	pop	r13
    52ca:	cf 90       	pop	r12
    52cc:	08 95       	ret

000052ce <__vector_3>:
    52ce:	1f 92       	push	r1
    52d0:	0f 92       	push	r0
    52d2:	0f b6       	in	r0, 0x3f	; 63
    52d4:	0f 92       	push	r0
    52d6:	11 24       	eor	r1, r1
    52d8:	2f 93       	push	r18
    52da:	3f 93       	push	r19
    52dc:	4f 93       	push	r20
    52de:	5f 93       	push	r21
    52e0:	6f 93       	push	r22
    52e2:	7f 93       	push	r23
    52e4:	8f 93       	push	r24
    52e6:	9f 93       	push	r25
    52e8:	af 93       	push	r26
    52ea:	bf 93       	push	r27
    52ec:	ef 93       	push	r30
    52ee:	ff 93       	push	r31
    52f0:	80 91 28 05 	lds	r24, 0x0528
    52f4:	81 30       	cpi	r24, 0x01	; 1
    52f6:	71 f0       	breq	.+28     	; 0x5314 <__vector_3+0x46>
    52f8:	80 91 47 05 	lds	r24, 0x0547
    52fc:	81 11       	cpse	r24, r1
    52fe:	0a c0       	rjmp	.+20     	; 0x5314 <__vector_3+0x46>
    5300:	0e 94 d2 08 	call	0x11a4	; 0x11a4 <mc_reset>
    5304:	9f b7       	in	r25, 0x3f	; 63
    5306:	f8 94       	cli
    5308:	80 91 47 05 	lds	r24, 0x0547
    530c:	83 60       	ori	r24, 0x03	; 3
    530e:	80 93 47 05 	sts	0x0547, r24
    5312:	9f bf       	out	0x3f, r25	; 63
    5314:	ff 91       	pop	r31
    5316:	ef 91       	pop	r30
    5318:	bf 91       	pop	r27
    531a:	af 91       	pop	r26
    531c:	9f 91       	pop	r25
    531e:	8f 91       	pop	r24
    5320:	7f 91       	pop	r23
    5322:	6f 91       	pop	r22
    5324:	5f 91       	pop	r21
    5326:	4f 91       	pop	r20
    5328:	3f 91       	pop	r19
    532a:	2f 91       	pop	r18
    532c:	0f 90       	pop	r0
    532e:	0f be       	out	0x3f, r0	; 63
    5330:	0f 90       	pop	r0
    5332:	1f 90       	pop	r1
    5334:	18 95       	reti

00005336 <limits_go_home>:
    5336:	2f 92       	push	r2
    5338:	3f 92       	push	r3
    533a:	4f 92       	push	r4
    533c:	5f 92       	push	r5
    533e:	6f 92       	push	r6
    5340:	7f 92       	push	r7
    5342:	8f 92       	push	r8
    5344:	9f 92       	push	r9
    5346:	af 92       	push	r10
    5348:	bf 92       	push	r11
    534a:	cf 92       	push	r12
    534c:	df 92       	push	r13
    534e:	ef 92       	push	r14
    5350:	ff 92       	push	r15
    5352:	0f 93       	push	r16
    5354:	1f 93       	push	r17
    5356:	cf 93       	push	r28
    5358:	df 93       	push	r29
    535a:	cd b7       	in	r28, 0x3d	; 61
    535c:	de b7       	in	r29, 0x3e	; 62
    535e:	67 97       	sbiw	r28, 0x17	; 23
    5360:	0f b6       	in	r0, 0x3f	; 63
    5362:	f8 94       	cli
    5364:	de bf       	out	0x3e, r29	; 62
    5366:	0f be       	out	0x3f, r0	; 63
    5368:	cd bf       	out	0x3d, r28	; 61
    536a:	58 2e       	mov	r5, r24
    536c:	80 91 27 05 	lds	r24, 0x0527
    5370:	81 11       	cpse	r24, r1
    5372:	a1 c1       	rjmp	.+834    	; 0x56b6 <limits_go_home+0x380>
    5374:	24 ea       	ldi	r18, 0xA4	; 164
    5376:	a2 2e       	mov	r10, r18
    5378:	26 e0       	ldi	r18, 0x06	; 6
    537a:	b2 2e       	mov	r11, r18
    537c:	9e 01       	movw	r18, r28
    537e:	23 5f       	subi	r18, 0xF3	; 243
    5380:	3f 4f       	sbci	r19, 0xFF	; 255
    5382:	19 01       	movw	r2, r18
    5384:	00 e0       	ldi	r16, 0x00	; 0
    5386:	10 e0       	ldi	r17, 0x00	; 0
    5388:	c1 2c       	mov	r12, r1
    538a:	d1 2c       	mov	r13, r1
    538c:	76 01       	movw	r14, r12
    538e:	65 2c       	mov	r6, r5
    5390:	71 2c       	mov	r7, r1
    5392:	80 2f       	mov	r24, r16
    5394:	0e 94 5d 23 	call	0x46ba	; 0x46ba <get_step_pin_mask>
    5398:	d1 01       	movw	r26, r2
    539a:	8d 93       	st	X+, r24
    539c:	1d 01       	movw	r2, r26
    539e:	c3 01       	movw	r24, r6
    53a0:	00 2e       	mov	r0, r16
    53a2:	02 c0       	rjmp	.+4      	; 0x53a8 <limits_go_home+0x72>
    53a4:	95 95       	asr	r25
    53a6:	87 95       	ror	r24
    53a8:	0a 94       	dec	r0
    53aa:	e2 f7       	brpl	.-8      	; 0x53a4 <limits_go_home+0x6e>
    53ac:	80 ff       	sbrs	r24, 0
    53ae:	1a c0       	rjmp	.+52     	; 0x53e4 <limits_go_home+0xae>
    53b0:	20 e0       	ldi	r18, 0x00	; 0
    53b2:	30 e0       	ldi	r19, 0x00	; 0
    53b4:	40 ec       	ldi	r20, 0xC0	; 192
    53b6:	5f eb       	ldi	r21, 0xBF	; 191
    53b8:	f5 01       	movw	r30, r10
    53ba:	60 81       	ld	r22, Z
    53bc:	71 81       	ldd	r23, Z+1	; 0x01
    53be:	82 81       	ldd	r24, Z+2	; 0x02
    53c0:	93 81       	ldd	r25, Z+3	; 0x03
    53c2:	0e 94 1d 37 	call	0x6e3a	; 0x6e3a <__mulsf3>
    53c6:	68 8b       	std	Y+16, r22	; 0x10
    53c8:	47 2e       	mov	r4, r23
    53ca:	4c 01       	movw	r8, r24
    53cc:	26 2f       	mov	r18, r22
    53ce:	37 2f       	mov	r19, r23
    53d0:	ac 01       	movw	r20, r24
    53d2:	c7 01       	movw	r24, r14
    53d4:	b6 01       	movw	r22, r12
    53d6:	0e 94 e2 36 	call	0x6dc4	; 0x6dc4 <__gesf2>
    53da:	18 16       	cp	r1, r24
    53dc:	1c f0       	brlt	.+6      	; 0x53e4 <limits_go_home+0xae>
    53de:	c8 88       	ldd	r12, Y+16	; 0x10
    53e0:	d4 2c       	mov	r13, r4
    53e2:	74 01       	movw	r14, r8
    53e4:	0f 5f       	subi	r16, 0xFF	; 255
    53e6:	1f 4f       	sbci	r17, 0xFF	; 255
    53e8:	f4 e0       	ldi	r31, 0x04	; 4
    53ea:	af 0e       	add	r10, r31
    53ec:	b1 1c       	adc	r11, r1
    53ee:	03 30       	cpi	r16, 0x03	; 3
    53f0:	11 05       	cpc	r17, r1
    53f2:	79 f6       	brne	.-98     	; 0x5392 <limits_go_home+0x5c>
    53f4:	80 90 c3 06 	lds	r8, 0x06C3
    53f8:	90 90 c4 06 	lds	r9, 0x06C4
    53fc:	a0 90 c5 06 	lds	r10, 0x06C5
    5400:	b0 90 c6 06 	lds	r11, 0x06C6
    5404:	24 e0       	ldi	r18, 0x04	; 4
    5406:	28 8b       	std	Y+16, r18	; 0x10
    5408:	01 e0       	ldi	r16, 0x01	; 1
    540a:	6b e2       	ldi	r22, 0x2B	; 43
    540c:	75 e0       	ldi	r23, 0x05	; 5
    540e:	ce 01       	movw	r24, r28
    5410:	01 96       	adiw	r24, 0x01	; 1
    5412:	0e 94 eb 33 	call	0x67d6	; 0x67d6 <system_convert_array_steps_to_mpos>
    5416:	20 90 be 06 	lds	r2, 0x06BE
    541a:	31 2c       	mov	r3, r1
    541c:	fe 01       	movw	r30, r28
    541e:	31 96       	adiw	r30, 0x01	; 1
    5420:	8b e2       	ldi	r24, 0x2B	; 43
    5422:	95 e0       	ldi	r25, 0x05	; 5
    5424:	9f 8b       	std	Y+23, r25	; 0x17
    5426:	8e 8b       	std	Y+22, r24	; 0x16
    5428:	80 e0       	ldi	r24, 0x00	; 0
    542a:	90 e0       	ldi	r25, 0x00	; 0
    542c:	41 2c       	mov	r4, r1
    542e:	10 e0       	ldi	r17, 0x00	; 0
    5430:	b7 01       	movw	r22, r14
    5432:	a6 01       	movw	r20, r12
    5434:	70 58       	subi	r23, 0x80	; 128
    5436:	93 01       	movw	r18, r6
    5438:	08 2e       	mov	r0, r24
    543a:	02 c0       	rjmp	.+4      	; 0x5440 <limits_go_home+0x10a>
    543c:	35 95       	asr	r19
    543e:	27 95       	ror	r18
    5440:	0a 94       	dec	r0
    5442:	e2 f7       	brpl	.-8      	; 0x543c <limits_go_home+0x106>
    5444:	20 ff       	sbrs	r18, 0
    5446:	28 c0       	rjmp	.+80     	; 0x5498 <limits_go_home+0x162>
    5448:	43 94       	inc	r4
    544a:	ae 89       	ldd	r26, Y+22	; 0x16
    544c:	bf 89       	ldd	r27, Y+23	; 0x17
    544e:	1d 92       	st	X+, r1
    5450:	1d 92       	st	X+, r1
    5452:	1d 92       	st	X+, r1
    5454:	1c 92       	st	X, r1
    5456:	13 97       	sbiw	r26, 0x03	; 3
    5458:	91 01       	movw	r18, r2
    545a:	08 2e       	mov	r0, r24
    545c:	02 c0       	rjmp	.+4      	; 0x5462 <limits_go_home+0x12c>
    545e:	35 95       	asr	r19
    5460:	27 95       	ror	r18
    5462:	0a 94       	dec	r0
    5464:	e2 f7       	brpl	.-8      	; 0x545e <limits_go_home+0x128>
    5466:	20 ff       	sbrs	r18, 0
    5468:	03 c0       	rjmp	.+6      	; 0x5470 <limits_go_home+0x13a>
    546a:	00 23       	and	r16, r16
    546c:	19 f0       	breq	.+6      	; 0x5474 <limits_go_home+0x13e>
    546e:	07 c0       	rjmp	.+14     	; 0x547e <limits_go_home+0x148>
    5470:	00 23       	and	r16, r16
    5472:	29 f0       	breq	.+10     	; 0x547e <limits_go_home+0x148>
    5474:	c0 82       	st	Z, r12
    5476:	d1 82       	std	Z+1, r13	; 0x01
    5478:	e2 82       	std	Z+2, r14	; 0x02
    547a:	f3 82       	std	Z+3, r15	; 0x03
    547c:	04 c0       	rjmp	.+8      	; 0x5486 <limits_go_home+0x150>
    547e:	40 83       	st	Z, r20
    5480:	51 83       	std	Z+1, r21	; 0x01
    5482:	62 83       	std	Z+2, r22	; 0x02
    5484:	73 83       	std	Z+3, r23	; 0x03
    5486:	2d e0       	ldi	r18, 0x0D	; 13
    5488:	30 e0       	ldi	r19, 0x00	; 0
    548a:	2c 0f       	add	r18, r28
    548c:	3d 1f       	adc	r19, r29
    548e:	28 0f       	add	r18, r24
    5490:	39 1f       	adc	r19, r25
    5492:	d9 01       	movw	r26, r18
    5494:	2c 91       	ld	r18, X
    5496:	12 2b       	or	r17, r18
    5498:	01 96       	adiw	r24, 0x01	; 1
    549a:	34 96       	adiw	r30, 0x04	; 4
    549c:	2e 89       	ldd	r18, Y+22	; 0x16
    549e:	3f 89       	ldd	r19, Y+23	; 0x17
    54a0:	2c 5f       	subi	r18, 0xFC	; 252
    54a2:	3f 4f       	sbci	r19, 0xFF	; 255
    54a4:	3f 8b       	std	Y+23, r19	; 0x17
    54a6:	2e 8b       	std	Y+22, r18	; 0x16
    54a8:	83 30       	cpi	r24, 0x03	; 3
    54aa:	91 05       	cpc	r25, r1
    54ac:	21 f6       	brne	.-120    	; 0x5436 <limits_go_home+0x100>
    54ae:	64 2d       	mov	r22, r4
    54b0:	70 e0       	ldi	r23, 0x00	; 0
    54b2:	80 e0       	ldi	r24, 0x00	; 0
    54b4:	90 e0       	ldi	r25, 0x00	; 0
    54b6:	0e 94 7f 35 	call	0x6afe	; 0x6afe <__floatunsisf>
    54ba:	0e 94 aa 37 	call	0x6f54	; 0x6f54 <sqrt>
    54be:	9b 01       	movw	r18, r22
    54c0:	ac 01       	movw	r20, r24
    54c2:	c5 01       	movw	r24, r10
    54c4:	b4 01       	movw	r22, r8
    54c6:	0e 94 1d 37 	call	0x6e3a	; 0x6e3a <__mulsf3>
    54ca:	ab 01       	movw	r20, r22
    54cc:	bc 01       	movw	r22, r24
    54ce:	10 93 44 05 	sts	0x0544, r17
    54d2:	4a 8b       	std	Y+18, r20	; 0x12
    54d4:	5b 8b       	std	Y+19, r21	; 0x13
    54d6:	6c 8b       	std	Y+20, r22	; 0x14
    54d8:	7d 8b       	std	Y+21, r23	; 0x15
    54da:	0e 94 e6 27 	call	0x4fcc	; 0x4fcc <plan_sync_position>
    54de:	20 e0       	ldi	r18, 0x00	; 0
    54e0:	4a 89       	ldd	r20, Y+18	; 0x12
    54e2:	5b 89       	ldd	r21, Y+19	; 0x13
    54e4:	6c 89       	ldd	r22, Y+20	; 0x14
    54e6:	7d 89       	ldd	r23, Y+21	; 0x15
    54e8:	ce 01       	movw	r24, r28
    54ea:	01 96       	adiw	r24, 0x01	; 1
    54ec:	0e 94 ed 24 	call	0x49da	; 0x49da <plan_buffer_line>
    54f0:	0e 94 bc 19 	call	0x3378	; 0x3378 <st_prep_buffer>
    54f4:	0e 94 96 16 	call	0x2d2c	; 0x2d2c <st_wake_up>
    54f8:	00 23       	and	r16, r16
    54fa:	e9 f0       	breq	.+58     	; 0x5536 <limits_go_home+0x200>
    54fc:	0e 94 2d 29 	call	0x525a	; 0x525a <limits_get_state>
    5500:	fe 01       	movw	r30, r28
    5502:	3d 96       	adiw	r30, 0x0d	; 13
    5504:	20 e0       	ldi	r18, 0x00	; 0
    5506:	30 e0       	ldi	r19, 0x00	; 0
    5508:	90 e0       	ldi	r25, 0x00	; 0
    550a:	61 91       	ld	r22, Z+
    550c:	46 2f       	mov	r20, r22
    550e:	41 23       	and	r20, r17
    5510:	59 f0       	breq	.+22     	; 0x5528 <limits_go_home+0x1f2>
    5512:	ac 01       	movw	r20, r24
    5514:	02 2e       	mov	r0, r18
    5516:	02 c0       	rjmp	.+4      	; 0x551c <limits_go_home+0x1e6>
    5518:	55 95       	asr	r21
    551a:	47 95       	ror	r20
    551c:	0a 94       	dec	r0
    551e:	e2 f7       	brpl	.-8      	; 0x5518 <limits_go_home+0x1e2>
    5520:	40 ff       	sbrs	r20, 0
    5522:	02 c0       	rjmp	.+4      	; 0x5528 <limits_go_home+0x1f2>
    5524:	60 95       	com	r22
    5526:	16 23       	and	r17, r22
    5528:	2f 5f       	subi	r18, 0xFF	; 255
    552a:	3f 4f       	sbci	r19, 0xFF	; 255
    552c:	23 30       	cpi	r18, 0x03	; 3
    552e:	31 05       	cpc	r19, r1
    5530:	61 f7       	brne	.-40     	; 0x550a <limits_go_home+0x1d4>
    5532:	10 93 44 05 	sts	0x0544, r17
    5536:	0e 94 bc 19 	call	0x3378	; 0x3378 <st_prep_buffer>
    553a:	80 91 45 05 	lds	r24, 0x0545
    553e:	84 73       	andi	r24, 0x34	; 52
    5540:	c1 f0       	breq	.+48     	; 0x5572 <limits_go_home+0x23c>
    5542:	80 91 45 05 	lds	r24, 0x0545
    5546:	80 73       	andi	r24, 0x30	; 48
    5548:	29 f0       	breq	.+10     	; 0x5554 <limits_go_home+0x21e>
    554a:	0e 94 d2 08 	call	0x11a4	; 0x11a4 <mc_reset>
    554e:	0e 94 d4 14 	call	0x29a8	; 0x29a8 <protocol_execute_realtime>
    5552:	b1 c0       	rjmp	.+354    	; 0x56b6 <limits_go_home+0x380>
    5554:	01 11       	cpse	r16, r1
    5556:	aa c0       	rjmp	.+340    	; 0x56ac <limits_go_home+0x376>
    5558:	0e 94 2d 29 	call	0x525a	; 0x525a <limits_get_state>
    555c:	85 21       	and	r24, r5
    555e:	a9 f7       	brne	.-22     	; 0x554a <limits_go_home+0x214>
    5560:	9f b7       	in	r25, 0x3f	; 63
    5562:	f8 94       	cli
    5564:	80 91 45 05 	lds	r24, 0x0545
    5568:	8b 7f       	andi	r24, 0xFB	; 251
    556a:	80 93 45 05 	sts	0x0545, r24
    556e:	9f bf       	out	0x3f, r25	; 63
    5570:	04 c0       	rjmp	.+8      	; 0x557a <limits_go_home+0x244>
    5572:	81 2f       	mov	r24, r17
    5574:	8c 71       	andi	r24, 0x1C	; 28
    5576:	09 f0       	breq	.+2      	; 0x557a <limits_go_home+0x244>
    5578:	bf cf       	rjmp	.-130    	; 0x54f8 <limits_go_home+0x1c2>
    557a:	0e 94 4c 19 	call	0x3298	; 0x3298 <st_reset>
    557e:	0e 94 96 24 	call	0x492c	; 0x492c <plan_reset>
    5582:	80 91 c7 06 	lds	r24, 0x06C7
    5586:	90 91 c8 06 	lds	r25, 0x06C8
    558a:	0e 94 da 28 	call	0x51b4	; 0x51b4 <delay_ms>
    558e:	31 e0       	ldi	r19, 0x01	; 1
    5590:	03 27       	eor	r16, r19
    5592:	c9 f0       	breq	.+50     	; 0x55c6 <limits_go_home+0x290>
    5594:	20 e0       	ldi	r18, 0x00	; 0
    5596:	30 e0       	ldi	r19, 0x00	; 0
    5598:	40 ea       	ldi	r20, 0xA0	; 160
    559a:	50 e4       	ldi	r21, 0x40	; 64
    559c:	60 91 c9 06 	lds	r22, 0x06C9
    55a0:	70 91 ca 06 	lds	r23, 0x06CA
    55a4:	80 91 cb 06 	lds	r24, 0x06CB
    55a8:	90 91 cc 06 	lds	r25, 0x06CC
    55ac:	0e 94 1d 37 	call	0x6e3a	; 0x6e3a <__mulsf3>
    55b0:	6b 01       	movw	r12, r22
    55b2:	7c 01       	movw	r14, r24
    55b4:	80 90 bf 06 	lds	r8, 0x06BF
    55b8:	90 90 c0 06 	lds	r9, 0x06C0
    55bc:	a0 90 c1 06 	lds	r10, 0x06C1
    55c0:	b0 90 c2 06 	lds	r11, 0x06C2
    55c4:	10 c0       	rjmp	.+32     	; 0x55e6 <limits_go_home+0x2b0>
    55c6:	c0 90 c9 06 	lds	r12, 0x06C9
    55ca:	d0 90 ca 06 	lds	r13, 0x06CA
    55ce:	e0 90 cb 06 	lds	r14, 0x06CB
    55d2:	f0 90 cc 06 	lds	r15, 0x06CC
    55d6:	80 90 c3 06 	lds	r8, 0x06C3
    55da:	90 90 c4 06 	lds	r9, 0x06C4
    55de:	a0 90 c5 06 	lds	r10, 0x06C5
    55e2:	b0 90 c6 06 	lds	r11, 0x06C6
    55e6:	88 89       	ldd	r24, Y+16	; 0x10
    55e8:	81 50       	subi	r24, 0x01	; 1
    55ea:	88 8b       	std	Y+16, r24	; 0x10
    55ec:	81 11       	cpse	r24, r1
    55ee:	0d cf       	rjmp	.-486    	; 0x540a <limits_go_home+0xd4>
    55f0:	80 91 be 06 	lds	r24, 0x06BE
    55f4:	a8 2f       	mov	r26, r24
    55f6:	b0 e0       	ldi	r27, 0x00	; 0
    55f8:	b9 8b       	std	Y+17, r27	; 0x11
    55fa:	a8 8b       	std	Y+16, r26	; 0x10
    55fc:	c0 90 c9 06 	lds	r12, 0x06C9
    5600:	d0 90 ca 06 	lds	r13, 0x06CA
    5604:	e0 90 cb 06 	lds	r14, 0x06CB
    5608:	f0 90 cc 06 	lds	r15, 0x06CC
    560c:	16 01       	movw	r2, r12
    560e:	27 01       	movw	r4, r14
    5610:	57 fa       	bst	r5, 7
    5612:	50 94       	com	r5
    5614:	57 f8       	bld	r5, 7
    5616:	50 94       	com	r5
    5618:	80 e8       	ldi	r24, 0x80	; 128
    561a:	a8 2e       	mov	r10, r24
    561c:	86 e0       	ldi	r24, 0x06	; 6
    561e:	b8 2e       	mov	r11, r24
    5620:	9b e2       	ldi	r25, 0x2B	; 43
    5622:	89 2e       	mov	r8, r25
    5624:	95 e0       	ldi	r25, 0x05	; 5
    5626:	99 2e       	mov	r9, r25
    5628:	00 e0       	ldi	r16, 0x00	; 0
    562a:	10 e0       	ldi	r17, 0x00	; 0
    562c:	c3 01       	movw	r24, r6
    562e:	00 2e       	mov	r0, r16
    5630:	02 c0       	rjmp	.+4      	; 0x5636 <limits_go_home+0x300>
    5632:	95 95       	asr	r25
    5634:	87 95       	ror	r24
    5636:	0a 94       	dec	r0
    5638:	e2 f7       	brpl	.-8      	; 0x5632 <limits_go_home+0x2fc>
    563a:	80 ff       	sbrs	r24, 0
    563c:	29 c0       	rjmp	.+82     	; 0x5690 <limits_go_home+0x35a>
    563e:	88 89       	ldd	r24, Y+16	; 0x10
    5640:	99 89       	ldd	r25, Y+17	; 0x11
    5642:	00 2e       	mov	r0, r16
    5644:	02 c0       	rjmp	.+4      	; 0x564a <limits_go_home+0x314>
    5646:	95 95       	asr	r25
    5648:	87 95       	ror	r24
    564a:	0a 94       	dec	r0
    564c:	e2 f7       	brpl	.-8      	; 0x5646 <limits_go_home+0x310>
    564e:	f5 01       	movw	r30, r10
    5650:	80 ff       	sbrs	r24, 0
    5652:	0e c0       	rjmp	.+28     	; 0x5670 <limits_go_home+0x33a>
    5654:	24 a1       	ldd	r18, Z+36	; 0x24
    5656:	35 a1       	ldd	r19, Z+37	; 0x25
    5658:	46 a1       	ldd	r20, Z+38	; 0x26
    565a:	57 a1       	ldd	r21, Z+39	; 0x27
    565c:	c7 01       	movw	r24, r14
    565e:	b6 01       	movw	r22, r12
    5660:	0e 94 06 34 	call	0x680c	; 0x680c <__addsf3>
    5664:	d5 01       	movw	r26, r10
    5666:	2d 91       	ld	r18, X+
    5668:	3d 91       	ld	r19, X+
    566a:	4d 91       	ld	r20, X+
    566c:	5c 91       	ld	r21, X
    566e:	06 c0       	rjmp	.+12     	; 0x567c <limits_go_home+0x346>
    5670:	20 81       	ld	r18, Z
    5672:	31 81       	ldd	r19, Z+1	; 0x01
    5674:	42 81       	ldd	r20, Z+2	; 0x02
    5676:	53 81       	ldd	r21, Z+3	; 0x03
    5678:	c2 01       	movw	r24, r4
    567a:	b1 01       	movw	r22, r2
    567c:	0e 94 1d 37 	call	0x6e3a	; 0x6e3a <__mulsf3>
    5680:	0e 94 ed 36 	call	0x6dda	; 0x6dda <lround>
    5684:	d4 01       	movw	r26, r8
    5686:	6d 93       	st	X+, r22
    5688:	7d 93       	st	X+, r23
    568a:	8d 93       	st	X+, r24
    568c:	9c 93       	st	X, r25
    568e:	13 97       	sbiw	r26, 0x03	; 3
    5690:	0f 5f       	subi	r16, 0xFF	; 255
    5692:	1f 4f       	sbci	r17, 0xFF	; 255
    5694:	b4 e0       	ldi	r27, 0x04	; 4
    5696:	8b 0e       	add	r8, r27
    5698:	91 1c       	adc	r9, r1
    569a:	e4 e0       	ldi	r30, 0x04	; 4
    569c:	ae 0e       	add	r10, r30
    569e:	b1 1c       	adc	r11, r1
    56a0:	03 30       	cpi	r16, 0x03	; 3
    56a2:	11 05       	cpc	r17, r1
    56a4:	19 f6       	brne	.-122    	; 0x562c <limits_go_home+0x2f6>
    56a6:	0e 94 e6 27 	call	0x4fcc	; 0x4fcc <plan_sync_position>
    56aa:	05 c0       	rjmp	.+10     	; 0x56b6 <limits_go_home+0x380>
    56ac:	80 91 45 05 	lds	r24, 0x0545
    56b0:	82 ff       	sbrs	r24, 2
    56b2:	56 cf       	rjmp	.-340    	; 0x5560 <limits_go_home+0x22a>
    56b4:	4a cf       	rjmp	.-364    	; 0x554a <limits_go_home+0x214>
    56b6:	67 96       	adiw	r28, 0x17	; 23
    56b8:	0f b6       	in	r0, 0x3f	; 63
    56ba:	f8 94       	cli
    56bc:	de bf       	out	0x3e, r29	; 62
    56be:	0f be       	out	0x3f, r0	; 63
    56c0:	cd bf       	out	0x3d, r28	; 61
    56c2:	df 91       	pop	r29
    56c4:	cf 91       	pop	r28
    56c6:	1f 91       	pop	r17
    56c8:	0f 91       	pop	r16
    56ca:	ff 90       	pop	r15
    56cc:	ef 90       	pop	r14
    56ce:	df 90       	pop	r13
    56d0:	cf 90       	pop	r12
    56d2:	bf 90       	pop	r11
    56d4:	af 90       	pop	r10
    56d6:	9f 90       	pop	r9
    56d8:	8f 90       	pop	r8
    56da:	7f 90       	pop	r7
    56dc:	6f 90       	pop	r6
    56de:	5f 90       	pop	r5
    56e0:	4f 90       	pop	r4
    56e2:	3f 90       	pop	r3
    56e4:	2f 90       	pop	r2
    56e6:	08 95       	ret

000056e8 <limits_soft_check>:
    56e8:	bf 92       	push	r11
    56ea:	cf 92       	push	r12
    56ec:	df 92       	push	r13
    56ee:	ef 92       	push	r14
    56f0:	ff 92       	push	r15
    56f2:	0f 93       	push	r16
    56f4:	1f 93       	push	r17
    56f6:	cf 93       	push	r28
    56f8:	df 93       	push	r29
    56fa:	8c 01       	movw	r16, r24
    56fc:	c4 ea       	ldi	r28, 0xA4	; 164
    56fe:	d6 e0       	ldi	r29, 0x06	; 6
    5700:	bb 24       	eor	r11, r11
    5702:	b3 94       	inc	r11
    5704:	f8 01       	movw	r30, r16
    5706:	c1 90       	ld	r12, Z+
    5708:	d1 90       	ld	r13, Z+
    570a:	e1 90       	ld	r14, Z+
    570c:	f1 90       	ld	r15, Z+
    570e:	8f 01       	movw	r16, r30
    5710:	20 e0       	ldi	r18, 0x00	; 0
    5712:	30 e0       	ldi	r19, 0x00	; 0
    5714:	a9 01       	movw	r20, r18
    5716:	c7 01       	movw	r24, r14
    5718:	b6 01       	movw	r22, r12
    571a:	0e 94 e2 36 	call	0x6dc4	; 0x6dc4 <__gesf2>
    571e:	18 16       	cp	r1, r24
    5720:	4c f0       	brlt	.+18     	; 0x5734 <limits_soft_check+0x4c>
    5722:	28 81       	ld	r18, Y
    5724:	39 81       	ldd	r19, Y+1	; 0x01
    5726:	4a 81       	ldd	r20, Y+2	; 0x02
    5728:	5b 81       	ldd	r21, Y+3	; 0x03
    572a:	c7 01       	movw	r24, r14
    572c:	b6 01       	movw	r22, r12
    572e:	0e 94 df 34 	call	0x69be	; 0x69be <__cmpsf2>
    5732:	87 fd       	sbrc	r24, 7
    5734:	b0 92 2a 05 	sts	0x052A, r11
    5738:	80 91 2a 05 	lds	r24, 0x052A
    573c:	88 23       	and	r24, r24
    573e:	61 f1       	breq	.+88     	; 0x5798 <limits_soft_check+0xb0>
    5740:	80 91 28 05 	lds	r24, 0x0528
    5744:	88 30       	cpi	r24, 0x08	; 8
    5746:	a9 f0       	breq	.+42     	; 0x5772 <limits_soft_check+0x8a>
    5748:	0e 94 d2 08 	call	0x11a4	; 0x11a4 <mc_reset>
    574c:	9f b7       	in	r25, 0x3f	; 63
    574e:	f8 94       	cli
    5750:	80 91 47 05 	lds	r24, 0x0547
    5754:	85 60       	ori	r24, 0x05	; 5
    5756:	80 93 47 05 	sts	0x0547, r24
    575a:	9f bf       	out	0x3f, r25	; 63
    575c:	df 91       	pop	r29
    575e:	cf 91       	pop	r28
    5760:	1f 91       	pop	r17
    5762:	0f 91       	pop	r16
    5764:	ff 90       	pop	r15
    5766:	ef 90       	pop	r14
    5768:	df 90       	pop	r13
    576a:	cf 90       	pop	r12
    576c:	bf 90       	pop	r11
    576e:	0c 94 d4 14 	jmp	0x29a8	; 0x29a8 <protocol_execute_realtime>
    5772:	9f b7       	in	r25, 0x3f	; 63
    5774:	f8 94       	cli
    5776:	80 91 45 05 	lds	r24, 0x0545
    577a:	88 60       	ori	r24, 0x08	; 8
    577c:	80 93 45 05 	sts	0x0545, r24
    5780:	9f bf       	out	0x3f, r25	; 63
    5782:	0e 94 d4 14 	call	0x29a8	; 0x29a8 <protocol_execute_realtime>
    5786:	80 91 27 05 	lds	r24, 0x0527
    578a:	81 11       	cpse	r24, r1
    578c:	0b c0       	rjmp	.+22     	; 0x57a4 <limits_soft_check+0xbc>
    578e:	80 91 28 05 	lds	r24, 0x0528
    5792:	81 11       	cpse	r24, r1
    5794:	f6 cf       	rjmp	.-20     	; 0x5782 <limits_soft_check+0x9a>
    5796:	d8 cf       	rjmp	.-80     	; 0x5748 <limits_soft_check+0x60>
    5798:	24 96       	adiw	r28, 0x04	; 4
    579a:	f6 e0       	ldi	r31, 0x06	; 6
    579c:	c0 3b       	cpi	r28, 0xB0	; 176
    579e:	df 07       	cpc	r29, r31
    57a0:	09 f0       	breq	.+2      	; 0x57a4 <limits_soft_check+0xbc>
    57a2:	b0 cf       	rjmp	.-160    	; 0x5704 <limits_soft_check+0x1c>
    57a4:	df 91       	pop	r29
    57a6:	cf 91       	pop	r28
    57a8:	1f 91       	pop	r17
    57aa:	0f 91       	pop	r16
    57ac:	ff 90       	pop	r15
    57ae:	ef 90       	pop	r14
    57b0:	df 90       	pop	r13
    57b2:	cf 90       	pop	r12
    57b4:	bf 90       	pop	r11
    57b6:	08 95       	ret

000057b8 <printString>:
    57b8:	cf 93       	push	r28
    57ba:	df 93       	push	r29
    57bc:	ec 01       	movw	r28, r24
    57be:	89 91       	ld	r24, Y+
    57c0:	88 23       	and	r24, r24
    57c2:	19 f0       	breq	.+6      	; 0x57ca <printString+0x12>
    57c4:	0e 94 17 14 	call	0x282e	; 0x282e <serial_write>
    57c8:	fa cf       	rjmp	.-12     	; 0x57be <printString+0x6>
    57ca:	df 91       	pop	r29
    57cc:	cf 91       	pop	r28
    57ce:	08 95       	ret

000057d0 <printPgmString>:
    57d0:	cf 93       	push	r28
    57d2:	df 93       	push	r29
    57d4:	fc 01       	movw	r30, r24
    57d6:	84 91       	lpm	r24, Z
    57d8:	ef 01       	movw	r28, r30
    57da:	21 96       	adiw	r28, 0x01	; 1
    57dc:	88 23       	and	r24, r24
    57de:	21 f0       	breq	.+8      	; 0x57e8 <printPgmString+0x18>
    57e0:	0e 94 17 14 	call	0x282e	; 0x282e <serial_write>
    57e4:	fe 01       	movw	r30, r28
    57e6:	f7 cf       	rjmp	.-18     	; 0x57d6 <printPgmString+0x6>
    57e8:	df 91       	pop	r29
    57ea:	cf 91       	pop	r28
    57ec:	08 95       	ret

000057ee <print_unsigned_int8>:
    57ee:	ef 92       	push	r14
    57f0:	ff 92       	push	r15
    57f2:	0f 93       	push	r16
    57f4:	1f 93       	push	r17
    57f6:	cf 93       	push	r28
    57f8:	df 93       	push	r29
    57fa:	1f 92       	push	r1
    57fc:	cd b7       	in	r28, 0x3d	; 61
    57fe:	de b7       	in	r29, 0x3e	; 62
    5800:	26 2f       	mov	r18, r22
    5802:	ed b6       	in	r14, 0x3d	; 61
    5804:	fe b6       	in	r15, 0x3e	; 62
    5806:	6d b7       	in	r22, 0x3d	; 61
    5808:	7e b7       	in	r23, 0x3e	; 62
    580a:	64 1b       	sub	r22, r20
    580c:	71 09       	sbc	r23, r1
    580e:	0f b6       	in	r0, 0x3f	; 63
    5810:	f8 94       	cli
    5812:	7e bf       	out	0x3e, r23	; 62
    5814:	0f be       	out	0x3f, r0	; 63
    5816:	6d bf       	out	0x3d, r22	; 61
    5818:	0d b7       	in	r16, 0x3d	; 61
    581a:	1e b7       	in	r17, 0x3e	; 62
    581c:	0f 5f       	subi	r16, 0xFF	; 255
    581e:	1f 4f       	sbci	r17, 0xFF	; 255
    5820:	30 2f       	mov	r19, r16
    5822:	f8 01       	movw	r30, r16
    5824:	9e 2f       	mov	r25, r30
    5826:	93 1b       	sub	r25, r19
    5828:	94 17       	cp	r25, r20
    582a:	28 f4       	brcc	.+10     	; 0x5836 <print_unsigned_int8+0x48>
    582c:	62 2f       	mov	r22, r18
    582e:	0e 94 0a 38 	call	0x7014	; 0x7014 <__udivmodqi4>
    5832:	91 93       	st	Z+, r25
    5834:	f7 cf       	rjmp	.-18     	; 0x5824 <print_unsigned_int8+0x36>
    5836:	44 23       	and	r20, r20
    5838:	61 f0       	breq	.+24     	; 0x5852 <print_unsigned_int8+0x64>
    583a:	f8 01       	movw	r30, r16
    583c:	e4 0f       	add	r30, r20
    583e:	f1 1d       	adc	r31, r1
    5840:	31 97       	sbiw	r30, 0x01	; 1
    5842:	80 81       	ld	r24, Z
    5844:	80 5d       	subi	r24, 0xD0	; 208
    5846:	49 83       	std	Y+1, r20	; 0x01
    5848:	0e 94 17 14 	call	0x282e	; 0x282e <serial_write>
    584c:	49 81       	ldd	r20, Y+1	; 0x01
    584e:	41 50       	subi	r20, 0x01	; 1
    5850:	f2 cf       	rjmp	.-28     	; 0x5836 <print_unsigned_int8+0x48>
    5852:	0f b6       	in	r0, 0x3f	; 63
    5854:	f8 94       	cli
    5856:	fe be       	out	0x3e, r15	; 62
    5858:	0f be       	out	0x3f, r0	; 63
    585a:	ed be       	out	0x3d, r14	; 61
    585c:	0f 90       	pop	r0
    585e:	df 91       	pop	r29
    5860:	cf 91       	pop	r28
    5862:	1f 91       	pop	r17
    5864:	0f 91       	pop	r16
    5866:	ff 90       	pop	r15
    5868:	ef 90       	pop	r14
    586a:	08 95       	ret

0000586c <print_uint8_base2>:
    586c:	48 e0       	ldi	r20, 0x08	; 8
    586e:	62 e0       	ldi	r22, 0x02	; 2
    5870:	0c 94 f7 2b 	jmp	0x57ee	; 0x57ee <print_unsigned_int8>

00005874 <print_uint8_base10>:
    5874:	8a 30       	cpi	r24, 0x0A	; 10
    5876:	20 f0       	brcs	.+8      	; 0x5880 <print_uint8_base10+0xc>
    5878:	84 36       	cpi	r24, 0x64	; 100
    587a:	20 f4       	brcc	.+8      	; 0x5884 <print_uint8_base10+0x10>
    587c:	42 e0       	ldi	r20, 0x02	; 2
    587e:	03 c0       	rjmp	.+6      	; 0x5886 <print_uint8_base10+0x12>
    5880:	41 e0       	ldi	r20, 0x01	; 1
    5882:	01 c0       	rjmp	.+2      	; 0x5886 <print_uint8_base10+0x12>
    5884:	43 e0       	ldi	r20, 0x03	; 3
    5886:	6a e0       	ldi	r22, 0x0A	; 10
    5888:	0c 94 f7 2b 	jmp	0x57ee	; 0x57ee <print_unsigned_int8>

0000588c <printFloat>:
    588c:	8f 92       	push	r8
    588e:	9f 92       	push	r9
    5890:	af 92       	push	r10
    5892:	bf 92       	push	r11
    5894:	cf 92       	push	r12
    5896:	df 92       	push	r13
    5898:	ef 92       	push	r14
    589a:	ff 92       	push	r15
    589c:	0f 93       	push	r16
    589e:	1f 93       	push	r17
    58a0:	cf 93       	push	r28
    58a2:	df 93       	push	r29
    58a4:	cd b7       	in	r28, 0x3d	; 61
    58a6:	de b7       	in	r29, 0x3e	; 62
    58a8:	2a 97       	sbiw	r28, 0x0a	; 10
    58aa:	0f b6       	in	r0, 0x3f	; 63
    58ac:	f8 94       	cli
    58ae:	de bf       	out	0x3e, r29	; 62
    58b0:	0f be       	out	0x3f, r0	; 63
    58b2:	cd bf       	out	0x3d, r28	; 61
    58b4:	6b 01       	movw	r12, r22
    58b6:	7c 01       	movw	r14, r24
    58b8:	14 2f       	mov	r17, r20
    58ba:	20 e0       	ldi	r18, 0x00	; 0
    58bc:	30 e0       	ldi	r19, 0x00	; 0
    58be:	a9 01       	movw	r20, r18
    58c0:	0e 94 df 34 	call	0x69be	; 0x69be <__cmpsf2>
    58c4:	87 ff       	sbrs	r24, 7
    58c6:	07 c0       	rjmp	.+14     	; 0x58d6 <printFloat+0x4a>
    58c8:	8d e2       	ldi	r24, 0x2D	; 45
    58ca:	0e 94 17 14 	call	0x282e	; 0x282e <serial_write>
    58ce:	f7 fa       	bst	r15, 7
    58d0:	f0 94       	com	r15
    58d2:	f7 f8       	bld	r15, 7
    58d4:	f0 94       	com	r15
    58d6:	01 2f       	mov	r16, r17
    58d8:	02 30       	cpi	r16, 0x02	; 2
    58da:	60 f0       	brcs	.+24     	; 0x58f4 <printFloat+0x68>
    58dc:	20 e0       	ldi	r18, 0x00	; 0
    58de:	30 e0       	ldi	r19, 0x00	; 0
    58e0:	48 ec       	ldi	r20, 0xC8	; 200
    58e2:	52 e4       	ldi	r21, 0x42	; 66
    58e4:	c7 01       	movw	r24, r14
    58e6:	b6 01       	movw	r22, r12
    58e8:	0e 94 1d 37 	call	0x6e3a	; 0x6e3a <__mulsf3>
    58ec:	6b 01       	movw	r12, r22
    58ee:	7c 01       	movw	r14, r24
    58f0:	02 50       	subi	r16, 0x02	; 2
    58f2:	f2 cf       	rjmp	.-28     	; 0x58d8 <printFloat+0x4c>
    58f4:	10 ff       	sbrs	r17, 0
    58f6:	0a c0       	rjmp	.+20     	; 0x590c <printFloat+0x80>
    58f8:	20 e0       	ldi	r18, 0x00	; 0
    58fa:	30 e0       	ldi	r19, 0x00	; 0
    58fc:	40 e2       	ldi	r20, 0x20	; 32
    58fe:	51 e4       	ldi	r21, 0x41	; 65
    5900:	c7 01       	movw	r24, r14
    5902:	b6 01       	movw	r22, r12
    5904:	0e 94 1d 37 	call	0x6e3a	; 0x6e3a <__mulsf3>
    5908:	6b 01       	movw	r12, r22
    590a:	7c 01       	movw	r14, r24
    590c:	20 e0       	ldi	r18, 0x00	; 0
    590e:	30 e0       	ldi	r19, 0x00	; 0
    5910:	40 e0       	ldi	r20, 0x00	; 0
    5912:	5f e3       	ldi	r21, 0x3F	; 63
    5914:	c7 01       	movw	r24, r14
    5916:	b6 01       	movw	r22, r12
    5918:	0e 94 06 34 	call	0x680c	; 0x680c <__addsf3>
    591c:	0e 94 4e 35 	call	0x6a9c	; 0x6a9c <__fixsfsi>
    5920:	e1 e0       	ldi	r30, 0x01	; 1
    5922:	f0 e0       	ldi	r31, 0x00	; 0
    5924:	ec 0f       	add	r30, r28
    5926:	fd 1f       	adc	r31, r29
    5928:	e1 0f       	add	r30, r17
    592a:	f1 1d       	adc	r31, r1
    592c:	2e e2       	ldi	r18, 0x2E	; 46
    592e:	20 83       	st	Z, r18
    5930:	d1 2c       	mov	r13, r1
    5932:	5a e0       	ldi	r21, 0x0A	; 10
    5934:	85 2e       	mov	r8, r21
    5936:	91 2c       	mov	r9, r1
    5938:	a1 2c       	mov	r10, r1
    593a:	b1 2c       	mov	r11, r1
    593c:	61 15       	cp	r22, r1
    593e:	71 05       	cpc	r23, r1
    5940:	81 05       	cpc	r24, r1
    5942:	91 05       	cpc	r25, r1
    5944:	a9 f0       	breq	.+42     	; 0x5970 <printFloat+0xe4>
    5946:	d1 12       	cpse	r13, r17
    5948:	01 c0       	rjmp	.+2      	; 0x594c <printFloat+0xc0>
    594a:	d3 94       	inc	r13
    594c:	ee 24       	eor	r14, r14
    594e:	e3 94       	inc	r14
    5950:	f1 2c       	mov	r15, r1
    5952:	ec 0e       	add	r14, r28
    5954:	fd 1e       	adc	r15, r29
    5956:	ed 0c       	add	r14, r13
    5958:	f1 1c       	adc	r15, r1
    595a:	a5 01       	movw	r20, r10
    595c:	94 01       	movw	r18, r8
    595e:	0e 94 16 38 	call	0x702c	; 0x702c <__udivmodsi4>
    5962:	60 5d       	subi	r22, 0xD0	; 208
    5964:	f7 01       	movw	r30, r14
    5966:	60 83       	st	Z, r22
    5968:	b9 01       	movw	r22, r18
    596a:	ca 01       	movw	r24, r20
    596c:	d3 94       	inc	r13
    596e:	e6 cf       	rjmp	.-52     	; 0x593c <printFloat+0xb0>
    5970:	80 e3       	ldi	r24, 0x30	; 48
    5972:	d1 16       	cp	r13, r17
    5974:	48 f4       	brcc	.+18     	; 0x5988 <printFloat+0xfc>
    5976:	e1 e0       	ldi	r30, 0x01	; 1
    5978:	f0 e0       	ldi	r31, 0x00	; 0
    597a:	ec 0f       	add	r30, r28
    597c:	fd 1f       	adc	r31, r29
    597e:	ed 0d       	add	r30, r13
    5980:	f1 1d       	adc	r31, r1
    5982:	80 83       	st	Z, r24
    5984:	d3 94       	inc	r13
    5986:	f5 cf       	rjmp	.-22     	; 0x5972 <printFloat+0xe6>
    5988:	8d 2d       	mov	r24, r13
    598a:	d1 12       	cpse	r13, r17
    598c:	0b c0       	rjmp	.+22     	; 0x59a4 <printFloat+0x118>
    598e:	d3 94       	inc	r13
    5990:	d3 94       	inc	r13
    5992:	8f 5f       	subi	r24, 0xFF	; 255
    5994:	e1 e0       	ldi	r30, 0x01	; 1
    5996:	f0 e0       	ldi	r31, 0x00	; 0
    5998:	ec 0f       	add	r30, r28
    599a:	fd 1f       	adc	r31, r29
    599c:	e8 0f       	add	r30, r24
    599e:	f1 1d       	adc	r31, r1
    59a0:	80 e3       	ldi	r24, 0x30	; 48
    59a2:	80 83       	st	Z, r24
    59a4:	dd 20       	and	r13, r13
    59a6:	41 f0       	breq	.+16     	; 0x59b8 <printFloat+0x12c>
    59a8:	fe 01       	movw	r30, r28
    59aa:	ed 0d       	add	r30, r13
    59ac:	f1 1d       	adc	r31, r1
    59ae:	80 81       	ld	r24, Z
    59b0:	0e 94 17 14 	call	0x282e	; 0x282e <serial_write>
    59b4:	da 94       	dec	r13
    59b6:	f6 cf       	rjmp	.-20     	; 0x59a4 <printFloat+0x118>
    59b8:	2a 96       	adiw	r28, 0x0a	; 10
    59ba:	0f b6       	in	r0, 0x3f	; 63
    59bc:	f8 94       	cli
    59be:	de bf       	out	0x3e, r29	; 62
    59c0:	0f be       	out	0x3f, r0	; 63
    59c2:	cd bf       	out	0x3d, r28	; 61
    59c4:	df 91       	pop	r29
    59c6:	cf 91       	pop	r28
    59c8:	1f 91       	pop	r17
    59ca:	0f 91       	pop	r16
    59cc:	ff 90       	pop	r15
    59ce:	ef 90       	pop	r14
    59d0:	df 90       	pop	r13
    59d2:	cf 90       	pop	r12
    59d4:	bf 90       	pop	r11
    59d6:	af 90       	pop	r10
    59d8:	9f 90       	pop	r9
    59da:	8f 90       	pop	r8
    59dc:	08 95       	ret

000059de <printFloat_CoordValue>:
    59de:	20 91 bd 06 	lds	r18, 0x06BD
    59e2:	20 ff       	sbrs	r18, 0
    59e4:	08 c0       	rjmp	.+16     	; 0x59f6 <printFloat_CoordValue+0x18>
    59e6:	2b e8       	ldi	r18, 0x8B	; 139
    59e8:	32 e4       	ldi	r19, 0x42	; 66
    59ea:	41 e2       	ldi	r20, 0x21	; 33
    59ec:	5d e3       	ldi	r21, 0x3D	; 61
    59ee:	0e 94 1d 37 	call	0x6e3a	; 0x6e3a <__mulsf3>
    59f2:	44 e0       	ldi	r20, 0x04	; 4
    59f4:	01 c0       	rjmp	.+2      	; 0x59f8 <printFloat_CoordValue+0x1a>
    59f6:	43 e0       	ldi	r20, 0x03	; 3
    59f8:	0c 94 46 2c 	jmp	0x588c	; 0x588c <printFloat>

000059fc <printFloat_RateValue>:
    59fc:	20 91 bd 06 	lds	r18, 0x06BD
    5a00:	20 ff       	sbrs	r18, 0
    5a02:	08 c0       	rjmp	.+16     	; 0x5a14 <printFloat_RateValue+0x18>
    5a04:	2b e8       	ldi	r18, 0x8B	; 139
    5a06:	32 e4       	ldi	r19, 0x42	; 66
    5a08:	41 e2       	ldi	r20, 0x21	; 33
    5a0a:	5d e3       	ldi	r21, 0x3D	; 61
    5a0c:	0e 94 1d 37 	call	0x6e3a	; 0x6e3a <__mulsf3>
    5a10:	41 e0       	ldi	r20, 0x01	; 1
    5a12:	01 c0       	rjmp	.+2      	; 0x5a16 <printFloat_RateValue+0x1a>
    5a14:	40 e0       	ldi	r20, 0x00	; 0
    5a16:	0c 94 46 2c 	jmp	0x588c	; 0x588c <printFloat>

00005a1a <printFloat_SettingValue>:
    5a1a:	43 e0       	ldi	r20, 0x03	; 3
    5a1c:	0c 94 46 2c 	jmp	0x588c	; 0x588c <printFloat>

00005a20 <probe_init>:
    5a20:	3d 98       	cbi	0x07, 5	; 7
    5a22:	45 9a       	sbi	0x08, 5	; 8
    5a24:	08 95       	ret

00005a26 <probe_configure_invert_mask>:
    5a26:	10 92 cd 06 	sts	0x06CD, r1
    5a2a:	90 91 bd 06 	lds	r25, 0x06BD
    5a2e:	97 fd       	sbrc	r25, 7
    5a30:	03 c0       	rjmp	.+6      	; 0x5a38 <probe_configure_invert_mask+0x12>
    5a32:	90 e2       	ldi	r25, 0x20	; 32
    5a34:	90 93 cd 06 	sts	0x06CD, r25
    5a38:	88 23       	and	r24, r24
    5a3a:	31 f0       	breq	.+12     	; 0x5a48 <probe_configure_invert_mask+0x22>
    5a3c:	80 91 cd 06 	lds	r24, 0x06CD
    5a40:	90 e2       	ldi	r25, 0x20	; 32
    5a42:	89 27       	eor	r24, r25
    5a44:	80 93 cd 06 	sts	0x06CD, r24
    5a48:	08 95       	ret

00005a4a <probe_get_state>:
    5a4a:	86 b1       	in	r24, 0x06	; 6
    5a4c:	80 72       	andi	r24, 0x20	; 32
    5a4e:	90 91 cd 06 	lds	r25, 0x06CD
    5a52:	89 27       	eor	r24, r25
    5a54:	08 95       	ret

00005a56 <probe_state_monitor>:
    5a56:	80 91 46 05 	lds	r24, 0x0546
    5a5a:	81 30       	cpi	r24, 0x01	; 1
    5a5c:	a1 f4       	brne	.+40     	; 0x5a86 <probe_state_monitor+0x30>
    5a5e:	0e 94 25 2d 	call	0x5a4a	; 0x5a4a <probe_get_state>
    5a62:	88 23       	and	r24, r24
    5a64:	81 f0       	breq	.+32     	; 0x5a86 <probe_state_monitor+0x30>
    5a66:	10 92 46 05 	sts	0x0546, r1
    5a6a:	8c e0       	ldi	r24, 0x0C	; 12
    5a6c:	eb e2       	ldi	r30, 0x2B	; 43
    5a6e:	f5 e0       	ldi	r31, 0x05	; 5
    5a70:	a7 e3       	ldi	r26, 0x37	; 55
    5a72:	b5 e0       	ldi	r27, 0x05	; 5
    5a74:	01 90       	ld	r0, Z+
    5a76:	0d 92       	st	X+, r0
    5a78:	8a 95       	dec	r24
    5a7a:	e1 f7       	brne	.-8      	; 0x5a74 <probe_state_monitor+0x1e>
    5a7c:	80 91 45 05 	lds	r24, 0x0545
    5a80:	80 64       	ori	r24, 0x40	; 64
    5a82:	80 93 45 05 	sts	0x0545, r24
    5a86:	08 95       	ret

00005a88 <report_status_message>:
    5a88:	cf 93       	push	r28
    5a8a:	c8 2f       	mov	r28, r24
    5a8c:	81 11       	cpse	r24, r1
    5a8e:	03 c0       	rjmp	.+6      	; 0x5a96 <report_status_message+0xe>
    5a90:	86 e4       	ldi	r24, 0x46	; 70
    5a92:	98 e0       	ldi	r25, 0x08	; 8
    5a94:	44 c0       	rjmp	.+136    	; 0x5b1e <report_status_message+0x96>
    5a96:	8e e3       	ldi	r24, 0x3E	; 62
    5a98:	98 e0       	ldi	r25, 0x08	; 8
    5a9a:	0e 94 e8 2b 	call	0x57d0	; 0x57d0 <printPgmString>
    5a9e:	4c 2f       	mov	r20, r28
    5aa0:	50 e0       	ldi	r21, 0x00	; 0
    5aa2:	fa 01       	movw	r30, r20
    5aa4:	31 97       	sbiw	r30, 0x01	; 1
    5aa6:	e6 31       	cpi	r30, 0x16	; 22
    5aa8:	f1 05       	cpc	r31, r1
    5aaa:	80 f5       	brcc	.+96     	; 0x5b0c <report_status_message+0x84>
    5aac:	eb 58       	subi	r30, 0x8B	; 139
    5aae:	ff 4f       	sbci	r31, 0xFF	; 255
    5ab0:	0c 94 38 38 	jmp	0x7070	; 0x7070 <__tablejump2__>
    5ab4:	86 e2       	ldi	r24, 0x26	; 38
    5ab6:	98 e0       	ldi	r25, 0x08	; 8
    5ab8:	02 c0       	rjmp	.+4      	; 0x5abe <report_status_message+0x36>
    5aba:	84 e1       	ldi	r24, 0x14	; 20
    5abc:	98 e0       	ldi	r25, 0x08	; 8
    5abe:	0e 94 e8 2b 	call	0x57d0	; 0x57d0 <printPgmString>
    5ac2:	2b c0       	rjmp	.+86     	; 0x5b1a <report_status_message+0x92>
    5ac4:	82 e0       	ldi	r24, 0x02	; 2
    5ac6:	98 e0       	ldi	r25, 0x08	; 8
    5ac8:	fa cf       	rjmp	.-12     	; 0x5abe <report_status_message+0x36>
    5aca:	88 ef       	ldi	r24, 0xF8	; 248
    5acc:	97 e0       	ldi	r25, 0x07	; 7
    5ace:	f7 cf       	rjmp	.-18     	; 0x5abe <report_status_message+0x36>
    5ad0:	87 ee       	ldi	r24, 0xE7	; 231
    5ad2:	97 e0       	ldi	r25, 0x07	; 7
    5ad4:	f4 cf       	rjmp	.-24     	; 0x5abe <report_status_message+0x36>
    5ad6:	88 ed       	ldi	r24, 0xD8	; 216
    5ad8:	97 e0       	ldi	r25, 0x07	; 7
    5ada:	f1 cf       	rjmp	.-30     	; 0x5abe <report_status_message+0x36>
    5adc:	87 eb       	ldi	r24, 0xB7	; 183
    5ade:	97 e0       	ldi	r25, 0x07	; 7
    5ae0:	ee cf       	rjmp	.-36     	; 0x5abe <report_status_message+0x36>
    5ae2:	8e ea       	ldi	r24, 0xAE	; 174
    5ae4:	97 e0       	ldi	r25, 0x07	; 7
    5ae6:	eb cf       	rjmp	.-42     	; 0x5abe <report_status_message+0x36>
    5ae8:	83 ea       	ldi	r24, 0xA3	; 163
    5aea:	97 e0       	ldi	r25, 0x07	; 7
    5aec:	e8 cf       	rjmp	.-48     	; 0x5abe <report_status_message+0x36>
    5aee:	80 e9       	ldi	r24, 0x90	; 144
    5af0:	97 e0       	ldi	r25, 0x07	; 7
    5af2:	e5 cf       	rjmp	.-54     	; 0x5abe <report_status_message+0x36>
    5af4:	82 e8       	ldi	r24, 0x82	; 130
    5af6:	97 e0       	ldi	r25, 0x07	; 7
    5af8:	e2 cf       	rjmp	.-60     	; 0x5abe <report_status_message+0x36>
    5afa:	8c e6       	ldi	r24, 0x6C	; 108
    5afc:	97 e0       	ldi	r25, 0x07	; 7
    5afe:	df cf       	rjmp	.-66     	; 0x5abe <report_status_message+0x36>
    5b00:	88 e5       	ldi	r24, 0x58	; 88
    5b02:	97 e0       	ldi	r25, 0x07	; 7
    5b04:	dc cf       	rjmp	.-72     	; 0x5abe <report_status_message+0x36>
    5b06:	84 e4       	ldi	r24, 0x44	; 68
    5b08:	97 e0       	ldi	r25, 0x07	; 7
    5b0a:	d9 cf       	rjmp	.-78     	; 0x5abe <report_status_message+0x36>
    5b0c:	82 e3       	ldi	r24, 0x32	; 50
    5b0e:	97 e0       	ldi	r25, 0x07	; 7
    5b10:	0e 94 e8 2b 	call	0x57d0	; 0x57d0 <printPgmString>
    5b14:	8c 2f       	mov	r24, r28
    5b16:	0e 94 3a 2c 	call	0x5874	; 0x5874 <print_uint8_base10>
    5b1a:	8f e2       	ldi	r24, 0x2F	; 47
    5b1c:	97 e0       	ldi	r25, 0x07	; 7
    5b1e:	cf 91       	pop	r28
    5b20:	0c 94 e8 2b 	jmp	0x57d0	; 0x57d0 <printPgmString>

00005b24 <report_alarm_message>:
    5b24:	cf 93       	push	r28
    5b26:	c8 2f       	mov	r28, r24
    5b28:	87 e2       	ldi	r24, 0x27	; 39
    5b2a:	97 e0       	ldi	r25, 0x07	; 7
    5b2c:	0e 94 e8 2b 	call	0x57d0	; 0x57d0 <printPgmString>
    5b30:	c3 30       	cpi	r28, 0x03	; 3
    5b32:	91 f0       	breq	.+36     	; 0x5b58 <report_alarm_message+0x34>
    5b34:	3c f4       	brge	.+14     	; 0x5b44 <report_alarm_message+0x20>
    5b36:	c1 30       	cpi	r28, 0x01	; 1
    5b38:	61 f0       	breq	.+24     	; 0x5b52 <report_alarm_message+0x2e>
    5b3a:	c2 30       	cpi	r28, 0x02	; 2
    5b3c:	a1 f4       	brne	.+40     	; 0x5b66 <report_alarm_message+0x42>
    5b3e:	81 e1       	ldi	r24, 0x11	; 17
    5b40:	97 e0       	ldi	r25, 0x07	; 7
    5b42:	0f c0       	rjmp	.+30     	; 0x5b62 <report_alarm_message+0x3e>
    5b44:	c4 30       	cpi	r28, 0x04	; 4
    5b46:	59 f0       	breq	.+22     	; 0x5b5e <report_alarm_message+0x3a>
    5b48:	c5 30       	cpi	r28, 0x05	; 5
    5b4a:	69 f4       	brne	.+26     	; 0x5b66 <report_alarm_message+0x42>
    5b4c:	87 ee       	ldi	r24, 0xE7	; 231
    5b4e:	96 e0       	ldi	r25, 0x06	; 6
    5b50:	08 c0       	rjmp	.+16     	; 0x5b62 <report_alarm_message+0x3e>
    5b52:	8c e1       	ldi	r24, 0x1C	; 28
    5b54:	97 e0       	ldi	r25, 0x07	; 7
    5b56:	05 c0       	rjmp	.+10     	; 0x5b62 <report_alarm_message+0x3e>
    5b58:	8e ef       	ldi	r24, 0xFE	; 254
    5b5a:	96 e0       	ldi	r25, 0x06	; 6
    5b5c:	02 c0       	rjmp	.+4      	; 0x5b62 <report_alarm_message+0x3e>
    5b5e:	83 ef       	ldi	r24, 0xF3	; 243
    5b60:	96 e0       	ldi	r25, 0x06	; 6
    5b62:	0e 94 e8 2b 	call	0x57d0	; 0x57d0 <printPgmString>
    5b66:	84 ee       	ldi	r24, 0xE4	; 228
    5b68:	96 e0       	ldi	r25, 0x06	; 6
    5b6a:	0e 94 e8 2b 	call	0x57d0	; 0x57d0 <printPgmString>
    5b6e:	84 ef       	ldi	r24, 0xF4	; 244
    5b70:	91 e0       	ldi	r25, 0x01	; 1
    5b72:	cf 91       	pop	r28
    5b74:	0c 94 da 28 	jmp	0x51b4	; 0x51b4 <delay_ms>

00005b78 <report_feedback_message>:
    5b78:	cf 93       	push	r28
    5b7a:	c8 2f       	mov	r28, r24
    5b7c:	82 ee       	ldi	r24, 0xE2	; 226
    5b7e:	96 e0       	ldi	r25, 0x06	; 6
    5b80:	0e 94 e8 2b 	call	0x57d0	; 0x57d0 <printPgmString>
    5b84:	8c 2f       	mov	r24, r28
    5b86:	90 e0       	ldi	r25, 0x00	; 0
    5b88:	fc 01       	movw	r30, r24
    5b8a:	31 97       	sbiw	r30, 0x01	; 1
    5b8c:	e8 30       	cpi	r30, 0x08	; 8
    5b8e:	f1 05       	cpc	r31, r1
    5b90:	e8 f4       	brcc	.+58     	; 0x5bcc <report_feedback_message+0x54>
    5b92:	e5 57       	subi	r30, 0x75	; 117
    5b94:	ff 4f       	sbci	r31, 0xFF	; 255
    5b96:	0c 94 38 38 	jmp	0x7070	; 0x7070 <__tablejump2__>
    5b9a:	80 ed       	ldi	r24, 0xD0	; 208
    5b9c:	96 e0       	ldi	r25, 0x06	; 6
    5b9e:	14 c0       	rjmp	.+40     	; 0x5bc8 <report_feedback_message+0x50>
    5ba0:	8c eb       	ldi	r24, 0xBC	; 188
    5ba2:	96 e0       	ldi	r25, 0x06	; 6
    5ba4:	11 c0       	rjmp	.+34     	; 0x5bc8 <report_feedback_message+0x50>
    5ba6:	8a ea       	ldi	r24, 0xAA	; 170
    5ba8:	96 e0       	ldi	r25, 0x06	; 6
    5baa:	0e c0       	rjmp	.+28     	; 0x5bc8 <report_feedback_message+0x50>
    5bac:	82 ea       	ldi	r24, 0xA2	; 162
    5bae:	96 e0       	ldi	r25, 0x06	; 6
    5bb0:	0b c0       	rjmp	.+22     	; 0x5bc8 <report_feedback_message+0x50>
    5bb2:	89 e9       	ldi	r24, 0x99	; 153
    5bb4:	96 e0       	ldi	r25, 0x06	; 6
    5bb6:	08 c0       	rjmp	.+16     	; 0x5bc8 <report_feedback_message+0x50>
    5bb8:	8e e8       	ldi	r24, 0x8E	; 142
    5bba:	96 e0       	ldi	r25, 0x06	; 6
    5bbc:	05 c0       	rjmp	.+10     	; 0x5bc8 <report_feedback_message+0x50>
    5bbe:	86 e8       	ldi	r24, 0x86	; 134
    5bc0:	96 e0       	ldi	r25, 0x06	; 6
    5bc2:	02 c0       	rjmp	.+4      	; 0x5bc8 <report_feedback_message+0x50>
    5bc4:	83 e7       	ldi	r24, 0x73	; 115
    5bc6:	96 e0       	ldi	r25, 0x06	; 6
    5bc8:	0e 94 e8 2b 	call	0x57d0	; 0x57d0 <printPgmString>
    5bcc:	8f e6       	ldi	r24, 0x6F	; 111
    5bce:	96 e0       	ldi	r25, 0x06	; 6
    5bd0:	cf 91       	pop	r28
    5bd2:	0c 94 e8 2b 	jmp	0x57d0	; 0x57d0 <printPgmString>

00005bd6 <report_init_message>:
    5bd6:	82 e5       	ldi	r24, 0x52	; 82
    5bd8:	96 e0       	ldi	r25, 0x06	; 6
    5bda:	0c 94 e8 2b 	jmp	0x57d0	; 0x57d0 <printPgmString>

00005bde <report_grbl_help>:
    5bde:	8e e0       	ldi	r24, 0x0E	; 14
    5be0:	95 e0       	ldi	r25, 0x05	; 5
    5be2:	0c 94 e8 2b 	jmp	0x57d0	; 0x57d0 <printPgmString>

00005be6 <report_grbl_settings>:
    5be6:	ff 92       	push	r15
    5be8:	0f 93       	push	r16
    5bea:	1f 93       	push	r17
    5bec:	cf 93       	push	r28
    5bee:	df 93       	push	r29
    5bf0:	8a e0       	ldi	r24, 0x0A	; 10
    5bf2:	95 e0       	ldi	r25, 0x05	; 5
    5bf4:	0e 94 e8 2b 	call	0x57d0	; 0x57d0 <printPgmString>
    5bf8:	80 91 b0 06 	lds	r24, 0x06B0
    5bfc:	0e 94 3a 2c 	call	0x5874	; 0x5874 <print_uint8_base10>
    5c00:	81 ef       	ldi	r24, 0xF1	; 241
    5c02:	94 e0       	ldi	r25, 0x04	; 4
    5c04:	0e 94 e8 2b 	call	0x57d0	; 0x57d0 <printPgmString>
    5c08:	80 91 b3 06 	lds	r24, 0x06B3
    5c0c:	0e 94 3a 2c 	call	0x5874	; 0x5874 <print_uint8_base10>
    5c10:	83 ed       	ldi	r24, 0xD3	; 211
    5c12:	94 e0       	ldi	r25, 0x04	; 4
    5c14:	0e 94 e8 2b 	call	0x57d0	; 0x57d0 <printPgmString>
    5c18:	80 91 b1 06 	lds	r24, 0x06B1
    5c1c:	0e 94 3a 2c 	call	0x5874	; 0x5874 <print_uint8_base10>
    5c20:	8a eb       	ldi	r24, 0xBA	; 186
    5c22:	94 e0       	ldi	r25, 0x04	; 4
    5c24:	0e 94 e8 2b 	call	0x57d0	; 0x57d0 <printPgmString>
    5c28:	80 91 b1 06 	lds	r24, 0x06B1
    5c2c:	0e 94 36 2c 	call	0x586c	; 0x586c <print_uint8_base2>
    5c30:	83 eb       	ldi	r24, 0xB3	; 179
    5c32:	94 e0       	ldi	r25, 0x04	; 4
    5c34:	0e 94 e8 2b 	call	0x57d0	; 0x57d0 <printPgmString>
    5c38:	80 91 b2 06 	lds	r24, 0x06B2
    5c3c:	0e 94 3a 2c 	call	0x5874	; 0x5874 <print_uint8_base10>
    5c40:	8b e9       	ldi	r24, 0x9B	; 155
    5c42:	94 e0       	ldi	r25, 0x04	; 4
    5c44:	0e 94 e8 2b 	call	0x57d0	; 0x57d0 <printPgmString>
    5c48:	80 91 b2 06 	lds	r24, 0x06B2
    5c4c:	0e 94 36 2c 	call	0x586c	; 0x586c <print_uint8_base2>
    5c50:	84 e9       	ldi	r24, 0x94	; 148
    5c52:	94 e0       	ldi	r25, 0x04	; 4
    5c54:	0e 94 e8 2b 	call	0x57d0	; 0x57d0 <printPgmString>
    5c58:	80 91 bd 06 	lds	r24, 0x06BD
    5c5c:	82 fb       	bst	r24, 2
    5c5e:	88 27       	eor	r24, r24
    5c60:	80 f9       	bld	r24, 0
    5c62:	0e 94 3a 2c 	call	0x5874	; 0x5874 <print_uint8_base10>
    5c66:	83 e7       	ldi	r24, 0x73	; 115
    5c68:	94 e0       	ldi	r25, 0x04	; 4
    5c6a:	0e 94 e8 2b 	call	0x57d0	; 0x57d0 <printPgmString>
    5c6e:	80 91 bd 06 	lds	r24, 0x06BD
    5c72:	86 fb       	bst	r24, 6
    5c74:	88 27       	eor	r24, r24
    5c76:	80 f9       	bld	r24, 0
    5c78:	0e 94 3a 2c 	call	0x5874	; 0x5874 <print_uint8_base10>
    5c7c:	83 e5       	ldi	r24, 0x53	; 83
    5c7e:	94 e0       	ldi	r25, 0x04	; 4
    5c80:	0e 94 e8 2b 	call	0x57d0	; 0x57d0 <printPgmString>
    5c84:	80 91 bd 06 	lds	r24, 0x06BD
    5c88:	88 1f       	adc	r24, r24
    5c8a:	88 27       	eor	r24, r24
    5c8c:	88 1f       	adc	r24, r24
    5c8e:	0e 94 3a 2c 	call	0x5874	; 0x5874 <print_uint8_base10>
    5c92:	83 e3       	ldi	r24, 0x33	; 51
    5c94:	94 e0       	ldi	r25, 0x04	; 4
    5c96:	0e 94 e8 2b 	call	0x57d0	; 0x57d0 <printPgmString>
    5c9a:	80 91 b4 06 	lds	r24, 0x06B4
    5c9e:	0e 94 3a 2c 	call	0x5874	; 0x5874 <print_uint8_base10>
    5ca2:	8d e1       	ldi	r24, 0x1D	; 29
    5ca4:	94 e0       	ldi	r25, 0x04	; 4
    5ca6:	0e 94 e8 2b 	call	0x57d0	; 0x57d0 <printPgmString>
    5caa:	80 91 b4 06 	lds	r24, 0x06B4
    5cae:	0e 94 36 2c 	call	0x586c	; 0x586c <print_uint8_base2>
    5cb2:	85 e1       	ldi	r24, 0x15	; 21
    5cb4:	94 e0       	ldi	r25, 0x04	; 4
    5cb6:	0e 94 e8 2b 	call	0x57d0	; 0x57d0 <printPgmString>
    5cba:	60 91 b5 06 	lds	r22, 0x06B5
    5cbe:	70 91 b6 06 	lds	r23, 0x06B6
    5cc2:	80 91 b7 06 	lds	r24, 0x06B7
    5cc6:	90 91 b8 06 	lds	r25, 0x06B8
    5cca:	0e 94 0d 2d 	call	0x5a1a	; 0x5a1a <printFloat_SettingValue>
    5cce:	85 ef       	ldi	r24, 0xF5	; 245
    5cd0:	93 e0       	ldi	r25, 0x03	; 3
    5cd2:	0e 94 e8 2b 	call	0x57d0	; 0x57d0 <printPgmString>
    5cd6:	60 91 b9 06 	lds	r22, 0x06B9
    5cda:	70 91 ba 06 	lds	r23, 0x06BA
    5cde:	80 91 bb 06 	lds	r24, 0x06BB
    5ce2:	90 91 bc 06 	lds	r25, 0x06BC
    5ce6:	0e 94 0d 2d 	call	0x5a1a	; 0x5a1a <printFloat_SettingValue>
    5cea:	8a ed       	ldi	r24, 0xDA	; 218
    5cec:	93 e0       	ldi	r25, 0x03	; 3
    5cee:	0e 94 e8 2b 	call	0x57d0	; 0x57d0 <printPgmString>
    5cf2:	80 91 bd 06 	lds	r24, 0x06BD
    5cf6:	81 70       	andi	r24, 0x01	; 1
    5cf8:	0e 94 3a 2c 	call	0x5874	; 0x5874 <print_uint8_base10>
    5cfc:	8d eb       	ldi	r24, 0xBD	; 189
    5cfe:	93 e0       	ldi	r25, 0x03	; 3
    5d00:	0e 94 e8 2b 	call	0x57d0	; 0x57d0 <printPgmString>
    5d04:	80 91 bd 06 	lds	r24, 0x06BD
    5d08:	85 fb       	bst	r24, 5
    5d0a:	88 27       	eor	r24, r24
    5d0c:	80 f9       	bld	r24, 0
    5d0e:	0e 94 3a 2c 	call	0x5874	; 0x5874 <print_uint8_base10>
    5d12:	82 ea       	ldi	r24, 0xA2	; 162
    5d14:	93 e0       	ldi	r25, 0x03	; 3
    5d16:	0e 94 e8 2b 	call	0x57d0	; 0x57d0 <printPgmString>
    5d1a:	80 91 bd 06 	lds	r24, 0x06BD
    5d1e:	83 fb       	bst	r24, 3
    5d20:	88 27       	eor	r24, r24
    5d22:	80 f9       	bld	r24, 0
    5d24:	0e 94 3a 2c 	call	0x5874	; 0x5874 <print_uint8_base10>
    5d28:	87 e8       	ldi	r24, 0x87	; 135
    5d2a:	93 e0       	ldi	r25, 0x03	; 3
    5d2c:	0e 94 e8 2b 	call	0x57d0	; 0x57d0 <printPgmString>
    5d30:	80 91 bd 06 	lds	r24, 0x06BD
    5d34:	82 95       	swap	r24
    5d36:	81 70       	andi	r24, 0x01	; 1
    5d38:	0e 94 3a 2c 	call	0x5874	; 0x5874 <print_uint8_base10>
    5d3c:	8b e6       	ldi	r24, 0x6B	; 107
    5d3e:	93 e0       	ldi	r25, 0x03	; 3
    5d40:	0e 94 e8 2b 	call	0x57d0	; 0x57d0 <printPgmString>
    5d44:	80 91 be 06 	lds	r24, 0x06BE
    5d48:	0e 94 3a 2c 	call	0x5874	; 0x5874 <print_uint8_base10>
    5d4c:	81 e5       	ldi	r24, 0x51	; 81
    5d4e:	93 e0       	ldi	r25, 0x03	; 3
    5d50:	0e 94 e8 2b 	call	0x57d0	; 0x57d0 <printPgmString>
    5d54:	80 91 be 06 	lds	r24, 0x06BE
    5d58:	0e 94 36 2c 	call	0x586c	; 0x586c <print_uint8_base2>
    5d5c:	89 e4       	ldi	r24, 0x49	; 73
    5d5e:	93 e0       	ldi	r25, 0x03	; 3
    5d60:	0e 94 e8 2b 	call	0x57d0	; 0x57d0 <printPgmString>
    5d64:	60 91 bf 06 	lds	r22, 0x06BF
    5d68:	70 91 c0 06 	lds	r23, 0x06C0
    5d6c:	80 91 c1 06 	lds	r24, 0x06C1
    5d70:	90 91 c2 06 	lds	r25, 0x06C2
    5d74:	0e 94 0d 2d 	call	0x5a1a	; 0x5a1a <printFloat_SettingValue>
    5d78:	8c e2       	ldi	r24, 0x2C	; 44
    5d7a:	93 e0       	ldi	r25, 0x03	; 3
    5d7c:	0e 94 e8 2b 	call	0x57d0	; 0x57d0 <printPgmString>
    5d80:	60 91 c3 06 	lds	r22, 0x06C3
    5d84:	70 91 c4 06 	lds	r23, 0x06C4
    5d88:	80 91 c5 06 	lds	r24, 0x06C5
    5d8c:	90 91 c6 06 	lds	r25, 0x06C6
    5d90:	0e 94 0d 2d 	call	0x5a1a	; 0x5a1a <printFloat_SettingValue>
    5d94:	8f e0       	ldi	r24, 0x0F	; 15
    5d96:	93 e0       	ldi	r25, 0x03	; 3
    5d98:	0e 94 e8 2b 	call	0x57d0	; 0x57d0 <printPgmString>
    5d9c:	80 91 c7 06 	lds	r24, 0x06C7
    5da0:	0e 94 3a 2c 	call	0x5874	; 0x5874 <print_uint8_base10>
    5da4:	80 ef       	ldi	r24, 0xF0	; 240
    5da6:	92 e0       	ldi	r25, 0x02	; 2
    5da8:	0e 94 e8 2b 	call	0x57d0	; 0x57d0 <printPgmString>
    5dac:	60 91 c9 06 	lds	r22, 0x06C9
    5db0:	70 91 ca 06 	lds	r23, 0x06CA
    5db4:	80 91 cb 06 	lds	r24, 0x06CB
    5db8:	90 91 cc 06 	lds	r25, 0x06CC
    5dbc:	0e 94 0d 2d 	call	0x5a1a	; 0x5a1a <printFloat_SettingValue>
    5dc0:	87 ed       	ldi	r24, 0xD7	; 215
    5dc2:	92 e0       	ldi	r25, 0x02	; 2
    5dc4:	0e 94 e8 2b 	call	0x57d0	; 0x57d0 <printPgmString>
    5dc8:	84 e6       	ldi	r24, 0x64	; 100
    5dca:	f8 2e       	mov	r15, r24
    5dcc:	10 e0       	ldi	r17, 0x00	; 0
    5dce:	c0 e8       	ldi	r28, 0x80	; 128
    5dd0:	d6 e0       	ldi	r29, 0x06	; 6
    5dd2:	00 e0       	ldi	r16, 0x00	; 0
    5dd4:	85 ed       	ldi	r24, 0xD5	; 213
    5dd6:	92 e0       	ldi	r25, 0x02	; 2
    5dd8:	0e 94 e8 2b 	call	0x57d0	; 0x57d0 <printPgmString>
    5ddc:	80 2f       	mov	r24, r16
    5dde:	8f 0d       	add	r24, r15
    5de0:	0e 94 3a 2c 	call	0x5874	; 0x5874 <print_uint8_base10>
    5de4:	83 ed       	ldi	r24, 0xD3	; 211
    5de6:	92 e0       	ldi	r25, 0x02	; 2
    5de8:	0e 94 e8 2b 	call	0x57d0	; 0x57d0 <printPgmString>
    5dec:	12 30       	cpi	r17, 0x02	; 2
    5dee:	71 f0       	breq	.+28     	; 0x5e0c <report_grbl_settings+0x226>
    5df0:	13 30       	cpi	r17, 0x03	; 3
    5df2:	b9 f0       	breq	.+46     	; 0x5e22 <report_grbl_settings+0x23c>
    5df4:	11 30       	cpi	r17, 0x01	; 1
    5df6:	29 f0       	breq	.+10     	; 0x5e02 <report_grbl_settings+0x21c>
    5df8:	68 81       	ld	r22, Y
    5dfa:	79 81       	ldd	r23, Y+1	; 0x01
    5dfc:	8a 81       	ldd	r24, Y+2	; 0x02
    5dfe:	9b 81       	ldd	r25, Y+3	; 0x03
    5e00:	17 c0       	rjmp	.+46     	; 0x5e30 <report_grbl_settings+0x24a>
    5e02:	6c 85       	ldd	r22, Y+12	; 0x0c
    5e04:	7d 85       	ldd	r23, Y+13	; 0x0d
    5e06:	8e 85       	ldd	r24, Y+14	; 0x0e
    5e08:	9f 85       	ldd	r25, Y+15	; 0x0f
    5e0a:	12 c0       	rjmp	.+36     	; 0x5e30 <report_grbl_settings+0x24a>
    5e0c:	20 e0       	ldi	r18, 0x00	; 0
    5e0e:	30 e0       	ldi	r19, 0x00	; 0
    5e10:	41 e6       	ldi	r20, 0x61	; 97
    5e12:	55 e4       	ldi	r21, 0x45	; 69
    5e14:	68 8d       	ldd	r22, Y+24	; 0x18
    5e16:	79 8d       	ldd	r23, Y+25	; 0x19
    5e18:	8a 8d       	ldd	r24, Y+26	; 0x1a
    5e1a:	9b 8d       	ldd	r25, Y+27	; 0x1b
    5e1c:	0e 94 e6 34 	call	0x69cc	; 0x69cc <__divsf3>
    5e20:	07 c0       	rjmp	.+14     	; 0x5e30 <report_grbl_settings+0x24a>
    5e22:	8c a1       	ldd	r24, Y+36	; 0x24
    5e24:	9d a1       	ldd	r25, Y+37	; 0x25
    5e26:	ae a1       	ldd	r26, Y+38	; 0x26
    5e28:	bf a1       	ldd	r27, Y+39	; 0x27
    5e2a:	bc 01       	movw	r22, r24
    5e2c:	cd 01       	movw	r24, r26
    5e2e:	90 58       	subi	r25, 0x80	; 128
    5e30:	0e 94 0d 2d 	call	0x5a1a	; 0x5a1a <printFloat_SettingValue>
    5e34:	80 ed       	ldi	r24, 0xD0	; 208
    5e36:	92 e0       	ldi	r25, 0x02	; 2
    5e38:	0e 94 e8 2b 	call	0x57d0	; 0x57d0 <printPgmString>
    5e3c:	01 30       	cpi	r16, 0x01	; 1
    5e3e:	29 f0       	breq	.+10     	; 0x5e4a <report_grbl_settings+0x264>
    5e40:	02 30       	cpi	r16, 0x02	; 2
    5e42:	31 f0       	breq	.+12     	; 0x5e50 <report_grbl_settings+0x26a>
    5e44:	8e ec       	ldi	r24, 0xCE	; 206
    5e46:	92 e0       	ldi	r25, 0x02	; 2
    5e48:	05 c0       	rjmp	.+10     	; 0x5e54 <report_grbl_settings+0x26e>
    5e4a:	8c ec       	ldi	r24, 0xCC	; 204
    5e4c:	92 e0       	ldi	r25, 0x02	; 2
    5e4e:	02 c0       	rjmp	.+4      	; 0x5e54 <report_grbl_settings+0x26e>
    5e50:	8a ec       	ldi	r24, 0xCA	; 202
    5e52:	92 e0       	ldi	r25, 0x02	; 2
    5e54:	0e 94 e8 2b 	call	0x57d0	; 0x57d0 <printPgmString>
    5e58:	12 30       	cpi	r17, 0x02	; 2
    5e5a:	51 f0       	breq	.+20     	; 0x5e70 <report_grbl_settings+0x28a>
    5e5c:	13 30       	cpi	r17, 0x03	; 3
    5e5e:	59 f0       	breq	.+22     	; 0x5e76 <report_grbl_settings+0x290>
    5e60:	11 30       	cpi	r17, 0x01	; 1
    5e62:	19 f0       	breq	.+6      	; 0x5e6a <report_grbl_settings+0x284>
    5e64:	80 ec       	ldi	r24, 0xC0	; 192
    5e66:	92 e0       	ldi	r25, 0x02	; 2
    5e68:	08 c0       	rjmp	.+16     	; 0x5e7a <report_grbl_settings+0x294>
    5e6a:	8e ea       	ldi	r24, 0xAE	; 174
    5e6c:	92 e0       	ldi	r25, 0x02	; 2
    5e6e:	05 c0       	rjmp	.+10     	; 0x5e7a <report_grbl_settings+0x294>
    5e70:	8d e9       	ldi	r24, 0x9D	; 157
    5e72:	92 e0       	ldi	r25, 0x02	; 2
    5e74:	02 c0       	rjmp	.+4      	; 0x5e7a <report_grbl_settings+0x294>
    5e76:	8d e8       	ldi	r24, 0x8D	; 141
    5e78:	92 e0       	ldi	r25, 0x02	; 2
    5e7a:	0e 94 e8 2b 	call	0x57d0	; 0x57d0 <printPgmString>
    5e7e:	89 e8       	ldi	r24, 0x89	; 137
    5e80:	92 e0       	ldi	r25, 0x02	; 2
    5e82:	0e 94 e8 2b 	call	0x57d0	; 0x57d0 <printPgmString>
    5e86:	0f 5f       	subi	r16, 0xFF	; 255
    5e88:	24 96       	adiw	r28, 0x04	; 4
    5e8a:	03 30       	cpi	r16, 0x03	; 3
    5e8c:	09 f0       	breq	.+2      	; 0x5e90 <report_grbl_settings+0x2aa>
    5e8e:	a2 cf       	rjmp	.-188    	; 0x5dd4 <report_grbl_settings+0x1ee>
    5e90:	8a e0       	ldi	r24, 0x0A	; 10
    5e92:	f8 0e       	add	r15, r24
    5e94:	1f 5f       	subi	r17, 0xFF	; 255
    5e96:	8c e8       	ldi	r24, 0x8C	; 140
    5e98:	f8 12       	cpse	r15, r24
    5e9a:	99 cf       	rjmp	.-206    	; 0x5dce <report_grbl_settings+0x1e8>
    5e9c:	df 91       	pop	r29
    5e9e:	cf 91       	pop	r28
    5ea0:	1f 91       	pop	r17
    5ea2:	0f 91       	pop	r16
    5ea4:	ff 90       	pop	r15
    5ea6:	08 95       	ret

00005ea8 <report_probe_parameters>:
    5ea8:	cf 93       	push	r28
    5eaa:	83 e8       	ldi	r24, 0x83	; 131
    5eac:	92 e0       	ldi	r25, 0x02	; 2
    5eae:	0e 94 e8 2b 	call	0x57d0	; 0x57d0 <printPgmString>
    5eb2:	c0 e0       	ldi	r28, 0x00	; 0
    5eb4:	6c 2f       	mov	r22, r28
    5eb6:	87 e3       	ldi	r24, 0x37	; 55
    5eb8:	95 e0       	ldi	r25, 0x05	; 5
    5eba:	0e 94 d1 33 	call	0x67a2	; 0x67a2 <system_convert_axis_steps_to_mpos>
    5ebe:	0e 94 ef 2c 	call	0x59de	; 0x59de <printFloat_CoordValue>
    5ec2:	c2 30       	cpi	r28, 0x02	; 2
    5ec4:	21 f0       	breq	.+8      	; 0x5ece <report_probe_parameters+0x26>
    5ec6:	81 e8       	ldi	r24, 0x81	; 129
    5ec8:	92 e0       	ldi	r25, 0x02	; 2
    5eca:	0e 94 e8 2b 	call	0x57d0	; 0x57d0 <printPgmString>
    5ece:	cf 5f       	subi	r28, 0xFF	; 255
    5ed0:	c3 30       	cpi	r28, 0x03	; 3
    5ed2:	81 f7       	brne	.-32     	; 0x5eb4 <report_probe_parameters+0xc>
    5ed4:	8f e7       	ldi	r24, 0x7F	; 127
    5ed6:	92 e0       	ldi	r25, 0x02	; 2
    5ed8:	0e 94 e8 2b 	call	0x57d0	; 0x57d0 <printPgmString>
    5edc:	80 91 43 05 	lds	r24, 0x0543
    5ee0:	0e 94 3a 2c 	call	0x5874	; 0x5874 <print_uint8_base10>
    5ee4:	8b e7       	ldi	r24, 0x7B	; 123
    5ee6:	92 e0       	ldi	r25, 0x02	; 2
    5ee8:	cf 91       	pop	r28
    5eea:	0c 94 e8 2b 	jmp	0x57d0	; 0x57d0 <printPgmString>

00005eee <report_ngc_parameters>:
    5eee:	ef 92       	push	r14
    5ef0:	ff 92       	push	r15
    5ef2:	0f 93       	push	r16
    5ef4:	1f 93       	push	r17
    5ef6:	cf 93       	push	r28
    5ef8:	df 93       	push	r29
    5efa:	cd b7       	in	r28, 0x3d	; 61
    5efc:	de b7       	in	r29, 0x3e	; 62
    5efe:	2c 97       	sbiw	r28, 0x0c	; 12
    5f00:	0f b6       	in	r0, 0x3f	; 63
    5f02:	f8 94       	cli
    5f04:	de bf       	out	0x3e, r29	; 62
    5f06:	0f be       	out	0x3f, r0	; 63
    5f08:	cd bf       	out	0x3d, r28	; 61
    5f0a:	f1 2c       	mov	r15, r1
    5f0c:	be 01       	movw	r22, r28
    5f0e:	6f 5f       	subi	r22, 0xFF	; 255
    5f10:	7f 4f       	sbci	r23, 0xFF	; 255
    5f12:	8f 2d       	mov	r24, r15
    5f14:	0e 94 15 22 	call	0x442a	; 0x442a <settings_read_coord_data>
    5f18:	81 11       	cpse	r24, r1
    5f1a:	04 c0       	rjmp	.+8      	; 0x5f24 <report_ngc_parameters+0x36>
    5f1c:	87 e0       	ldi	r24, 0x07	; 7
    5f1e:	0e 94 44 2d 	call	0x5a88	; 0x5a88 <report_status_message>
    5f22:	69 c0       	rjmp	.+210    	; 0x5ff6 <report_ngc_parameters+0x108>
    5f24:	88 e7       	ldi	r24, 0x78	; 120
    5f26:	92 e0       	ldi	r25, 0x02	; 2
    5f28:	0e 94 e8 2b 	call	0x57d0	; 0x57d0 <printPgmString>
    5f2c:	86 e0       	ldi	r24, 0x06	; 6
    5f2e:	f8 16       	cp	r15, r24
    5f30:	31 f0       	breq	.+12     	; 0x5f3e <report_ngc_parameters+0x50>
    5f32:	e7 e0       	ldi	r30, 0x07	; 7
    5f34:	fe 12       	cpse	r15, r30
    5f36:	08 c0       	rjmp	.+16     	; 0x5f48 <report_ngc_parameters+0x5a>
    5f38:	82 e7       	ldi	r24, 0x72	; 114
    5f3a:	92 e0       	ldi	r25, 0x02	; 2
    5f3c:	02 c0       	rjmp	.+4      	; 0x5f42 <report_ngc_parameters+0x54>
    5f3e:	85 e7       	ldi	r24, 0x75	; 117
    5f40:	92 e0       	ldi	r25, 0x02	; 2
    5f42:	0e 94 e8 2b 	call	0x57d0	; 0x57d0 <printPgmString>
    5f46:	04 c0       	rjmp	.+8      	; 0x5f50 <report_ngc_parameters+0x62>
    5f48:	86 e3       	ldi	r24, 0x36	; 54
    5f4a:	8f 0d       	add	r24, r15
    5f4c:	0e 94 3a 2c 	call	0x5874	; 0x5874 <print_uint8_base10>
    5f50:	80 e7       	ldi	r24, 0x70	; 112
    5f52:	92 e0       	ldi	r25, 0x02	; 2
    5f54:	0e 94 e8 2b 	call	0x57d0	; 0x57d0 <printPgmString>
    5f58:	8e 01       	movw	r16, r28
    5f5a:	0f 5f       	subi	r16, 0xFF	; 255
    5f5c:	1f 4f       	sbci	r17, 0xFF	; 255
    5f5e:	e1 2c       	mov	r14, r1
    5f60:	f8 01       	movw	r30, r16
    5f62:	61 91       	ld	r22, Z+
    5f64:	71 91       	ld	r23, Z+
    5f66:	81 91       	ld	r24, Z+
    5f68:	91 91       	ld	r25, Z+
    5f6a:	8f 01       	movw	r16, r30
    5f6c:	0e 94 ef 2c 	call	0x59de	; 0x59de <printFloat_CoordValue>
    5f70:	f2 e0       	ldi	r31, 0x02	; 2
    5f72:	ef 16       	cp	r14, r31
    5f74:	19 f0       	breq	.+6      	; 0x5f7c <report_ngc_parameters+0x8e>
    5f76:	8e e6       	ldi	r24, 0x6E	; 110
    5f78:	92 e0       	ldi	r25, 0x02	; 2
    5f7a:	02 c0       	rjmp	.+4      	; 0x5f80 <report_ngc_parameters+0x92>
    5f7c:	8a e6       	ldi	r24, 0x6A	; 106
    5f7e:	92 e0       	ldi	r25, 0x02	; 2
    5f80:	0e 94 e8 2b 	call	0x57d0	; 0x57d0 <printPgmString>
    5f84:	e3 94       	inc	r14
    5f86:	83 e0       	ldi	r24, 0x03	; 3
    5f88:	e8 12       	cpse	r14, r24
    5f8a:	ea cf       	rjmp	.-44     	; 0x5f60 <report_ngc_parameters+0x72>
    5f8c:	f3 94       	inc	r15
    5f8e:	e8 e0       	ldi	r30, 0x08	; 8
    5f90:	fe 12       	cpse	r15, r30
    5f92:	bc cf       	rjmp	.-136    	; 0x5f0c <report_ngc_parameters+0x1e>
    5f94:	84 e6       	ldi	r24, 0x64	; 100
    5f96:	92 e0       	ldi	r25, 0x02	; 2
    5f98:	0e 94 e8 2b 	call	0x57d0	; 0x57d0 <printPgmString>
    5f9c:	07 e7       	ldi	r16, 0x77	; 119
    5f9e:	15 e0       	ldi	r17, 0x05	; 5
    5fa0:	f1 2c       	mov	r15, r1
    5fa2:	f8 01       	movw	r30, r16
    5fa4:	61 91       	ld	r22, Z+
    5fa6:	71 91       	ld	r23, Z+
    5fa8:	81 91       	ld	r24, Z+
    5faa:	91 91       	ld	r25, Z+
    5fac:	8f 01       	movw	r16, r30
    5fae:	0e 94 ef 2c 	call	0x59de	; 0x59de <printFloat_CoordValue>
    5fb2:	f2 e0       	ldi	r31, 0x02	; 2
    5fb4:	ff 16       	cp	r15, r31
    5fb6:	19 f0       	breq	.+6      	; 0x5fbe <report_ngc_parameters+0xd0>
    5fb8:	82 e6       	ldi	r24, 0x62	; 98
    5fba:	92 e0       	ldi	r25, 0x02	; 2
    5fbc:	02 c0       	rjmp	.+4      	; 0x5fc2 <report_ngc_parameters+0xd4>
    5fbe:	8e e5       	ldi	r24, 0x5E	; 94
    5fc0:	92 e0       	ldi	r25, 0x02	; 2
    5fc2:	0e 94 e8 2b 	call	0x57d0	; 0x57d0 <printPgmString>
    5fc6:	f3 94       	inc	r15
    5fc8:	83 e0       	ldi	r24, 0x03	; 3
    5fca:	f8 12       	cpse	r15, r24
    5fcc:	ea cf       	rjmp	.-44     	; 0x5fa2 <report_ngc_parameters+0xb4>
    5fce:	88 e5       	ldi	r24, 0x58	; 88
    5fd0:	92 e0       	ldi	r25, 0x02	; 2
    5fd2:	0e 94 e8 2b 	call	0x57d0	; 0x57d0 <printPgmString>
    5fd6:	60 91 83 05 	lds	r22, 0x0583
    5fda:	70 91 84 05 	lds	r23, 0x0584
    5fde:	80 91 85 05 	lds	r24, 0x0585
    5fe2:	90 91 86 05 	lds	r25, 0x0586
    5fe6:	0e 94 ef 2c 	call	0x59de	; 0x59de <printFloat_CoordValue>
    5fea:	84 e5       	ldi	r24, 0x54	; 84
    5fec:	92 e0       	ldi	r25, 0x02	; 2
    5fee:	0e 94 e8 2b 	call	0x57d0	; 0x57d0 <printPgmString>
    5ff2:	0e 94 54 2f 	call	0x5ea8	; 0x5ea8 <report_probe_parameters>
    5ff6:	2c 96       	adiw	r28, 0x0c	; 12
    5ff8:	0f b6       	in	r0, 0x3f	; 63
    5ffa:	f8 94       	cli
    5ffc:	de bf       	out	0x3e, r29	; 62
    5ffe:	0f be       	out	0x3f, r0	; 63
    6000:	cd bf       	out	0x3d, r28	; 61
    6002:	df 91       	pop	r29
    6004:	cf 91       	pop	r28
    6006:	1f 91       	pop	r17
    6008:	0f 91       	pop	r16
    600a:	ff 90       	pop	r15
    600c:	ef 90       	pop	r14
    600e:	08 95       	ret

00006010 <report_gcode_modes>:
    6010:	82 e5       	ldi	r24, 0x52	; 82
    6012:	92 e0       	ldi	r25, 0x02	; 2
    6014:	0e 94 e8 2b 	call	0x57d0	; 0x57d0 <printPgmString>
    6018:	80 91 48 05 	lds	r24, 0x0548
    601c:	82 30       	cpi	r24, 0x02	; 2
    601e:	91 f0       	breq	.+36     	; 0x6044 <report_gcode_modes+0x34>
    6020:	38 f4       	brcc	.+14     	; 0x6030 <report_gcode_modes+0x20>
    6022:	88 23       	and	r24, r24
    6024:	61 f0       	breq	.+24     	; 0x603e <report_gcode_modes+0x2e>
    6026:	81 30       	cpi	r24, 0x01	; 1
    6028:	a9 f4       	brne	.+42     	; 0x6054 <report_gcode_modes+0x44>
    602a:	8c e4       	ldi	r24, 0x4C	; 76
    602c:	92 e0       	ldi	r25, 0x02	; 2
    602e:	0c c0       	rjmp	.+24     	; 0x6048 <report_gcode_modes+0x38>
    6030:	83 30       	cpi	r24, 0x03	; 3
    6032:	69 f0       	breq	.+26     	; 0x604e <report_gcode_modes+0x3e>
    6034:	88 30       	cpi	r24, 0x08	; 8
    6036:	71 f4       	brne	.+28     	; 0x6054 <report_gcode_modes+0x44>
    6038:	82 e4       	ldi	r24, 0x42	; 66
    603a:	92 e0       	ldi	r25, 0x02	; 2
    603c:	05 c0       	rjmp	.+10     	; 0x6048 <report_gcode_modes+0x38>
    603e:	8f e4       	ldi	r24, 0x4F	; 79
    6040:	92 e0       	ldi	r25, 0x02	; 2
    6042:	02 c0       	rjmp	.+4      	; 0x6048 <report_gcode_modes+0x38>
    6044:	89 e4       	ldi	r24, 0x49	; 73
    6046:	92 e0       	ldi	r25, 0x02	; 2
    6048:	0e 94 e8 2b 	call	0x57d0	; 0x57d0 <printPgmString>
    604c:	0c c0       	rjmp	.+24     	; 0x6066 <report_gcode_modes+0x56>
    604e:	86 e4       	ldi	r24, 0x46	; 70
    6050:	92 e0       	ldi	r25, 0x02	; 2
    6052:	fa cf       	rjmp	.-12     	; 0x6048 <report_gcode_modes+0x38>
    6054:	8d e3       	ldi	r24, 0x3D	; 61
    6056:	92 e0       	ldi	r25, 0x02	; 2
    6058:	0e 94 e8 2b 	call	0x57d0	; 0x57d0 <printPgmString>
    605c:	80 91 48 05 	lds	r24, 0x0548
    6060:	82 50       	subi	r24, 0x02	; 2
    6062:	0e 94 3a 2c 	call	0x5874	; 0x5874 <print_uint8_base10>
    6066:	8a e3       	ldi	r24, 0x3A	; 58
    6068:	92 e0       	ldi	r25, 0x02	; 2
    606a:	0e 94 e8 2b 	call	0x57d0	; 0x57d0 <printPgmString>
    606e:	80 91 4e 05 	lds	r24, 0x054E
    6072:	8a 5c       	subi	r24, 0xCA	; 202
    6074:	0e 94 3a 2c 	call	0x5874	; 0x5874 <print_uint8_base10>
    6078:	80 91 4c 05 	lds	r24, 0x054C
    607c:	81 30       	cpi	r24, 0x01	; 1
    607e:	49 f0       	breq	.+18     	; 0x6092 <report_gcode_modes+0x82>
    6080:	28 f0       	brcs	.+10     	; 0x608c <report_gcode_modes+0x7c>
    6082:	82 30       	cpi	r24, 0x02	; 2
    6084:	51 f4       	brne	.+20     	; 0x609a <report_gcode_modes+0x8a>
    6086:	8b e2       	ldi	r24, 0x2B	; 43
    6088:	92 e0       	ldi	r25, 0x02	; 2
    608a:	05 c0       	rjmp	.+10     	; 0x6096 <report_gcode_modes+0x86>
    608c:	85 e3       	ldi	r24, 0x35	; 53
    608e:	92 e0       	ldi	r25, 0x02	; 2
    6090:	02 c0       	rjmp	.+4      	; 0x6096 <report_gcode_modes+0x86>
    6092:	80 e3       	ldi	r24, 0x30	; 48
    6094:	92 e0       	ldi	r25, 0x02	; 2
    6096:	0e 94 e8 2b 	call	0x57d0	; 0x57d0 <printPgmString>
    609a:	80 91 4a 05 	lds	r24, 0x054A
    609e:	81 11       	cpse	r24, r1
    60a0:	03 c0       	rjmp	.+6      	; 0x60a8 <report_gcode_modes+0x98>
    60a2:	86 e2       	ldi	r24, 0x26	; 38
    60a4:	92 e0       	ldi	r25, 0x02	; 2
    60a6:	02 c0       	rjmp	.+4      	; 0x60ac <report_gcode_modes+0x9c>
    60a8:	81 e2       	ldi	r24, 0x21	; 33
    60aa:	92 e0       	ldi	r25, 0x02	; 2
    60ac:	0e 94 e8 2b 	call	0x57d0	; 0x57d0 <printPgmString>
    60b0:	80 91 4b 05 	lds	r24, 0x054B
    60b4:	81 11       	cpse	r24, r1
    60b6:	03 c0       	rjmp	.+6      	; 0x60be <report_gcode_modes+0xae>
    60b8:	8c e1       	ldi	r24, 0x1C	; 28
    60ba:	92 e0       	ldi	r25, 0x02	; 2
    60bc:	02 c0       	rjmp	.+4      	; 0x60c2 <report_gcode_modes+0xb2>
    60be:	87 e1       	ldi	r24, 0x17	; 23
    60c0:	92 e0       	ldi	r25, 0x02	; 2
    60c2:	0e 94 e8 2b 	call	0x57d0	; 0x57d0 <printPgmString>
    60c6:	80 91 49 05 	lds	r24, 0x0549
    60ca:	81 30       	cpi	r24, 0x01	; 1
    60cc:	19 f4       	brne	.+6      	; 0x60d4 <report_gcode_modes+0xc4>
    60ce:	82 e1       	ldi	r24, 0x12	; 18
    60d0:	92 e0       	ldi	r25, 0x02	; 2
    60d2:	02 c0       	rjmp	.+4      	; 0x60d8 <report_gcode_modes+0xc8>
    60d4:	8d e0       	ldi	r24, 0x0D	; 13
    60d6:	92 e0       	ldi	r25, 0x02	; 2
    60d8:	0e 94 e8 2b 	call	0x57d0	; 0x57d0 <printPgmString>
    60dc:	80 91 4f 05 	lds	r24, 0x054F
    60e0:	81 30       	cpi	r24, 0x01	; 1
    60e2:	49 f0       	breq	.+18     	; 0x60f6 <report_gcode_modes+0xe6>
    60e4:	28 f0       	brcs	.+10     	; 0x60f0 <report_gcode_modes+0xe0>
    60e6:	82 30       	cpi	r24, 0x02	; 2
    60e8:	51 f4       	brne	.+20     	; 0x60fe <report_gcode_modes+0xee>
    60ea:	81 e0       	ldi	r24, 0x01	; 1
    60ec:	92 e0       	ldi	r25, 0x02	; 2
    60ee:	05 c0       	rjmp	.+10     	; 0x60fa <report_gcode_modes+0xea>
    60f0:	89 e0       	ldi	r24, 0x09	; 9
    60f2:	92 e0       	ldi	r25, 0x02	; 2
    60f4:	02 c0       	rjmp	.+4      	; 0x60fa <report_gcode_modes+0xea>
    60f6:	85 e0       	ldi	r24, 0x05	; 5
    60f8:	92 e0       	ldi	r25, 0x02	; 2
    60fa:	0e 94 e8 2b 	call	0x57d0	; 0x57d0 <printPgmString>
    60fe:	80 91 51 05 	lds	r24, 0x0551
    6102:	81 30       	cpi	r24, 0x01	; 1
    6104:	31 f0       	breq	.+12     	; 0x6112 <report_gcode_modes+0x102>
    6106:	40 f0       	brcs	.+16     	; 0x6118 <report_gcode_modes+0x108>
    6108:	82 30       	cpi	r24, 0x02	; 2
    610a:	51 f4       	brne	.+20     	; 0x6120 <report_gcode_modes+0x110>
    610c:	89 ef       	ldi	r24, 0xF9	; 249
    610e:	91 e0       	ldi	r25, 0x01	; 1
    6110:	05 c0       	rjmp	.+10     	; 0x611c <report_gcode_modes+0x10c>
    6112:	8d ef       	ldi	r24, 0xFD	; 253
    6114:	91 e0       	ldi	r25, 0x01	; 1
    6116:	02 c0       	rjmp	.+4      	; 0x611c <report_gcode_modes+0x10c>
    6118:	85 ef       	ldi	r24, 0xF5	; 245
    611a:	91 e0       	ldi	r25, 0x01	; 1
    611c:	0e 94 e8 2b 	call	0x57d0	; 0x57d0 <printPgmString>
    6120:	80 91 50 05 	lds	r24, 0x0550
    6124:	88 23       	and	r24, r24
    6126:	29 f0       	breq	.+10     	; 0x6132 <report_gcode_modes+0x122>
    6128:	82 30       	cpi	r24, 0x02	; 2
    612a:	39 f4       	brne	.+14     	; 0x613a <report_gcode_modes+0x12a>
    612c:	8d ee       	ldi	r24, 0xED	; 237
    612e:	91 e0       	ldi	r25, 0x01	; 1
    6130:	02 c0       	rjmp	.+4      	; 0x6136 <report_gcode_modes+0x126>
    6132:	81 ef       	ldi	r24, 0xF1	; 241
    6134:	91 e0       	ldi	r25, 0x01	; 1
    6136:	0e 94 e8 2b 	call	0x57d0	; 0x57d0 <printPgmString>
    613a:	8a ee       	ldi	r24, 0xEA	; 234
    613c:	91 e0       	ldi	r25, 0x01	; 1
    613e:	0e 94 e8 2b 	call	0x57d0	; 0x57d0 <printPgmString>
    6142:	80 91 5a 05 	lds	r24, 0x055A
    6146:	0e 94 3a 2c 	call	0x5874	; 0x5874 <print_uint8_base10>
    614a:	87 ee       	ldi	r24, 0xE7	; 231
    614c:	91 e0       	ldi	r25, 0x01	; 1
    614e:	0e 94 e8 2b 	call	0x57d0	; 0x57d0 <printPgmString>
    6152:	60 91 56 05 	lds	r22, 0x0556
    6156:	70 91 57 05 	lds	r23, 0x0557
    615a:	80 91 58 05 	lds	r24, 0x0558
    615e:	90 91 59 05 	lds	r25, 0x0559
    6162:	0e 94 fe 2c 	call	0x59fc	; 0x59fc <printFloat_RateValue>
    6166:	84 ee       	ldi	r24, 0xE4	; 228
    6168:	91 e0       	ldi	r25, 0x01	; 1
    616a:	0e 94 e8 2b 	call	0x57d0	; 0x57d0 <printPgmString>
    616e:	60 91 52 05 	lds	r22, 0x0552
    6172:	70 91 53 05 	lds	r23, 0x0553
    6176:	80 91 54 05 	lds	r24, 0x0554
    617a:	90 91 55 05 	lds	r25, 0x0555
    617e:	0e 94 fe 2c 	call	0x59fc	; 0x59fc <printFloat_RateValue>
    6182:	80 ee       	ldi	r24, 0xE0	; 224
    6184:	91 e0       	ldi	r25, 0x01	; 1
    6186:	0c 94 e8 2b 	jmp	0x57d0	; 0x57d0 <printPgmString>

0000618a <report_startup_line>:
    618a:	1f 93       	push	r17
    618c:	cf 93       	push	r28
    618e:	df 93       	push	r29
    6190:	18 2f       	mov	r17, r24
    6192:	eb 01       	movw	r28, r22
    6194:	8d ed       	ldi	r24, 0xDD	; 221
    6196:	91 e0       	ldi	r25, 0x01	; 1
    6198:	0e 94 e8 2b 	call	0x57d0	; 0x57d0 <printPgmString>
    619c:	81 2f       	mov	r24, r17
    619e:	0e 94 3a 2c 	call	0x5874	; 0x5874 <print_uint8_base10>
    61a2:	8b ed       	ldi	r24, 0xDB	; 219
    61a4:	91 e0       	ldi	r25, 0x01	; 1
    61a6:	0e 94 e8 2b 	call	0x57d0	; 0x57d0 <printPgmString>
    61aa:	ce 01       	movw	r24, r28
    61ac:	0e 94 dc 2b 	call	0x57b8	; 0x57b8 <printString>
    61b0:	88 ed       	ldi	r24, 0xD8	; 216
    61b2:	91 e0       	ldi	r25, 0x01	; 1
    61b4:	df 91       	pop	r29
    61b6:	cf 91       	pop	r28
    61b8:	1f 91       	pop	r17
    61ba:	0c 94 e8 2b 	jmp	0x57d0	; 0x57d0 <printPgmString>

000061be <report_build_info>:
    61be:	cf 93       	push	r28
    61c0:	df 93       	push	r29
    61c2:	ec 01       	movw	r28, r24
    61c4:	88 ec       	ldi	r24, 0xC8	; 200
    61c6:	91 e0       	ldi	r25, 0x01	; 1
    61c8:	0e 94 e8 2b 	call	0x57d0	; 0x57d0 <printPgmString>
    61cc:	ce 01       	movw	r24, r28
    61ce:	0e 94 dc 2b 	call	0x57b8	; 0x57b8 <printString>
    61d2:	84 ec       	ldi	r24, 0xC4	; 196
    61d4:	91 e0       	ldi	r25, 0x01	; 1
    61d6:	df 91       	pop	r29
    61d8:	cf 91       	pop	r28
    61da:	0c 94 e8 2b 	jmp	0x57d0	; 0x57d0 <printPgmString>

000061de <report_realtime_status>:
    61de:	bf 92       	push	r11
    61e0:	cf 92       	push	r12
    61e2:	df 92       	push	r13
    61e4:	ef 92       	push	r14
    61e6:	ff 92       	push	r15
    61e8:	0f 93       	push	r16
    61ea:	1f 93       	push	r17
    61ec:	cf 93       	push	r28
    61ee:	df 93       	push	r29
    61f0:	cd b7       	in	r28, 0x3d	; 61
    61f2:	de b7       	in	r29, 0x3e	; 62
    61f4:	68 97       	sbiw	r28, 0x18	; 24
    61f6:	0f b6       	in	r0, 0x3f	; 63
    61f8:	f8 94       	cli
    61fa:	de bf       	out	0x3e, r29	; 62
    61fc:	0f be       	out	0x3f, r0	; 63
    61fe:	cd bf       	out	0x3d, r28	; 61
    6200:	8c e0       	ldi	r24, 0x0C	; 12
    6202:	eb e2       	ldi	r30, 0x2B	; 43
    6204:	f5 e0       	ldi	r31, 0x05	; 5
    6206:	de 01       	movw	r26, r28
    6208:	1d 96       	adiw	r26, 0x0d	; 13
    620a:	01 90       	ld	r0, Z+
    620c:	0d 92       	st	X+, r0
    620e:	8a 95       	dec	r24
    6210:	e1 f7       	brne	.-8      	; 0x620a <report_realtime_status+0x2c>
    6212:	80 91 28 05 	lds	r24, 0x0528
    6216:	84 30       	cpi	r24, 0x04	; 4
    6218:	e9 f0       	breq	.+58     	; 0x6254 <report_realtime_status+0x76>
    621a:	40 f4       	brcc	.+16     	; 0x622c <report_realtime_status+0x4e>
    621c:	81 30       	cpi	r24, 0x01	; 1
    621e:	e9 f0       	breq	.+58     	; 0x625a <report_realtime_status+0x7c>
    6220:	80 f0       	brcs	.+32     	; 0x6242 <report_realtime_status+0x64>
    6222:	82 30       	cpi	r24, 0x02	; 2
    6224:	09 f5       	brne	.+66     	; 0x6268 <report_realtime_status+0x8a>
    6226:	8f e9       	ldi	r24, 0x9F	; 159
    6228:	91 e0       	ldi	r25, 0x01	; 1
    622a:	1c c0       	rjmp	.+56     	; 0x6264 <report_realtime_status+0x86>
    622c:	80 31       	cpi	r24, 0x10	; 16
    622e:	79 f0       	breq	.+30     	; 0x624e <report_realtime_status+0x70>
    6230:	18 f4       	brcc	.+6      	; 0x6238 <report_realtime_status+0x5a>
    6232:	88 30       	cpi	r24, 0x08	; 8
    6234:	49 f0       	breq	.+18     	; 0x6248 <report_realtime_status+0x6a>
    6236:	18 c0       	rjmp	.+48     	; 0x6268 <report_realtime_status+0x8a>
    6238:	80 32       	cpi	r24, 0x20	; 32
    623a:	91 f0       	breq	.+36     	; 0x6260 <report_realtime_status+0x82>
    623c:	80 34       	cpi	r24, 0x40	; 64
    623e:	21 f0       	breq	.+8      	; 0x6248 <report_realtime_status+0x6a>
    6240:	13 c0       	rjmp	.+38     	; 0x6268 <report_realtime_status+0x8a>
    6242:	8e eb       	ldi	r24, 0xBE	; 190
    6244:	91 e0       	ldi	r25, 0x01	; 1
    6246:	0e c0       	rjmp	.+28     	; 0x6264 <report_realtime_status+0x86>
    6248:	89 eb       	ldi	r24, 0xB9	; 185
    624a:	91 e0       	ldi	r25, 0x01	; 1
    624c:	0b c0       	rjmp	.+22     	; 0x6264 <report_realtime_status+0x86>
    624e:	83 eb       	ldi	r24, 0xB3	; 179
    6250:	91 e0       	ldi	r25, 0x01	; 1
    6252:	08 c0       	rjmp	.+16     	; 0x6264 <report_realtime_status+0x86>
    6254:	8d ea       	ldi	r24, 0xAD	; 173
    6256:	91 e0       	ldi	r25, 0x01	; 1
    6258:	05 c0       	rjmp	.+10     	; 0x6264 <report_realtime_status+0x86>
    625a:	86 ea       	ldi	r24, 0xA6	; 166
    625c:	91 e0       	ldi	r25, 0x01	; 1
    625e:	02 c0       	rjmp	.+4      	; 0x6264 <report_realtime_status+0x86>
    6260:	89 e9       	ldi	r24, 0x99	; 153
    6262:	91 e0       	ldi	r25, 0x01	; 1
    6264:	0e 94 e8 2b 	call	0x57d0	; 0x57d0 <printPgmString>
    6268:	80 91 b4 06 	lds	r24, 0x06B4
    626c:	83 70       	andi	r24, 0x03	; 3
    626e:	39 f0       	breq	.+14     	; 0x627e <report_realtime_status+0xa0>
    6270:	be 01       	movw	r22, r28
    6272:	63 5f       	subi	r22, 0xF3	; 243
    6274:	7f 4f       	sbci	r23, 0xFF	; 255
    6276:	ce 01       	movw	r24, r28
    6278:	01 96       	adiw	r24, 0x01	; 1
    627a:	0e 94 eb 33 	call	0x67d6	; 0x67d6 <system_convert_array_steps_to_mpos>
    627e:	80 91 b4 06 	lds	r24, 0x06B4
    6282:	80 fd       	sbrc	r24, 0
    6284:	05 c0       	rjmp	.+10     	; 0x6290 <report_realtime_status+0xb2>
    6286:	80 91 b4 06 	lds	r24, 0x06B4
    628a:	81 ff       	sbrs	r24, 1
    628c:	6d c0       	rjmp	.+218    	; 0x6368 <report_realtime_status+0x18a>
    628e:	1f c0       	rjmp	.+62     	; 0x62ce <report_realtime_status+0xf0>
    6290:	82 e9       	ldi	r24, 0x92	; 146
    6292:	91 e0       	ldi	r25, 0x01	; 1
    6294:	0e 94 e8 2b 	call	0x57d0	; 0x57d0 <printPgmString>
    6298:	69 81       	ldd	r22, Y+1	; 0x01
    629a:	7a 81       	ldd	r23, Y+2	; 0x02
    629c:	8b 81       	ldd	r24, Y+3	; 0x03
    629e:	9c 81       	ldd	r25, Y+4	; 0x04
    62a0:	0e 94 ef 2c 	call	0x59de	; 0x59de <printFloat_CoordValue>
    62a4:	80 e9       	ldi	r24, 0x90	; 144
    62a6:	91 e0       	ldi	r25, 0x01	; 1
    62a8:	0e 94 e8 2b 	call	0x57d0	; 0x57d0 <printPgmString>
    62ac:	6d 81       	ldd	r22, Y+5	; 0x05
    62ae:	7e 81       	ldd	r23, Y+6	; 0x06
    62b0:	8f 81       	ldd	r24, Y+7	; 0x07
    62b2:	98 85       	ldd	r25, Y+8	; 0x08
    62b4:	0e 94 ef 2c 	call	0x59de	; 0x59de <printFloat_CoordValue>
    62b8:	80 e9       	ldi	r24, 0x90	; 144
    62ba:	91 e0       	ldi	r25, 0x01	; 1
    62bc:	0e 94 e8 2b 	call	0x57d0	; 0x57d0 <printPgmString>
    62c0:	69 85       	ldd	r22, Y+9	; 0x09
    62c2:	7a 85       	ldd	r23, Y+10	; 0x0a
    62c4:	8b 85       	ldd	r24, Y+11	; 0x0b
    62c6:	9c 85       	ldd	r25, Y+12	; 0x0c
    62c8:	0e 94 ef 2c 	call	0x59de	; 0x59de <printFloat_CoordValue>
    62cc:	dc cf       	rjmp	.-72     	; 0x6286 <report_realtime_status+0xa8>
    62ce:	89 e8       	ldi	r24, 0x89	; 137
    62d0:	91 e0       	ldi	r25, 0x01	; 1
    62d2:	0e 94 e8 2b 	call	0x57d0	; 0x57d0 <printPgmString>
    62d6:	9b e6       	ldi	r25, 0x6B	; 107
    62d8:	e9 2e       	mov	r14, r25
    62da:	95 e0       	ldi	r25, 0x05	; 5
    62dc:	f9 2e       	mov	r15, r25
    62de:	8e 01       	movw	r16, r28
    62e0:	0f 5f       	subi	r16, 0xFF	; 255
    62e2:	1f 4f       	sbci	r17, 0xFF	; 255
    62e4:	b1 2c       	mov	r11, r1
    62e6:	68 01       	movw	r12, r16
    62e8:	f7 01       	movw	r30, r14
    62ea:	61 91       	ld	r22, Z+
    62ec:	71 91       	ld	r23, Z+
    62ee:	81 91       	ld	r24, Z+
    62f0:	91 91       	ld	r25, Z+
    62f2:	7f 01       	movw	r14, r30
    62f4:	20 85       	ldd	r18, Z+8	; 0x08
    62f6:	31 85       	ldd	r19, Z+9	; 0x09
    62f8:	42 85       	ldd	r20, Z+10	; 0x0a
    62fa:	53 85       	ldd	r21, Z+11	; 0x0b
    62fc:	0e 94 06 34 	call	0x680c	; 0x680c <__addsf3>
    6300:	9b 01       	movw	r18, r22
    6302:	ac 01       	movw	r20, r24
    6304:	f8 01       	movw	r30, r16
    6306:	60 81       	ld	r22, Z
    6308:	71 81       	ldd	r23, Z+1	; 0x01
    630a:	82 81       	ldd	r24, Z+2	; 0x02
    630c:	93 81       	ldd	r25, Z+3	; 0x03
    630e:	0e 94 05 34 	call	0x680a	; 0x680a <__subsf3>
    6312:	f8 01       	movw	r30, r16
    6314:	60 83       	st	Z, r22
    6316:	71 83       	std	Z+1, r23	; 0x01
    6318:	82 83       	std	Z+2, r24	; 0x02
    631a:	93 83       	std	Z+3, r25	; 0x03
    631c:	f2 e0       	ldi	r31, 0x02	; 2
    631e:	bf 12       	cpse	r11, r31
    6320:	0f c0       	rjmp	.+30     	; 0x6340 <report_realtime_status+0x162>
    6322:	20 91 83 05 	lds	r18, 0x0583
    6326:	30 91 84 05 	lds	r19, 0x0584
    632a:	40 91 85 05 	lds	r20, 0x0585
    632e:	50 91 86 05 	lds	r21, 0x0586
    6332:	0e 94 05 34 	call	0x680a	; 0x680a <__subsf3>
    6336:	f8 01       	movw	r30, r16
    6338:	60 83       	st	Z, r22
    633a:	71 83       	std	Z+1, r23	; 0x01
    633c:	82 83       	std	Z+2, r24	; 0x02
    633e:	93 83       	std	Z+3, r25	; 0x03
    6340:	0c 5f       	subi	r16, 0xFC	; 252
    6342:	1f 4f       	sbci	r17, 0xFF	; 255
    6344:	f6 01       	movw	r30, r12
    6346:	60 81       	ld	r22, Z
    6348:	71 81       	ldd	r23, Z+1	; 0x01
    634a:	82 81       	ldd	r24, Z+2	; 0x02
    634c:	93 81       	ldd	r25, Z+3	; 0x03
    634e:	0e 94 ef 2c 	call	0x59de	; 0x59de <printFloat_CoordValue>
    6352:	f2 e0       	ldi	r31, 0x02	; 2
    6354:	bf 16       	cp	r11, r31
    6356:	21 f0       	breq	.+8      	; 0x6360 <report_realtime_status+0x182>
    6358:	87 e8       	ldi	r24, 0x87	; 135
    635a:	91 e0       	ldi	r25, 0x01	; 1
    635c:	0e 94 e8 2b 	call	0x57d0	; 0x57d0 <printPgmString>
    6360:	b3 94       	inc	r11
    6362:	23 e0       	ldi	r18, 0x03	; 3
    6364:	b2 12       	cpse	r11, r18
    6366:	bf cf       	rjmp	.-130    	; 0x62e6 <report_realtime_status+0x108>
    6368:	80 91 b4 06 	lds	r24, 0x06B4
    636c:	82 ff       	sbrs	r24, 2
    636e:	08 c0       	rjmp	.+16     	; 0x6380 <report_realtime_status+0x1a2>
    6370:	81 e8       	ldi	r24, 0x81	; 129
    6372:	91 e0       	ldi	r25, 0x01	; 1
    6374:	0e 94 e8 2b 	call	0x57d0	; 0x57d0 <printPgmString>
    6378:	0e 94 17 28 	call	0x502e	; 0x502e <plan_get_block_buffer_count>
    637c:	0e 94 3a 2c 	call	0x5874	; 0x5874 <print_uint8_base10>
    6380:	80 91 b4 06 	lds	r24, 0x06B4
    6384:	83 ff       	sbrs	r24, 3
    6386:	08 c0       	rjmp	.+16     	; 0x6398 <report_realtime_status+0x1ba>
    6388:	8c e7       	ldi	r24, 0x7C	; 124
    638a:	91 e0       	ldi	r25, 0x01	; 1
    638c:	0e 94 e8 2b 	call	0x57d0	; 0x57d0 <printPgmString>
    6390:	0e 94 f8 13 	call	0x27f0	; 0x27f0 <serial_get_rx_buffer_count>
    6394:	0e 94 3a 2c 	call	0x5874	; 0x5874 <print_uint8_base10>
    6398:	80 91 b4 06 	lds	r24, 0x06B4
    639c:	84 ff       	sbrs	r24, 4
    639e:	0a c0       	rjmp	.+20     	; 0x63b4 <report_realtime_status+0x1d6>
    63a0:	86 e7       	ldi	r24, 0x76	; 118
    63a2:	91 e0       	ldi	r25, 0x01	; 1
    63a4:	0e 94 e8 2b 	call	0x57d0	; 0x57d0 <printPgmString>
    63a8:	0e 94 2d 29 	call	0x525a	; 0x525a <limits_get_state>
    63ac:	43 e0       	ldi	r20, 0x03	; 3
    63ae:	62 e0       	ldi	r22, 0x02	; 2
    63b0:	0e 94 f7 2b 	call	0x57ee	; 0x57ee <print_unsigned_int8>
    63b4:	82 e7       	ldi	r24, 0x72	; 114
    63b6:	91 e0       	ldi	r25, 0x01	; 1
    63b8:	0e 94 e8 2b 	call	0x57d0	; 0x57d0 <printPgmString>
    63bc:	68 96       	adiw	r28, 0x18	; 24
    63be:	0f b6       	in	r0, 0x3f	; 63
    63c0:	f8 94       	cli
    63c2:	de bf       	out	0x3e, r29	; 62
    63c4:	0f be       	out	0x3f, r0	; 63
    63c6:	cd bf       	out	0x3d, r28	; 61
    63c8:	df 91       	pop	r29
    63ca:	cf 91       	pop	r28
    63cc:	1f 91       	pop	r17
    63ce:	0f 91       	pop	r16
    63d0:	ff 90       	pop	r15
    63d2:	ef 90       	pop	r14
    63d4:	df 90       	pop	r13
    63d6:	cf 90       	pop	r12
    63d8:	bf 90       	pop	r11
    63da:	08 95       	ret

000063dc <system_init>:
    63dc:	87 b1       	in	r24, 0x07	; 7
    63de:	88 7f       	andi	r24, 0xF8	; 248
    63e0:	87 b9       	out	0x07, r24	; 7
    63e2:	88 b1       	in	r24, 0x08	; 8
    63e4:	87 60       	ori	r24, 0x07	; 7
    63e6:	88 b9       	out	0x08, r24	; 8
    63e8:	ec e6       	ldi	r30, 0x6C	; 108
    63ea:	f0 e0       	ldi	r31, 0x00	; 0
    63ec:	80 81       	ld	r24, Z
    63ee:	87 60       	ori	r24, 0x07	; 7
    63f0:	80 83       	st	Z, r24
    63f2:	e8 e6       	ldi	r30, 0x68	; 104
    63f4:	f0 e0       	ldi	r31, 0x00	; 0
    63f6:	80 81       	ld	r24, Z
    63f8:	82 60       	ori	r24, 0x02	; 2
    63fa:	80 83       	st	Z, r24
    63fc:	08 95       	ret

000063fe <__vector_4>:
    63fe:	1f 92       	push	r1
    6400:	0f 92       	push	r0
    6402:	0f b6       	in	r0, 0x3f	; 63
    6404:	0f 92       	push	r0
    6406:	11 24       	eor	r1, r1
    6408:	2f 93       	push	r18
    640a:	3f 93       	push	r19
    640c:	4f 93       	push	r20
    640e:	5f 93       	push	r21
    6410:	6f 93       	push	r22
    6412:	7f 93       	push	r23
    6414:	8f 93       	push	r24
    6416:	9f 93       	push	r25
    6418:	af 93       	push	r26
    641a:	bf 93       	push	r27
    641c:	ef 93       	push	r30
    641e:	ff 93       	push	r31
    6420:	86 b1       	in	r24, 0x06	; 6
    6422:	80 95       	com	r24
    6424:	87 70       	andi	r24, 0x07	; 7
    6426:	99 f0       	breq	.+38     	; 0x644e <__vector_4+0x50>
    6428:	80 ff       	sbrs	r24, 0
    642a:	03 c0       	rjmp	.+6      	; 0x6432 <__vector_4+0x34>
    642c:	0e 94 d2 08 	call	0x11a4	; 0x11a4 <mc_reset>
    6430:	0e c0       	rjmp	.+28     	; 0x644e <__vector_4+0x50>
    6432:	98 2f       	mov	r25, r24
    6434:	94 70       	andi	r25, 0x04	; 4
    6436:	21 f0       	breq	.+8      	; 0x6440 <__vector_4+0x42>
    6438:	80 91 45 05 	lds	r24, 0x0545
    643c:	82 60       	ori	r24, 0x02	; 2
    643e:	05 c0       	rjmp	.+10     	; 0x644a <__vector_4+0x4c>
    6440:	81 ff       	sbrs	r24, 1
    6442:	05 c0       	rjmp	.+10     	; 0x644e <__vector_4+0x50>
    6444:	80 91 45 05 	lds	r24, 0x0545
    6448:	88 60       	ori	r24, 0x08	; 8
    644a:	80 93 45 05 	sts	0x0545, r24
    644e:	ff 91       	pop	r31
    6450:	ef 91       	pop	r30
    6452:	bf 91       	pop	r27
    6454:	af 91       	pop	r26
    6456:	9f 91       	pop	r25
    6458:	8f 91       	pop	r24
    645a:	7f 91       	pop	r23
    645c:	6f 91       	pop	r22
    645e:	5f 91       	pop	r21
    6460:	4f 91       	pop	r20
    6462:	3f 91       	pop	r19
    6464:	2f 91       	pop	r18
    6466:	0f 90       	pop	r0
    6468:	0f be       	out	0x3f, r0	; 63
    646a:	0f 90       	pop	r0
    646c:	1f 90       	pop	r1
    646e:	18 95       	reti

00006470 <system_check_safety_door_ajar>:
    6470:	80 e0       	ldi	r24, 0x00	; 0
    6472:	08 95       	ret

00006474 <system_execute_startup>:
    6474:	1f 93       	push	r17
    6476:	cf 93       	push	r28
    6478:	df 93       	push	r29
    647a:	ec 01       	movw	r28, r24
    647c:	10 e0       	ldi	r17, 0x00	; 0
    647e:	be 01       	movw	r22, r28
    6480:	81 2f       	mov	r24, r17
    6482:	0e 94 e3 21 	call	0x43c6	; 0x43c6 <settings_read_startup_line>
    6486:	81 11       	cpse	r24, r1
    6488:	02 c0       	rjmp	.+4      	; 0x648e <system_execute_startup+0x1a>
    648a:	87 e0       	ldi	r24, 0x07	; 7
    648c:	09 c0       	rjmp	.+18     	; 0x64a0 <system_execute_startup+0x2c>
    648e:	88 81       	ld	r24, Y
    6490:	88 23       	and	r24, r24
    6492:	41 f0       	breq	.+16     	; 0x64a4 <system_execute_startup+0x30>
    6494:	ce 01       	movw	r24, r28
    6496:	0e 94 dc 2b 	call	0x57b8	; 0x57b8 <printString>
    649a:	ce 01       	movw	r24, r28
    649c:	0e 94 15 09 	call	0x122a	; 0x122a <gc_execute_line>
    64a0:	0e 94 44 2d 	call	0x5a88	; 0x5a88 <report_status_message>
    64a4:	1f 5f       	subi	r17, 0xFF	; 255
    64a6:	12 30       	cpi	r17, 0x02	; 2
    64a8:	51 f7       	brne	.-44     	; 0x647e <system_execute_startup+0xa>
    64aa:	df 91       	pop	r29
    64ac:	cf 91       	pop	r28
    64ae:	1f 91       	pop	r17
    64b0:	08 95       	ret

000064b2 <system_execute_line>:
    64b2:	8f 92       	push	r8
    64b4:	9f 92       	push	r9
    64b6:	af 92       	push	r10
    64b8:	bf 92       	push	r11
    64ba:	cf 92       	push	r12
    64bc:	df 92       	push	r13
    64be:	ef 92       	push	r14
    64c0:	ff 92       	push	r15
    64c2:	1f 93       	push	r17
    64c4:	cf 93       	push	r28
    64c6:	df 93       	push	r29
    64c8:	cd b7       	in	r28, 0x3d	; 61
    64ca:	de b7       	in	r29, 0x3e	; 62
    64cc:	29 97       	sbiw	r28, 0x09	; 9
    64ce:	0f b6       	in	r0, 0x3f	; 63
    64d0:	f8 94       	cli
    64d2:	de bf       	out	0x3e, r29	; 62
    64d4:	0f be       	out	0x3f, r0	; 63
    64d6:	cd bf       	out	0x3d, r28	; 61
    64d8:	7c 01       	movw	r14, r24
    64da:	81 e0       	ldi	r24, 0x01	; 1
    64dc:	89 87       	std	Y+9, r24	; 0x09
    64de:	f7 01       	movw	r30, r14
    64e0:	81 81       	ldd	r24, Z+1	; 0x01
    64e2:	83 34       	cpi	r24, 0x43	; 67
    64e4:	79 f0       	breq	.+30     	; 0x6504 <system_execute_line+0x52>
    64e6:	34 f4       	brge	.+12     	; 0x64f4 <system_execute_line+0x42>
    64e8:	88 23       	and	r24, r24
    64ea:	49 f0       	breq	.+18     	; 0x64fe <system_execute_line+0x4c>
    64ec:	84 32       	cpi	r24, 0x24	; 36
    64ee:	09 f0       	breq	.+2      	; 0x64f2 <system_execute_line+0x40>
    64f0:	40 c0       	rjmp	.+128    	; 0x6572 <system_execute_line+0xc0>
    64f2:	08 c0       	rjmp	.+16     	; 0x6504 <system_execute_line+0x52>
    64f4:	87 34       	cpi	r24, 0x47	; 71
    64f6:	31 f0       	breq	.+12     	; 0x6504 <system_execute_line+0x52>
    64f8:	88 35       	cpi	r24, 0x58	; 88
    64fa:	d9 f5       	brne	.+118    	; 0x6572 <system_execute_line+0xc0>
    64fc:	03 c0       	rjmp	.+6      	; 0x6504 <system_execute_line+0x52>
    64fe:	0e 94 ef 2d 	call	0x5bde	; 0x5bde <report_grbl_help>
    6502:	1a c0       	rjmp	.+52     	; 0x6538 <system_execute_line+0x86>
    6504:	f7 01       	movw	r30, r14
    6506:	92 81       	ldd	r25, Z+2	; 0x02
    6508:	91 11       	cpse	r25, r1
    650a:	38 c1       	rjmp	.+624    	; 0x677c <system_execute_line+0x2ca>
    650c:	83 34       	cpi	r24, 0x43	; 67
    650e:	b1 f0       	breq	.+44     	; 0x653c <system_execute_line+0x8a>
    6510:	1c f4       	brge	.+6      	; 0x6518 <system_execute_line+0x66>
    6512:	84 32       	cpi	r24, 0x24	; 36
    6514:	31 f0       	breq	.+12     	; 0x6522 <system_execute_line+0x70>
    6516:	10 c0       	rjmp	.+32     	; 0x6538 <system_execute_line+0x86>
    6518:	87 34       	cpi	r24, 0x47	; 71
    651a:	61 f0       	breq	.+24     	; 0x6534 <system_execute_line+0x82>
    651c:	88 35       	cpi	r24, 0x58	; 88
    651e:	f9 f0       	breq	.+62     	; 0x655e <system_execute_line+0xac>
    6520:	0b c0       	rjmp	.+22     	; 0x6538 <system_execute_line+0x86>
    6522:	80 91 28 05 	lds	r24, 0x0528
    6526:	88 71       	andi	r24, 0x18	; 24
    6528:	11 f0       	breq	.+4      	; 0x652e <system_execute_line+0x7c>
    652a:	88 e0       	ldi	r24, 0x08	; 8
    652c:	28 c1       	rjmp	.+592    	; 0x677e <system_execute_line+0x2cc>
    652e:	0e 94 f3 2d 	call	0x5be6	; 0x5be6 <report_grbl_settings>
    6532:	02 c0       	rjmp	.+4      	; 0x6538 <system_execute_line+0x86>
    6534:	0e 94 08 30 	call	0x6010	; 0x6010 <report_gcode_modes>
    6538:	80 e0       	ldi	r24, 0x00	; 0
    653a:	21 c1       	rjmp	.+578    	; 0x677e <system_execute_line+0x2cc>
    653c:	80 91 28 05 	lds	r24, 0x0528
    6540:	82 30       	cpi	r24, 0x02	; 2
    6542:	21 f4       	brne	.+8      	; 0x654c <system_execute_line+0x9a>
    6544:	0e 94 d2 08 	call	0x11a4	; 0x11a4 <mc_reset>
    6548:	85 e0       	ldi	r24, 0x05	; 5
    654a:	06 c0       	rjmp	.+12     	; 0x6558 <system_execute_line+0xa6>
    654c:	81 11       	cpse	r24, r1
    654e:	ed cf       	rjmp	.-38     	; 0x652a <system_execute_line+0x78>
    6550:	82 e0       	ldi	r24, 0x02	; 2
    6552:	80 93 28 05 	sts	0x0528, r24
    6556:	84 e0       	ldi	r24, 0x04	; 4
    6558:	0e 94 bc 2d 	call	0x5b78	; 0x5b78 <report_feedback_message>
    655c:	ed cf       	rjmp	.-38     	; 0x6538 <system_execute_line+0x86>
    655e:	80 91 28 05 	lds	r24, 0x0528
    6562:	81 30       	cpi	r24, 0x01	; 1
    6564:	49 f7       	brne	.-46     	; 0x6538 <system_execute_line+0x86>
    6566:	83 e0       	ldi	r24, 0x03	; 3
    6568:	0e 94 bc 2d 	call	0x5b78	; 0x5b78 <report_feedback_message>
    656c:	10 92 28 05 	sts	0x0528, r1
    6570:	e3 cf       	rjmp	.-58     	; 0x6538 <system_execute_line+0x86>
    6572:	90 91 28 05 	lds	r25, 0x0528
    6576:	92 30       	cpi	r25, 0x02	; 2
    6578:	c0 f6       	brcc	.-80     	; 0x652a <system_execute_line+0x78>
    657a:	89 34       	cpi	r24, 0x49	; 73
    657c:	59 f1       	breq	.+86     	; 0x65d4 <system_execute_line+0x122>
    657e:	2c f4       	brge	.+10     	; 0x658a <system_execute_line+0xd8>
    6580:	83 32       	cpi	r24, 0x23	; 35
    6582:	51 f0       	breq	.+20     	; 0x6598 <system_execute_line+0xe6>
    6584:	88 34       	cpi	r24, 0x48	; 72
    6586:	89 f0       	breq	.+34     	; 0x65aa <system_execute_line+0xf8>
    6588:	8a c0       	rjmp	.+276    	; 0x669e <system_execute_line+0x1ec>
    658a:	8e 34       	cpi	r24, 0x4E	; 78
    658c:	09 f4       	brne	.+2      	; 0x6590 <system_execute_line+0xde>
    658e:	6a c0       	rjmp	.+212    	; 0x6664 <system_execute_line+0x1b2>
    6590:	82 35       	cpi	r24, 0x52	; 82
    6592:	09 f4       	brne	.+2      	; 0x6596 <system_execute_line+0xe4>
    6594:	40 c0       	rjmp	.+128    	; 0x6616 <system_execute_line+0x164>
    6596:	83 c0       	rjmp	.+262    	; 0x669e <system_execute_line+0x1ec>
    6598:	82 e0       	ldi	r24, 0x02	; 2
    659a:	89 87       	std	Y+9, r24	; 0x09
    659c:	f7 01       	movw	r30, r14
    659e:	82 81       	ldd	r24, Z+2	; 0x02
    65a0:	81 11       	cpse	r24, r1
    65a2:	ec c0       	rjmp	.+472    	; 0x677c <system_execute_line+0x2ca>
    65a4:	0e 94 77 2f 	call	0x5eee	; 0x5eee <report_ngc_parameters>
    65a8:	c7 cf       	rjmp	.-114    	; 0x6538 <system_execute_line+0x86>
    65aa:	80 91 bd 06 	lds	r24, 0x06BD
    65ae:	84 ff       	sbrs	r24, 4
    65b0:	e3 c0       	rjmp	.+454    	; 0x6778 <system_execute_line+0x2c6>
    65b2:	84 e0       	ldi	r24, 0x04	; 4
    65b4:	80 93 28 05 	sts	0x0528, r24
    65b8:	0e 94 21 08 	call	0x1042	; 0x1042 <mc_homing_cycle>
    65bc:	80 91 27 05 	lds	r24, 0x0527
    65c0:	81 11       	cpse	r24, r1
    65c2:	ba cf       	rjmp	.-140    	; 0x6538 <system_execute_line+0x86>
    65c4:	10 92 28 05 	sts	0x0528, r1
    65c8:	0e 94 b6 16 	call	0x2d6c	; 0x2d6c <st_go_idle>
    65cc:	c7 01       	movw	r24, r14
    65ce:	0e 94 3a 32 	call	0x6474	; 0x6474 <system_execute_startup>
    65d2:	b2 cf       	rjmp	.-156    	; 0x6538 <system_execute_line+0x86>
    65d4:	82 e0       	ldi	r24, 0x02	; 2
    65d6:	89 87       	std	Y+9, r24	; 0x09
    65d8:	f7 01       	movw	r30, r14
    65da:	82 81       	ldd	r24, Z+2	; 0x02
    65dc:	81 11       	cpse	r24, r1
    65de:	07 c0       	rjmp	.+14     	; 0x65ee <system_execute_line+0x13c>
    65e0:	c7 01       	movw	r24, r14
    65e2:	0e 94 00 22 	call	0x4400	; 0x4400 <settings_read_build_info>
    65e6:	c7 01       	movw	r24, r14
    65e8:	0e 94 df 30 	call	0x61be	; 0x61be <report_build_info>
    65ec:	a5 cf       	rjmp	.-182    	; 0x6538 <system_execute_line+0x86>
    65ee:	8d 33       	cpi	r24, 0x3D	; 61
    65f0:	09 f0       	breq	.+2      	; 0x65f4 <system_execute_line+0x142>
    65f2:	c4 c0       	rjmp	.+392    	; 0x677c <system_execute_line+0x2ca>
    65f4:	83 e0       	ldi	r24, 0x03	; 3
    65f6:	f7 01       	movw	r30, r14
    65f8:	e8 0f       	add	r30, r24
    65fa:	f1 1d       	adc	r31, r1
    65fc:	90 81       	ld	r25, Z
    65fe:	df 01       	movw	r26, r30
    6600:	13 97       	sbiw	r26, 0x03	; 3
    6602:	9c 93       	st	X, r25
    6604:	8f 5f       	subi	r24, 0xFF	; 255
    6606:	90 81       	ld	r25, Z
    6608:	91 11       	cpse	r25, r1
    660a:	f5 cf       	rjmp	.-22     	; 0x65f6 <system_execute_line+0x144>
    660c:	89 87       	std	Y+9, r24	; 0x09
    660e:	c7 01       	movw	r24, r14
    6610:	0e 94 bd 20 	call	0x417a	; 0x417a <settings_store_build_info>
    6614:	91 cf       	rjmp	.-222    	; 0x6538 <system_execute_line+0x86>
    6616:	f7 01       	movw	r30, r14
    6618:	82 81       	ldd	r24, Z+2	; 0x02
    661a:	83 35       	cpi	r24, 0x53	; 83
    661c:	09 f0       	breq	.+2      	; 0x6620 <system_execute_line+0x16e>
    661e:	ae c0       	rjmp	.+348    	; 0x677c <system_execute_line+0x2ca>
    6620:	83 81       	ldd	r24, Z+3	; 0x03
    6622:	84 35       	cpi	r24, 0x54	; 84
    6624:	09 f0       	breq	.+2      	; 0x6628 <system_execute_line+0x176>
    6626:	aa c0       	rjmp	.+340    	; 0x677c <system_execute_line+0x2ca>
    6628:	84 81       	ldd	r24, Z+4	; 0x04
    662a:	8d 33       	cpi	r24, 0x3D	; 61
    662c:	09 f0       	breq	.+2      	; 0x6630 <system_execute_line+0x17e>
    662e:	a6 c0       	rjmp	.+332    	; 0x677c <system_execute_line+0x2ca>
    6630:	86 81       	ldd	r24, Z+6	; 0x06
    6632:	81 11       	cpse	r24, r1
    6634:	a3 c0       	rjmp	.+326    	; 0x677c <system_execute_line+0x2ca>
    6636:	85 e0       	ldi	r24, 0x05	; 5
    6638:	89 87       	std	Y+9, r24	; 0x09
    663a:	85 81       	ldd	r24, Z+5	; 0x05
    663c:	84 32       	cpi	r24, 0x24	; 36
    663e:	39 f0       	breq	.+14     	; 0x664e <system_execute_line+0x19c>
    6640:	8a 32       	cpi	r24, 0x2A	; 42
    6642:	39 f0       	breq	.+14     	; 0x6652 <system_execute_line+0x1a0>
    6644:	83 32       	cpi	r24, 0x23	; 35
    6646:	09 f0       	breq	.+2      	; 0x664a <system_execute_line+0x198>
    6648:	99 c0       	rjmp	.+306    	; 0x677c <system_execute_line+0x2ca>
    664a:	82 e0       	ldi	r24, 0x02	; 2
    664c:	03 c0       	rjmp	.+6      	; 0x6654 <system_execute_line+0x1a2>
    664e:	81 e0       	ldi	r24, 0x01	; 1
    6650:	01 c0       	rjmp	.+2      	; 0x6654 <system_execute_line+0x1a2>
    6652:	8f ef       	ldi	r24, 0xFF	; 255
    6654:	0e 94 da 20 	call	0x41b4	; 0x41b4 <settings_restore>
    6658:	88 e0       	ldi	r24, 0x08	; 8
    665a:	0e 94 bc 2d 	call	0x5b78	; 0x5b78 <report_feedback_message>
    665e:	0e 94 d2 08 	call	0x11a4	; 0x11a4 <mc_reset>
    6662:	6a cf       	rjmp	.-300    	; 0x6538 <system_execute_line+0x86>
    6664:	82 e0       	ldi	r24, 0x02	; 2
    6666:	89 87       	std	Y+9, r24	; 0x09
    6668:	f7 01       	movw	r30, r14
    666a:	82 81       	ldd	r24, Z+2	; 0x02
    666c:	81 11       	cpse	r24, r1
    666e:	13 c0       	rjmp	.+38     	; 0x6696 <system_execute_line+0x1e4>
    6670:	10 e0       	ldi	r17, 0x00	; 0
    6672:	b7 01       	movw	r22, r14
    6674:	81 2f       	mov	r24, r17
    6676:	0e 94 e3 21 	call	0x43c6	; 0x43c6 <settings_read_startup_line>
    667a:	81 11       	cpse	r24, r1
    667c:	04 c0       	rjmp	.+8      	; 0x6686 <system_execute_line+0x1d4>
    667e:	87 e0       	ldi	r24, 0x07	; 7
    6680:	0e 94 44 2d 	call	0x5a88	; 0x5a88 <report_status_message>
    6684:	04 c0       	rjmp	.+8      	; 0x668e <system_execute_line+0x1dc>
    6686:	b7 01       	movw	r22, r14
    6688:	81 2f       	mov	r24, r17
    668a:	0e 94 c5 30 	call	0x618a	; 0x618a <report_startup_line>
    668e:	1f 5f       	subi	r17, 0xFF	; 255
    6690:	12 30       	cpi	r17, 0x02	; 2
    6692:	79 f7       	brne	.-34     	; 0x6672 <system_execute_line+0x1c0>
    6694:	51 cf       	rjmp	.-350    	; 0x6538 <system_execute_line+0x86>
    6696:	91 11       	cpse	r25, r1
    6698:	48 cf       	rjmp	.-368    	; 0x652a <system_execute_line+0x78>
    669a:	11 e0       	ldi	r17, 0x01	; 1
    669c:	01 c0       	rjmp	.+2      	; 0x66a0 <system_execute_line+0x1ee>
    669e:	10 e0       	ldi	r17, 0x00	; 0
    66a0:	ae 01       	movw	r20, r28
    66a2:	4b 5f       	subi	r20, 0xFB	; 251
    66a4:	5f 4f       	sbci	r21, 0xFF	; 255
    66a6:	be 01       	movw	r22, r28
    66a8:	67 5f       	subi	r22, 0xF7	; 247
    66aa:	7f 4f       	sbci	r23, 0xFF	; 255
    66ac:	c7 01       	movw	r24, r14
    66ae:	0e 94 28 28 	call	0x5050	; 0x5050 <read_float>
    66b2:	81 11       	cpse	r24, r1
    66b4:	02 c0       	rjmp	.+4      	; 0x66ba <system_execute_line+0x208>
    66b6:	82 e0       	ldi	r24, 0x02	; 2
    66b8:	62 c0       	rjmp	.+196    	; 0x677e <system_execute_line+0x2cc>
    66ba:	89 85       	ldd	r24, Y+9	; 0x09
    66bc:	21 e0       	ldi	r18, 0x01	; 1
    66be:	28 0f       	add	r18, r24
    66c0:	29 87       	std	Y+9, r18	; 0x09
    66c2:	f7 01       	movw	r30, r14
    66c4:	e8 0f       	add	r30, r24
    66c6:	f1 1d       	adc	r31, r1
    66c8:	80 81       	ld	r24, Z
    66ca:	8d 33       	cpi	r24, 0x3D	; 61
    66cc:	09 f0       	breq	.+2      	; 0x66d0 <system_execute_line+0x21e>
    66ce:	56 c0       	rjmp	.+172    	; 0x677c <system_execute_line+0x2ca>
    66d0:	11 23       	and	r17, r17
    66d2:	21 f1       	breq	.+72     	; 0x671c <system_execute_line+0x26a>
    66d4:	82 2f       	mov	r24, r18
    66d6:	90 e0       	ldi	r25, 0x00	; 0
    66d8:	e2 2f       	mov	r30, r18
    66da:	f0 e0       	ldi	r31, 0x00	; 0
    66dc:	d7 01       	movw	r26, r14
    66de:	ae 0f       	add	r26, r30
    66e0:	bf 1f       	adc	r27, r31
    66e2:	3c 91       	ld	r19, X
    66e4:	e8 1b       	sub	r30, r24
    66e6:	f9 0b       	sbc	r31, r25
    66e8:	ee 0d       	add	r30, r14
    66ea:	ff 1d       	adc	r31, r15
    66ec:	30 83       	st	Z, r19
    66ee:	2f 5f       	subi	r18, 0xFF	; 255
    66f0:	3c 91       	ld	r19, X
    66f2:	31 11       	cpse	r19, r1
    66f4:	f1 cf       	rjmp	.-30     	; 0x66d8 <system_execute_line+0x226>
    66f6:	29 87       	std	Y+9, r18	; 0x09
    66f8:	c7 01       	movw	r24, r14
    66fa:	0e 94 15 09 	call	0x122a	; 0x122a <gc_execute_line>
    66fe:	81 11       	cpse	r24, r1
    6700:	3e c0       	rjmp	.+124    	; 0x677e <system_execute_line+0x2cc>
    6702:	6d 81       	ldd	r22, Y+5	; 0x05
    6704:	7e 81       	ldd	r23, Y+6	; 0x06
    6706:	8f 81       	ldd	r24, Y+7	; 0x07
    6708:	98 85       	ldd	r25, Y+8	; 0x08
    670a:	0e 94 eb 37 	call	0x6fd6	; 0x6fd6 <trunc>
    670e:	0e 94 53 35 	call	0x6aa6	; 0x6aa6 <__fixunssfsi>
    6712:	86 2f       	mov	r24, r22
    6714:	b7 01       	movw	r22, r14
    6716:	0e 94 b4 20 	call	0x4168	; 0x4168 <settings_store_startup_line>
    671a:	0e cf       	rjmp	.-484    	; 0x6538 <system_execute_line+0x86>
    671c:	ae 01       	movw	r20, r28
    671e:	4f 5f       	subi	r20, 0xFF	; 255
    6720:	5f 4f       	sbci	r21, 0xFF	; 255
    6722:	be 01       	movw	r22, r28
    6724:	67 5f       	subi	r22, 0xF7	; 247
    6726:	7f 4f       	sbci	r23, 0xFF	; 255
    6728:	c7 01       	movw	r24, r14
    672a:	0e 94 28 28 	call	0x5050	; 0x5050 <read_float>
    672e:	88 23       	and	r24, r24
    6730:	11 f2       	breq	.-124    	; 0x66b6 <system_execute_line+0x204>
    6732:	89 85       	ldd	r24, Y+9	; 0x09
    6734:	f7 01       	movw	r30, r14
    6736:	e8 0f       	add	r30, r24
    6738:	f1 1d       	adc	r31, r1
    673a:	80 81       	ld	r24, Z
    673c:	81 11       	cpse	r24, r1
    673e:	1e c0       	rjmp	.+60     	; 0x677c <system_execute_line+0x2ca>
    6740:	cd 80       	ldd	r12, Y+5	; 0x05
    6742:	de 80       	ldd	r13, Y+6	; 0x06
    6744:	ef 80       	ldd	r14, Y+7	; 0x07
    6746:	f8 84       	ldd	r15, Y+8	; 0x08
    6748:	20 e0       	ldi	r18, 0x00	; 0
    674a:	30 e0       	ldi	r19, 0x00	; 0
    674c:	4f e7       	ldi	r20, 0x7F	; 127
    674e:	53 e4       	ldi	r21, 0x43	; 67
    6750:	c7 01       	movw	r24, r14
    6752:	b6 01       	movw	r22, r12
    6754:	0e 94 e2 36 	call	0x6dc4	; 0x6dc4 <__gesf2>
    6758:	18 16       	cp	r1, r24
    675a:	84 f0       	brlt	.+32     	; 0x677c <system_execute_line+0x2ca>
    675c:	89 80       	ldd	r8, Y+1	; 0x01
    675e:	9a 80       	ldd	r9, Y+2	; 0x02
    6760:	ab 80       	ldd	r10, Y+3	; 0x03
    6762:	bc 80       	ldd	r11, Y+4	; 0x04
    6764:	c7 01       	movw	r24, r14
    6766:	b6 01       	movw	r22, r12
    6768:	0e 94 53 35 	call	0x6aa6	; 0x6aa6 <__fixunssfsi>
    676c:	86 2f       	mov	r24, r22
    676e:	b5 01       	movw	r22, r10
    6770:	a4 01       	movw	r20, r8
    6772:	0e 94 4a 22 	call	0x4494	; 0x4494 <settings_store_global_setting>
    6776:	03 c0       	rjmp	.+6      	; 0x677e <system_execute_line+0x2cc>
    6778:	85 e0       	ldi	r24, 0x05	; 5
    677a:	01 c0       	rjmp	.+2      	; 0x677e <system_execute_line+0x2cc>
    677c:	83 e0       	ldi	r24, 0x03	; 3
    677e:	29 96       	adiw	r28, 0x09	; 9
    6780:	0f b6       	in	r0, 0x3f	; 63
    6782:	f8 94       	cli
    6784:	de bf       	out	0x3e, r29	; 62
    6786:	0f be       	out	0x3f, r0	; 63
    6788:	cd bf       	out	0x3d, r28	; 61
    678a:	df 91       	pop	r29
    678c:	cf 91       	pop	r28
    678e:	1f 91       	pop	r17
    6790:	ff 90       	pop	r15
    6792:	ef 90       	pop	r14
    6794:	df 90       	pop	r13
    6796:	cf 90       	pop	r12
    6798:	bf 90       	pop	r11
    679a:	af 90       	pop	r10
    679c:	9f 90       	pop	r9
    679e:	8f 90       	pop	r8
    67a0:	08 95       	ret

000067a2 <system_convert_axis_steps_to_mpos>:
    67a2:	cf 93       	push	r28
    67a4:	df 93       	push	r29
    67a6:	24 e0       	ldi	r18, 0x04	; 4
    67a8:	62 9f       	mul	r22, r18
    67aa:	e0 01       	movw	r28, r0
    67ac:	11 24       	eor	r1, r1
    67ae:	8c 0f       	add	r24, r28
    67b0:	9d 1f       	adc	r25, r29
    67b2:	fc 01       	movw	r30, r24
    67b4:	60 81       	ld	r22, Z
    67b6:	71 81       	ldd	r23, Z+1	; 0x01
    67b8:	82 81       	ldd	r24, Z+2	; 0x02
    67ba:	93 81       	ldd	r25, Z+3	; 0x03
    67bc:	0e 94 81 35 	call	0x6b02	; 0x6b02 <__floatsisf>
    67c0:	c0 58       	subi	r28, 0x80	; 128
    67c2:	d9 4f       	sbci	r29, 0xF9	; 249
    67c4:	28 81       	ld	r18, Y
    67c6:	39 81       	ldd	r19, Y+1	; 0x01
    67c8:	4a 81       	ldd	r20, Y+2	; 0x02
    67ca:	5b 81       	ldd	r21, Y+3	; 0x03
    67cc:	0e 94 e6 34 	call	0x69cc	; 0x69cc <__divsf3>
    67d0:	df 91       	pop	r29
    67d2:	cf 91       	pop	r28
    67d4:	08 95       	ret

000067d6 <system_convert_array_steps_to_mpos>:
    67d6:	ff 92       	push	r15
    67d8:	0f 93       	push	r16
    67da:	1f 93       	push	r17
    67dc:	cf 93       	push	r28
    67de:	df 93       	push	r29
    67e0:	8b 01       	movw	r16, r22
    67e2:	ec 01       	movw	r28, r24
    67e4:	f1 2c       	mov	r15, r1
    67e6:	6f 2d       	mov	r22, r15
    67e8:	c8 01       	movw	r24, r16
    67ea:	0e 94 d1 33 	call	0x67a2	; 0x67a2 <system_convert_axis_steps_to_mpos>
    67ee:	69 93       	st	Y+, r22
    67f0:	79 93       	st	Y+, r23
    67f2:	89 93       	st	Y+, r24
    67f4:	99 93       	st	Y+, r25
    67f6:	f3 94       	inc	r15
    67f8:	83 e0       	ldi	r24, 0x03	; 3
    67fa:	f8 12       	cpse	r15, r24
    67fc:	f4 cf       	rjmp	.-24     	; 0x67e6 <system_convert_array_steps_to_mpos+0x10>
    67fe:	df 91       	pop	r29
    6800:	cf 91       	pop	r28
    6802:	1f 91       	pop	r17
    6804:	0f 91       	pop	r16
    6806:	ff 90       	pop	r15
    6808:	08 95       	ret

0000680a <__subsf3>:
    680a:	50 58       	subi	r21, 0x80	; 128

0000680c <__addsf3>:
    680c:	bb 27       	eor	r27, r27
    680e:	aa 27       	eor	r26, r26
    6810:	0e d0       	rcall	.+28     	; 0x682e <__addsf3x>
    6812:	76 c2       	rjmp	.+1260   	; 0x6d00 <__fp_round>
    6814:	3f d2       	rcall	.+1150   	; 0x6c94 <__fp_pscA>
    6816:	30 f0       	brcs	.+12     	; 0x6824 <__addsf3+0x18>
    6818:	44 d2       	rcall	.+1160   	; 0x6ca2 <__fp_pscB>
    681a:	20 f0       	brcs	.+8      	; 0x6824 <__addsf3+0x18>
    681c:	31 f4       	brne	.+12     	; 0x682a <__addsf3+0x1e>
    681e:	9f 3f       	cpi	r25, 0xFF	; 255
    6820:	11 f4       	brne	.+4      	; 0x6826 <__addsf3+0x1a>
    6822:	1e f4       	brtc	.+6      	; 0x682a <__addsf3+0x1e>
    6824:	0f c2       	rjmp	.+1054   	; 0x6c44 <__fp_nan>
    6826:	0e f4       	brtc	.+2      	; 0x682a <__addsf3+0x1e>
    6828:	e0 95       	com	r30
    682a:	e7 fb       	bst	r30, 7
    682c:	dc c1       	rjmp	.+952    	; 0x6be6 <__fp_inf>

0000682e <__addsf3x>:
    682e:	e9 2f       	mov	r30, r25
    6830:	89 d2       	rcall	.+1298   	; 0x6d44 <__fp_split3>
    6832:	80 f3       	brcs	.-32     	; 0x6814 <__addsf3+0x8>
    6834:	ba 17       	cp	r27, r26
    6836:	62 07       	cpc	r22, r18
    6838:	73 07       	cpc	r23, r19
    683a:	84 07       	cpc	r24, r20
    683c:	95 07       	cpc	r25, r21
    683e:	18 f0       	brcs	.+6      	; 0x6846 <__addsf3x+0x18>
    6840:	71 f4       	brne	.+28     	; 0x685e <__addsf3x+0x30>
    6842:	9e f5       	brtc	.+102    	; 0x68aa <__addsf3x+0x7c>
    6844:	b8 c2       	rjmp	.+1392   	; 0x6db6 <__fp_zero>
    6846:	0e f4       	brtc	.+2      	; 0x684a <__addsf3x+0x1c>
    6848:	e0 95       	com	r30
    684a:	0b 2e       	mov	r0, r27
    684c:	ba 2f       	mov	r27, r26
    684e:	a0 2d       	mov	r26, r0
    6850:	0b 01       	movw	r0, r22
    6852:	b9 01       	movw	r22, r18
    6854:	90 01       	movw	r18, r0
    6856:	0c 01       	movw	r0, r24
    6858:	ca 01       	movw	r24, r20
    685a:	a0 01       	movw	r20, r0
    685c:	11 24       	eor	r1, r1
    685e:	ff 27       	eor	r31, r31
    6860:	59 1b       	sub	r21, r25
    6862:	99 f0       	breq	.+38     	; 0x688a <__addsf3x+0x5c>
    6864:	59 3f       	cpi	r21, 0xF9	; 249
    6866:	50 f4       	brcc	.+20     	; 0x687c <__addsf3x+0x4e>
    6868:	50 3e       	cpi	r21, 0xE0	; 224
    686a:	68 f1       	brcs	.+90     	; 0x68c6 <__addsf3x+0x98>
    686c:	1a 16       	cp	r1, r26
    686e:	f0 40       	sbci	r31, 0x00	; 0
    6870:	a2 2f       	mov	r26, r18
    6872:	23 2f       	mov	r18, r19
    6874:	34 2f       	mov	r19, r20
    6876:	44 27       	eor	r20, r20
    6878:	58 5f       	subi	r21, 0xF8	; 248
    687a:	f3 cf       	rjmp	.-26     	; 0x6862 <__addsf3x+0x34>
    687c:	46 95       	lsr	r20
    687e:	37 95       	ror	r19
    6880:	27 95       	ror	r18
    6882:	a7 95       	ror	r26
    6884:	f0 40       	sbci	r31, 0x00	; 0
    6886:	53 95       	inc	r21
    6888:	c9 f7       	brne	.-14     	; 0x687c <__addsf3x+0x4e>
    688a:	7e f4       	brtc	.+30     	; 0x68aa <__addsf3x+0x7c>
    688c:	1f 16       	cp	r1, r31
    688e:	ba 0b       	sbc	r27, r26
    6890:	62 0b       	sbc	r22, r18
    6892:	73 0b       	sbc	r23, r19
    6894:	84 0b       	sbc	r24, r20
    6896:	ba f0       	brmi	.+46     	; 0x68c6 <__addsf3x+0x98>
    6898:	91 50       	subi	r25, 0x01	; 1
    689a:	a1 f0       	breq	.+40     	; 0x68c4 <__addsf3x+0x96>
    689c:	ff 0f       	add	r31, r31
    689e:	bb 1f       	adc	r27, r27
    68a0:	66 1f       	adc	r22, r22
    68a2:	77 1f       	adc	r23, r23
    68a4:	88 1f       	adc	r24, r24
    68a6:	c2 f7       	brpl	.-16     	; 0x6898 <__addsf3x+0x6a>
    68a8:	0e c0       	rjmp	.+28     	; 0x68c6 <__addsf3x+0x98>
    68aa:	ba 0f       	add	r27, r26
    68ac:	62 1f       	adc	r22, r18
    68ae:	73 1f       	adc	r23, r19
    68b0:	84 1f       	adc	r24, r20
    68b2:	48 f4       	brcc	.+18     	; 0x68c6 <__addsf3x+0x98>
    68b4:	87 95       	ror	r24
    68b6:	77 95       	ror	r23
    68b8:	67 95       	ror	r22
    68ba:	b7 95       	ror	r27
    68bc:	f7 95       	ror	r31
    68be:	9e 3f       	cpi	r25, 0xFE	; 254
    68c0:	08 f0       	brcs	.+2      	; 0x68c4 <__addsf3x+0x96>
    68c2:	b3 cf       	rjmp	.-154    	; 0x682a <__addsf3+0x1e>
    68c4:	93 95       	inc	r25
    68c6:	88 0f       	add	r24, r24
    68c8:	08 f0       	brcs	.+2      	; 0x68cc <__addsf3x+0x9e>
    68ca:	99 27       	eor	r25, r25
    68cc:	ee 0f       	add	r30, r30
    68ce:	97 95       	ror	r25
    68d0:	87 95       	ror	r24
    68d2:	08 95       	ret
    68d4:	df d1       	rcall	.+958    	; 0x6c94 <__fp_pscA>
    68d6:	58 f0       	brcs	.+22     	; 0x68ee <__addsf3x+0xc0>
    68d8:	80 e8       	ldi	r24, 0x80	; 128
    68da:	91 e0       	ldi	r25, 0x01	; 1
    68dc:	09 f4       	brne	.+2      	; 0x68e0 <__addsf3x+0xb2>
    68de:	9e ef       	ldi	r25, 0xFE	; 254
    68e0:	e0 d1       	rcall	.+960    	; 0x6ca2 <__fp_pscB>
    68e2:	28 f0       	brcs	.+10     	; 0x68ee <__addsf3x+0xc0>
    68e4:	40 e8       	ldi	r20, 0x80	; 128
    68e6:	51 e0       	ldi	r21, 0x01	; 1
    68e8:	59 f4       	brne	.+22     	; 0x6900 <atan2+0xe>
    68ea:	5e ef       	ldi	r21, 0xFE	; 254
    68ec:	09 c0       	rjmp	.+18     	; 0x6900 <atan2+0xe>
    68ee:	aa c1       	rjmp	.+852    	; 0x6c44 <__fp_nan>
    68f0:	62 c2       	rjmp	.+1220   	; 0x6db6 <__fp_zero>

000068f2 <atan2>:
    68f2:	e9 2f       	mov	r30, r25
    68f4:	e0 78       	andi	r30, 0x80	; 128
    68f6:	26 d2       	rcall	.+1100   	; 0x6d44 <__fp_split3>
    68f8:	68 f3       	brcs	.-38     	; 0x68d4 <__addsf3x+0xa6>
    68fa:	09 2e       	mov	r0, r25
    68fc:	05 2a       	or	r0, r21
    68fe:	c1 f3       	breq	.-16     	; 0x68f0 <__addsf3x+0xc2>
    6900:	26 17       	cp	r18, r22
    6902:	37 07       	cpc	r19, r23
    6904:	48 07       	cpc	r20, r24
    6906:	59 07       	cpc	r21, r25
    6908:	38 f0       	brcs	.+14     	; 0x6918 <atan2+0x26>
    690a:	0e 2e       	mov	r0, r30
    690c:	07 f8       	bld	r0, 7
    690e:	e0 25       	eor	r30, r0
    6910:	69 f0       	breq	.+26     	; 0x692c <atan2+0x3a>
    6912:	e0 25       	eor	r30, r0
    6914:	e0 64       	ori	r30, 0x40	; 64
    6916:	0a c0       	rjmp	.+20     	; 0x692c <atan2+0x3a>
    6918:	ef 63       	ori	r30, 0x3F	; 63
    691a:	07 f8       	bld	r0, 7
    691c:	00 94       	com	r0
    691e:	07 fa       	bst	r0, 7
    6920:	db 01       	movw	r26, r22
    6922:	b9 01       	movw	r22, r18
    6924:	9d 01       	movw	r18, r26
    6926:	dc 01       	movw	r26, r24
    6928:	ca 01       	movw	r24, r20
    692a:	ad 01       	movw	r20, r26
    692c:	ef 93       	push	r30
    692e:	5d d0       	rcall	.+186    	; 0x69ea <__divsf3_pse>
    6930:	e7 d1       	rcall	.+974    	; 0x6d00 <__fp_round>
    6932:	0a d0       	rcall	.+20     	; 0x6948 <atan>
    6934:	5f 91       	pop	r21
    6936:	55 23       	and	r21, r21
    6938:	31 f0       	breq	.+12     	; 0x6946 <atan2+0x54>
    693a:	2b ed       	ldi	r18, 0xDB	; 219
    693c:	3f e0       	ldi	r19, 0x0F	; 15
    693e:	49 e4       	ldi	r20, 0x49	; 73
    6940:	50 fd       	sbrc	r21, 0
    6942:	49 ec       	ldi	r20, 0xC9	; 201
    6944:	63 cf       	rjmp	.-314    	; 0x680c <__addsf3>
    6946:	08 95       	ret

00006948 <atan>:
    6948:	df 93       	push	r29
    694a:	dd 27       	eor	r29, r29
    694c:	b9 2f       	mov	r27, r25
    694e:	bf 77       	andi	r27, 0x7F	; 127
    6950:	40 e8       	ldi	r20, 0x80	; 128
    6952:	5f e3       	ldi	r21, 0x3F	; 63
    6954:	16 16       	cp	r1, r22
    6956:	17 06       	cpc	r1, r23
    6958:	48 07       	cpc	r20, r24
    695a:	5b 07       	cpc	r21, r27
    695c:	10 f4       	brcc	.+4      	; 0x6962 <atan+0x1a>
    695e:	d9 2f       	mov	r29, r25
    6960:	35 d2       	rcall	.+1130   	; 0x6dcc <inverse>
    6962:	9f 93       	push	r25
    6964:	8f 93       	push	r24
    6966:	7f 93       	push	r23
    6968:	6f 93       	push	r22
    696a:	32 d3       	rcall	.+1636   	; 0x6fd0 <square>
    696c:	e6 e2       	ldi	r30, 0x26	; 38
    696e:	f1 e0       	ldi	r31, 0x01	; 1
    6970:	6c d1       	rcall	.+728    	; 0x6c4a <__fp_powser>
    6972:	c6 d1       	rcall	.+908    	; 0x6d00 <__fp_round>
    6974:	2f 91       	pop	r18
    6976:	3f 91       	pop	r19
    6978:	4f 91       	pop	r20
    697a:	5f 91       	pop	r21
    697c:	6a d2       	rcall	.+1236   	; 0x6e52 <__mulsf3x>
    697e:	dd 23       	and	r29, r29
    6980:	49 f0       	breq	.+18     	; 0x6994 <atan+0x4c>
    6982:	90 58       	subi	r25, 0x80	; 128
    6984:	a2 ea       	ldi	r26, 0xA2	; 162
    6986:	2a ed       	ldi	r18, 0xDA	; 218
    6988:	3f e0       	ldi	r19, 0x0F	; 15
    698a:	49 ec       	ldi	r20, 0xC9	; 201
    698c:	5f e3       	ldi	r21, 0x3F	; 63
    698e:	d0 78       	andi	r29, 0x80	; 128
    6990:	5d 27       	eor	r21, r29
    6992:	4d df       	rcall	.-358    	; 0x682e <__addsf3x>
    6994:	df 91       	pop	r29
    6996:	b4 c1       	rjmp	.+872    	; 0x6d00 <__fp_round>

00006998 <ceil>:
    6998:	f7 d1       	rcall	.+1006   	; 0x6d88 <__fp_trunc>
    699a:	80 f0       	brcs	.+32     	; 0x69bc <ceil+0x24>
    699c:	9f 37       	cpi	r25, 0x7F	; 127
    699e:	40 f4       	brcc	.+16     	; 0x69b0 <ceil+0x18>
    69a0:	91 11       	cpse	r25, r1
    69a2:	0e f4       	brtc	.+2      	; 0x69a6 <ceil+0xe>
    69a4:	09 c2       	rjmp	.+1042   	; 0x6db8 <__fp_szero>
    69a6:	60 e0       	ldi	r22, 0x00	; 0
    69a8:	70 e0       	ldi	r23, 0x00	; 0
    69aa:	80 e8       	ldi	r24, 0x80	; 128
    69ac:	9f e3       	ldi	r25, 0x3F	; 63
    69ae:	08 95       	ret
    69b0:	26 f0       	brts	.+8      	; 0x69ba <ceil+0x22>
    69b2:	1b 16       	cp	r1, r27
    69b4:	61 1d       	adc	r22, r1
    69b6:	71 1d       	adc	r23, r1
    69b8:	81 1d       	adc	r24, r1
    69ba:	1b c1       	rjmp	.+566    	; 0x6bf2 <__fp_mintl>
    69bc:	35 c1       	rjmp	.+618    	; 0x6c28 <__fp_mpack>

000069be <__cmpsf2>:
    69be:	ef d0       	rcall	.+478    	; 0x6b9e <__fp_cmp>
    69c0:	08 f4       	brcc	.+2      	; 0x69c4 <__cmpsf2+0x6>
    69c2:	81 e0       	ldi	r24, 0x01	; 1
    69c4:	08 95       	ret

000069c6 <cos>:
    69c6:	75 d1       	rcall	.+746    	; 0x6cb2 <__fp_rempio2>
    69c8:	e3 95       	inc	r30
    69ca:	ab c1       	rjmp	.+854    	; 0x6d22 <__fp_sinus>

000069cc <__divsf3>:
    69cc:	0c d0       	rcall	.+24     	; 0x69e6 <__divsf3x>
    69ce:	98 c1       	rjmp	.+816    	; 0x6d00 <__fp_round>
    69d0:	68 d1       	rcall	.+720    	; 0x6ca2 <__fp_pscB>
    69d2:	40 f0       	brcs	.+16     	; 0x69e4 <__divsf3+0x18>
    69d4:	5f d1       	rcall	.+702    	; 0x6c94 <__fp_pscA>
    69d6:	30 f0       	brcs	.+12     	; 0x69e4 <__divsf3+0x18>
    69d8:	21 f4       	brne	.+8      	; 0x69e2 <__divsf3+0x16>
    69da:	5f 3f       	cpi	r21, 0xFF	; 255
    69dc:	19 f0       	breq	.+6      	; 0x69e4 <__divsf3+0x18>
    69de:	03 c1       	rjmp	.+518    	; 0x6be6 <__fp_inf>
    69e0:	51 11       	cpse	r21, r1
    69e2:	ea c1       	rjmp	.+980    	; 0x6db8 <__fp_szero>
    69e4:	2f c1       	rjmp	.+606    	; 0x6c44 <__fp_nan>

000069e6 <__divsf3x>:
    69e6:	ae d1       	rcall	.+860    	; 0x6d44 <__fp_split3>
    69e8:	98 f3       	brcs	.-26     	; 0x69d0 <__divsf3+0x4>

000069ea <__divsf3_pse>:
    69ea:	99 23       	and	r25, r25
    69ec:	c9 f3       	breq	.-14     	; 0x69e0 <__divsf3+0x14>
    69ee:	55 23       	and	r21, r21
    69f0:	b1 f3       	breq	.-20     	; 0x69de <__divsf3+0x12>
    69f2:	95 1b       	sub	r25, r21
    69f4:	55 0b       	sbc	r21, r21
    69f6:	bb 27       	eor	r27, r27
    69f8:	aa 27       	eor	r26, r26
    69fa:	62 17       	cp	r22, r18
    69fc:	73 07       	cpc	r23, r19
    69fe:	84 07       	cpc	r24, r20
    6a00:	38 f0       	brcs	.+14     	; 0x6a10 <__divsf3_pse+0x26>
    6a02:	9f 5f       	subi	r25, 0xFF	; 255
    6a04:	5f 4f       	sbci	r21, 0xFF	; 255
    6a06:	22 0f       	add	r18, r18
    6a08:	33 1f       	adc	r19, r19
    6a0a:	44 1f       	adc	r20, r20
    6a0c:	aa 1f       	adc	r26, r26
    6a0e:	a9 f3       	breq	.-22     	; 0x69fa <__divsf3_pse+0x10>
    6a10:	33 d0       	rcall	.+102    	; 0x6a78 <__divsf3_pse+0x8e>
    6a12:	0e 2e       	mov	r0, r30
    6a14:	3a f0       	brmi	.+14     	; 0x6a24 <__divsf3_pse+0x3a>
    6a16:	e0 e8       	ldi	r30, 0x80	; 128
    6a18:	30 d0       	rcall	.+96     	; 0x6a7a <__divsf3_pse+0x90>
    6a1a:	91 50       	subi	r25, 0x01	; 1
    6a1c:	50 40       	sbci	r21, 0x00	; 0
    6a1e:	e6 95       	lsr	r30
    6a20:	00 1c       	adc	r0, r0
    6a22:	ca f7       	brpl	.-14     	; 0x6a16 <__divsf3_pse+0x2c>
    6a24:	29 d0       	rcall	.+82     	; 0x6a78 <__divsf3_pse+0x8e>
    6a26:	fe 2f       	mov	r31, r30
    6a28:	27 d0       	rcall	.+78     	; 0x6a78 <__divsf3_pse+0x8e>
    6a2a:	66 0f       	add	r22, r22
    6a2c:	77 1f       	adc	r23, r23
    6a2e:	88 1f       	adc	r24, r24
    6a30:	bb 1f       	adc	r27, r27
    6a32:	26 17       	cp	r18, r22
    6a34:	37 07       	cpc	r19, r23
    6a36:	48 07       	cpc	r20, r24
    6a38:	ab 07       	cpc	r26, r27
    6a3a:	b0 e8       	ldi	r27, 0x80	; 128
    6a3c:	09 f0       	breq	.+2      	; 0x6a40 <__divsf3_pse+0x56>
    6a3e:	bb 0b       	sbc	r27, r27
    6a40:	80 2d       	mov	r24, r0
    6a42:	bf 01       	movw	r22, r30
    6a44:	ff 27       	eor	r31, r31
    6a46:	93 58       	subi	r25, 0x83	; 131
    6a48:	5f 4f       	sbci	r21, 0xFF	; 255
    6a4a:	2a f0       	brmi	.+10     	; 0x6a56 <__divsf3_pse+0x6c>
    6a4c:	9e 3f       	cpi	r25, 0xFE	; 254
    6a4e:	51 05       	cpc	r21, r1
    6a50:	68 f0       	brcs	.+26     	; 0x6a6c <__divsf3_pse+0x82>
    6a52:	c9 c0       	rjmp	.+402    	; 0x6be6 <__fp_inf>
    6a54:	b1 c1       	rjmp	.+866    	; 0x6db8 <__fp_szero>
    6a56:	5f 3f       	cpi	r21, 0xFF	; 255
    6a58:	ec f3       	brlt	.-6      	; 0x6a54 <__divsf3_pse+0x6a>
    6a5a:	98 3e       	cpi	r25, 0xE8	; 232
    6a5c:	dc f3       	brlt	.-10     	; 0x6a54 <__divsf3_pse+0x6a>
    6a5e:	86 95       	lsr	r24
    6a60:	77 95       	ror	r23
    6a62:	67 95       	ror	r22
    6a64:	b7 95       	ror	r27
    6a66:	f7 95       	ror	r31
    6a68:	9f 5f       	subi	r25, 0xFF	; 255
    6a6a:	c9 f7       	brne	.-14     	; 0x6a5e <__divsf3_pse+0x74>
    6a6c:	88 0f       	add	r24, r24
    6a6e:	91 1d       	adc	r25, r1
    6a70:	96 95       	lsr	r25
    6a72:	87 95       	ror	r24
    6a74:	97 f9       	bld	r25, 7
    6a76:	08 95       	ret
    6a78:	e1 e0       	ldi	r30, 0x01	; 1
    6a7a:	66 0f       	add	r22, r22
    6a7c:	77 1f       	adc	r23, r23
    6a7e:	88 1f       	adc	r24, r24
    6a80:	bb 1f       	adc	r27, r27
    6a82:	62 17       	cp	r22, r18
    6a84:	73 07       	cpc	r23, r19
    6a86:	84 07       	cpc	r24, r20
    6a88:	ba 07       	cpc	r27, r26
    6a8a:	20 f0       	brcs	.+8      	; 0x6a94 <__divsf3_pse+0xaa>
    6a8c:	62 1b       	sub	r22, r18
    6a8e:	73 0b       	sbc	r23, r19
    6a90:	84 0b       	sbc	r24, r20
    6a92:	ba 0b       	sbc	r27, r26
    6a94:	ee 1f       	adc	r30, r30
    6a96:	88 f7       	brcc	.-30     	; 0x6a7a <__divsf3_pse+0x90>
    6a98:	e0 95       	com	r30
    6a9a:	08 95       	ret

00006a9c <__fixsfsi>:
    6a9c:	04 d0       	rcall	.+8      	; 0x6aa6 <__fixunssfsi>
    6a9e:	68 94       	set
    6aa0:	b1 11       	cpse	r27, r1
    6aa2:	8a c1       	rjmp	.+788    	; 0x6db8 <__fp_szero>
    6aa4:	08 95       	ret

00006aa6 <__fixunssfsi>:
    6aa6:	56 d1       	rcall	.+684    	; 0x6d54 <__fp_splitA>
    6aa8:	88 f0       	brcs	.+34     	; 0x6acc <__fixunssfsi+0x26>
    6aaa:	9f 57       	subi	r25, 0x7F	; 127
    6aac:	90 f0       	brcs	.+36     	; 0x6ad2 <__fixunssfsi+0x2c>
    6aae:	b9 2f       	mov	r27, r25
    6ab0:	99 27       	eor	r25, r25
    6ab2:	b7 51       	subi	r27, 0x17	; 23
    6ab4:	a0 f0       	brcs	.+40     	; 0x6ade <__fixunssfsi+0x38>
    6ab6:	d1 f0       	breq	.+52     	; 0x6aec <__fixunssfsi+0x46>
    6ab8:	66 0f       	add	r22, r22
    6aba:	77 1f       	adc	r23, r23
    6abc:	88 1f       	adc	r24, r24
    6abe:	99 1f       	adc	r25, r25
    6ac0:	1a f0       	brmi	.+6      	; 0x6ac8 <__fixunssfsi+0x22>
    6ac2:	ba 95       	dec	r27
    6ac4:	c9 f7       	brne	.-14     	; 0x6ab8 <__fixunssfsi+0x12>
    6ac6:	12 c0       	rjmp	.+36     	; 0x6aec <__fixunssfsi+0x46>
    6ac8:	b1 30       	cpi	r27, 0x01	; 1
    6aca:	81 f0       	breq	.+32     	; 0x6aec <__fixunssfsi+0x46>
    6acc:	74 d1       	rcall	.+744    	; 0x6db6 <__fp_zero>
    6ace:	b1 e0       	ldi	r27, 0x01	; 1
    6ad0:	08 95       	ret
    6ad2:	71 c1       	rjmp	.+738    	; 0x6db6 <__fp_zero>
    6ad4:	67 2f       	mov	r22, r23
    6ad6:	78 2f       	mov	r23, r24
    6ad8:	88 27       	eor	r24, r24
    6ada:	b8 5f       	subi	r27, 0xF8	; 248
    6adc:	39 f0       	breq	.+14     	; 0x6aec <__fixunssfsi+0x46>
    6ade:	b9 3f       	cpi	r27, 0xF9	; 249
    6ae0:	cc f3       	brlt	.-14     	; 0x6ad4 <__fixunssfsi+0x2e>
    6ae2:	86 95       	lsr	r24
    6ae4:	77 95       	ror	r23
    6ae6:	67 95       	ror	r22
    6ae8:	b3 95       	inc	r27
    6aea:	d9 f7       	brne	.-10     	; 0x6ae2 <__fixunssfsi+0x3c>
    6aec:	3e f4       	brtc	.+14     	; 0x6afc <__fixunssfsi+0x56>
    6aee:	90 95       	com	r25
    6af0:	80 95       	com	r24
    6af2:	70 95       	com	r23
    6af4:	61 95       	neg	r22
    6af6:	7f 4f       	sbci	r23, 0xFF	; 255
    6af8:	8f 4f       	sbci	r24, 0xFF	; 255
    6afa:	9f 4f       	sbci	r25, 0xFF	; 255
    6afc:	08 95       	ret

00006afe <__floatunsisf>:
    6afe:	e8 94       	clt
    6b00:	09 c0       	rjmp	.+18     	; 0x6b14 <__floatsisf+0x12>

00006b02 <__floatsisf>:
    6b02:	97 fb       	bst	r25, 7
    6b04:	3e f4       	brtc	.+14     	; 0x6b14 <__floatsisf+0x12>
    6b06:	90 95       	com	r25
    6b08:	80 95       	com	r24
    6b0a:	70 95       	com	r23
    6b0c:	61 95       	neg	r22
    6b0e:	7f 4f       	sbci	r23, 0xFF	; 255
    6b10:	8f 4f       	sbci	r24, 0xFF	; 255
    6b12:	9f 4f       	sbci	r25, 0xFF	; 255
    6b14:	99 23       	and	r25, r25
    6b16:	a9 f0       	breq	.+42     	; 0x6b42 <__floatsisf+0x40>
    6b18:	f9 2f       	mov	r31, r25
    6b1a:	96 e9       	ldi	r25, 0x96	; 150
    6b1c:	bb 27       	eor	r27, r27
    6b1e:	93 95       	inc	r25
    6b20:	f6 95       	lsr	r31
    6b22:	87 95       	ror	r24
    6b24:	77 95       	ror	r23
    6b26:	67 95       	ror	r22
    6b28:	b7 95       	ror	r27
    6b2a:	f1 11       	cpse	r31, r1
    6b2c:	f8 cf       	rjmp	.-16     	; 0x6b1e <__floatsisf+0x1c>
    6b2e:	fa f4       	brpl	.+62     	; 0x6b6e <__floatsisf+0x6c>
    6b30:	bb 0f       	add	r27, r27
    6b32:	11 f4       	brne	.+4      	; 0x6b38 <__floatsisf+0x36>
    6b34:	60 ff       	sbrs	r22, 0
    6b36:	1b c0       	rjmp	.+54     	; 0x6b6e <__floatsisf+0x6c>
    6b38:	6f 5f       	subi	r22, 0xFF	; 255
    6b3a:	7f 4f       	sbci	r23, 0xFF	; 255
    6b3c:	8f 4f       	sbci	r24, 0xFF	; 255
    6b3e:	9f 4f       	sbci	r25, 0xFF	; 255
    6b40:	16 c0       	rjmp	.+44     	; 0x6b6e <__floatsisf+0x6c>
    6b42:	88 23       	and	r24, r24
    6b44:	11 f0       	breq	.+4      	; 0x6b4a <__floatsisf+0x48>
    6b46:	96 e9       	ldi	r25, 0x96	; 150
    6b48:	11 c0       	rjmp	.+34     	; 0x6b6c <__floatsisf+0x6a>
    6b4a:	77 23       	and	r23, r23
    6b4c:	21 f0       	breq	.+8      	; 0x6b56 <__floatsisf+0x54>
    6b4e:	9e e8       	ldi	r25, 0x8E	; 142
    6b50:	87 2f       	mov	r24, r23
    6b52:	76 2f       	mov	r23, r22
    6b54:	05 c0       	rjmp	.+10     	; 0x6b60 <__floatsisf+0x5e>
    6b56:	66 23       	and	r22, r22
    6b58:	71 f0       	breq	.+28     	; 0x6b76 <__floatsisf+0x74>
    6b5a:	96 e8       	ldi	r25, 0x86	; 134
    6b5c:	86 2f       	mov	r24, r22
    6b5e:	70 e0       	ldi	r23, 0x00	; 0
    6b60:	60 e0       	ldi	r22, 0x00	; 0
    6b62:	2a f0       	brmi	.+10     	; 0x6b6e <__floatsisf+0x6c>
    6b64:	9a 95       	dec	r25
    6b66:	66 0f       	add	r22, r22
    6b68:	77 1f       	adc	r23, r23
    6b6a:	88 1f       	adc	r24, r24
    6b6c:	da f7       	brpl	.-10     	; 0x6b64 <__floatsisf+0x62>
    6b6e:	88 0f       	add	r24, r24
    6b70:	96 95       	lsr	r25
    6b72:	87 95       	ror	r24
    6b74:	97 f9       	bld	r25, 7
    6b76:	08 95       	ret

00006b78 <floor>:
    6b78:	07 d1       	rcall	.+526    	; 0x6d88 <__fp_trunc>
    6b7a:	80 f0       	brcs	.+32     	; 0x6b9c <floor+0x24>
    6b7c:	9f 37       	cpi	r25, 0x7F	; 127
    6b7e:	40 f4       	brcc	.+16     	; 0x6b90 <floor+0x18>
    6b80:	91 11       	cpse	r25, r1
    6b82:	0e f0       	brts	.+2      	; 0x6b86 <floor+0xe>
    6b84:	19 c1       	rjmp	.+562    	; 0x6db8 <__fp_szero>
    6b86:	60 e0       	ldi	r22, 0x00	; 0
    6b88:	70 e0       	ldi	r23, 0x00	; 0
    6b8a:	80 e8       	ldi	r24, 0x80	; 128
    6b8c:	9f eb       	ldi	r25, 0xBF	; 191
    6b8e:	08 95       	ret
    6b90:	26 f4       	brtc	.+8      	; 0x6b9a <floor+0x22>
    6b92:	1b 16       	cp	r1, r27
    6b94:	61 1d       	adc	r22, r1
    6b96:	71 1d       	adc	r23, r1
    6b98:	81 1d       	adc	r24, r1
    6b9a:	2b c0       	rjmp	.+86     	; 0x6bf2 <__fp_mintl>
    6b9c:	45 c0       	rjmp	.+138    	; 0x6c28 <__fp_mpack>

00006b9e <__fp_cmp>:
    6b9e:	99 0f       	add	r25, r25
    6ba0:	00 08       	sbc	r0, r0
    6ba2:	55 0f       	add	r21, r21
    6ba4:	aa 0b       	sbc	r26, r26
    6ba6:	e0 e8       	ldi	r30, 0x80	; 128
    6ba8:	fe ef       	ldi	r31, 0xFE	; 254
    6baa:	16 16       	cp	r1, r22
    6bac:	17 06       	cpc	r1, r23
    6bae:	e8 07       	cpc	r30, r24
    6bb0:	f9 07       	cpc	r31, r25
    6bb2:	c0 f0       	brcs	.+48     	; 0x6be4 <__fp_cmp+0x46>
    6bb4:	12 16       	cp	r1, r18
    6bb6:	13 06       	cpc	r1, r19
    6bb8:	e4 07       	cpc	r30, r20
    6bba:	f5 07       	cpc	r31, r21
    6bbc:	98 f0       	brcs	.+38     	; 0x6be4 <__fp_cmp+0x46>
    6bbe:	62 1b       	sub	r22, r18
    6bc0:	73 0b       	sbc	r23, r19
    6bc2:	84 0b       	sbc	r24, r20
    6bc4:	95 0b       	sbc	r25, r21
    6bc6:	39 f4       	brne	.+14     	; 0x6bd6 <__fp_cmp+0x38>
    6bc8:	0a 26       	eor	r0, r26
    6bca:	61 f0       	breq	.+24     	; 0x6be4 <__fp_cmp+0x46>
    6bcc:	23 2b       	or	r18, r19
    6bce:	24 2b       	or	r18, r20
    6bd0:	25 2b       	or	r18, r21
    6bd2:	21 f4       	brne	.+8      	; 0x6bdc <__fp_cmp+0x3e>
    6bd4:	08 95       	ret
    6bd6:	0a 26       	eor	r0, r26
    6bd8:	09 f4       	brne	.+2      	; 0x6bdc <__fp_cmp+0x3e>
    6bda:	a1 40       	sbci	r26, 0x01	; 1
    6bdc:	a6 95       	lsr	r26
    6bde:	8f ef       	ldi	r24, 0xFF	; 255
    6be0:	81 1d       	adc	r24, r1
    6be2:	81 1d       	adc	r24, r1
    6be4:	08 95       	ret

00006be6 <__fp_inf>:
    6be6:	97 f9       	bld	r25, 7
    6be8:	9f 67       	ori	r25, 0x7F	; 127
    6bea:	80 e8       	ldi	r24, 0x80	; 128
    6bec:	70 e0       	ldi	r23, 0x00	; 0
    6bee:	60 e0       	ldi	r22, 0x00	; 0
    6bf0:	08 95       	ret

00006bf2 <__fp_mintl>:
    6bf2:	88 23       	and	r24, r24
    6bf4:	71 f4       	brne	.+28     	; 0x6c12 <__fp_mintl+0x20>
    6bf6:	77 23       	and	r23, r23
    6bf8:	21 f0       	breq	.+8      	; 0x6c02 <__fp_mintl+0x10>
    6bfa:	98 50       	subi	r25, 0x08	; 8
    6bfc:	87 2b       	or	r24, r23
    6bfe:	76 2f       	mov	r23, r22
    6c00:	07 c0       	rjmp	.+14     	; 0x6c10 <__fp_mintl+0x1e>
    6c02:	66 23       	and	r22, r22
    6c04:	11 f4       	brne	.+4      	; 0x6c0a <__fp_mintl+0x18>
    6c06:	99 27       	eor	r25, r25
    6c08:	0d c0       	rjmp	.+26     	; 0x6c24 <__fp_mintl+0x32>
    6c0a:	90 51       	subi	r25, 0x10	; 16
    6c0c:	86 2b       	or	r24, r22
    6c0e:	70 e0       	ldi	r23, 0x00	; 0
    6c10:	60 e0       	ldi	r22, 0x00	; 0
    6c12:	2a f0       	brmi	.+10     	; 0x6c1e <__fp_mintl+0x2c>
    6c14:	9a 95       	dec	r25
    6c16:	66 0f       	add	r22, r22
    6c18:	77 1f       	adc	r23, r23
    6c1a:	88 1f       	adc	r24, r24
    6c1c:	da f7       	brpl	.-10     	; 0x6c14 <__fp_mintl+0x22>
    6c1e:	88 0f       	add	r24, r24
    6c20:	96 95       	lsr	r25
    6c22:	87 95       	ror	r24
    6c24:	97 f9       	bld	r25, 7
    6c26:	08 95       	ret

00006c28 <__fp_mpack>:
    6c28:	9f 3f       	cpi	r25, 0xFF	; 255
    6c2a:	31 f0       	breq	.+12     	; 0x6c38 <__fp_mpack_finite+0xc>

00006c2c <__fp_mpack_finite>:
    6c2c:	91 50       	subi	r25, 0x01	; 1
    6c2e:	20 f4       	brcc	.+8      	; 0x6c38 <__fp_mpack_finite+0xc>
    6c30:	87 95       	ror	r24
    6c32:	77 95       	ror	r23
    6c34:	67 95       	ror	r22
    6c36:	b7 95       	ror	r27
    6c38:	88 0f       	add	r24, r24
    6c3a:	91 1d       	adc	r25, r1
    6c3c:	96 95       	lsr	r25
    6c3e:	87 95       	ror	r24
    6c40:	97 f9       	bld	r25, 7
    6c42:	08 95       	ret

00006c44 <__fp_nan>:
    6c44:	9f ef       	ldi	r25, 0xFF	; 255
    6c46:	80 ec       	ldi	r24, 0xC0	; 192
    6c48:	08 95       	ret

00006c4a <__fp_powser>:
    6c4a:	df 93       	push	r29
    6c4c:	cf 93       	push	r28
    6c4e:	1f 93       	push	r17
    6c50:	0f 93       	push	r16
    6c52:	ff 92       	push	r15
    6c54:	ef 92       	push	r14
    6c56:	df 92       	push	r13
    6c58:	7b 01       	movw	r14, r22
    6c5a:	8c 01       	movw	r16, r24
    6c5c:	68 94       	set
    6c5e:	05 c0       	rjmp	.+10     	; 0x6c6a <__fp_powser+0x20>
    6c60:	da 2e       	mov	r13, r26
    6c62:	ef 01       	movw	r28, r30
    6c64:	f6 d0       	rcall	.+492    	; 0x6e52 <__mulsf3x>
    6c66:	fe 01       	movw	r30, r28
    6c68:	e8 94       	clt
    6c6a:	a5 91       	lpm	r26, Z+
    6c6c:	25 91       	lpm	r18, Z+
    6c6e:	35 91       	lpm	r19, Z+
    6c70:	45 91       	lpm	r20, Z+
    6c72:	55 91       	lpm	r21, Z+
    6c74:	ae f3       	brts	.-22     	; 0x6c60 <__fp_powser+0x16>
    6c76:	ef 01       	movw	r28, r30
    6c78:	da dd       	rcall	.-1100   	; 0x682e <__addsf3x>
    6c7a:	fe 01       	movw	r30, r28
    6c7c:	97 01       	movw	r18, r14
    6c7e:	a8 01       	movw	r20, r16
    6c80:	da 94       	dec	r13
    6c82:	79 f7       	brne	.-34     	; 0x6c62 <__fp_powser+0x18>
    6c84:	df 90       	pop	r13
    6c86:	ef 90       	pop	r14
    6c88:	ff 90       	pop	r15
    6c8a:	0f 91       	pop	r16
    6c8c:	1f 91       	pop	r17
    6c8e:	cf 91       	pop	r28
    6c90:	df 91       	pop	r29
    6c92:	08 95       	ret

00006c94 <__fp_pscA>:
    6c94:	00 24       	eor	r0, r0
    6c96:	0a 94       	dec	r0
    6c98:	16 16       	cp	r1, r22
    6c9a:	17 06       	cpc	r1, r23
    6c9c:	18 06       	cpc	r1, r24
    6c9e:	09 06       	cpc	r0, r25
    6ca0:	08 95       	ret

00006ca2 <__fp_pscB>:
    6ca2:	00 24       	eor	r0, r0
    6ca4:	0a 94       	dec	r0
    6ca6:	12 16       	cp	r1, r18
    6ca8:	13 06       	cpc	r1, r19
    6caa:	14 06       	cpc	r1, r20
    6cac:	05 06       	cpc	r0, r21
    6cae:	08 95       	ret
    6cb0:	c9 cf       	rjmp	.-110    	; 0x6c44 <__fp_nan>

00006cb2 <__fp_rempio2>:
    6cb2:	50 d0       	rcall	.+160    	; 0x6d54 <__fp_splitA>
    6cb4:	e8 f3       	brcs	.-6      	; 0x6cb0 <__fp_pscB+0xe>
    6cb6:	e8 94       	clt
    6cb8:	e0 e0       	ldi	r30, 0x00	; 0
    6cba:	bb 27       	eor	r27, r27
    6cbc:	9f 57       	subi	r25, 0x7F	; 127
    6cbe:	f0 f0       	brcs	.+60     	; 0x6cfc <__fp_rempio2+0x4a>
    6cc0:	2a ed       	ldi	r18, 0xDA	; 218
    6cc2:	3f e0       	ldi	r19, 0x0F	; 15
    6cc4:	49 ec       	ldi	r20, 0xC9	; 201
    6cc6:	06 c0       	rjmp	.+12     	; 0x6cd4 <__fp_rempio2+0x22>
    6cc8:	ee 0f       	add	r30, r30
    6cca:	bb 0f       	add	r27, r27
    6ccc:	66 1f       	adc	r22, r22
    6cce:	77 1f       	adc	r23, r23
    6cd0:	88 1f       	adc	r24, r24
    6cd2:	28 f0       	brcs	.+10     	; 0x6cde <__fp_rempio2+0x2c>
    6cd4:	b2 3a       	cpi	r27, 0xA2	; 162
    6cd6:	62 07       	cpc	r22, r18
    6cd8:	73 07       	cpc	r23, r19
    6cda:	84 07       	cpc	r24, r20
    6cdc:	28 f0       	brcs	.+10     	; 0x6ce8 <__fp_rempio2+0x36>
    6cde:	b2 5a       	subi	r27, 0xA2	; 162
    6ce0:	62 0b       	sbc	r22, r18
    6ce2:	73 0b       	sbc	r23, r19
    6ce4:	84 0b       	sbc	r24, r20
    6ce6:	e3 95       	inc	r30
    6ce8:	9a 95       	dec	r25
    6cea:	72 f7       	brpl	.-36     	; 0x6cc8 <__fp_rempio2+0x16>
    6cec:	80 38       	cpi	r24, 0x80	; 128
    6cee:	30 f4       	brcc	.+12     	; 0x6cfc <__fp_rempio2+0x4a>
    6cf0:	9a 95       	dec	r25
    6cf2:	bb 0f       	add	r27, r27
    6cf4:	66 1f       	adc	r22, r22
    6cf6:	77 1f       	adc	r23, r23
    6cf8:	88 1f       	adc	r24, r24
    6cfa:	d2 f7       	brpl	.-12     	; 0x6cf0 <__fp_rempio2+0x3e>
    6cfc:	90 48       	sbci	r25, 0x80	; 128
    6cfe:	96 cf       	rjmp	.-212    	; 0x6c2c <__fp_mpack_finite>

00006d00 <__fp_round>:
    6d00:	09 2e       	mov	r0, r25
    6d02:	03 94       	inc	r0
    6d04:	00 0c       	add	r0, r0
    6d06:	11 f4       	brne	.+4      	; 0x6d0c <__fp_round+0xc>
    6d08:	88 23       	and	r24, r24
    6d0a:	52 f0       	brmi	.+20     	; 0x6d20 <__fp_round+0x20>
    6d0c:	bb 0f       	add	r27, r27
    6d0e:	40 f4       	brcc	.+16     	; 0x6d20 <__fp_round+0x20>
    6d10:	bf 2b       	or	r27, r31
    6d12:	11 f4       	brne	.+4      	; 0x6d18 <__fp_round+0x18>
    6d14:	60 ff       	sbrs	r22, 0
    6d16:	04 c0       	rjmp	.+8      	; 0x6d20 <__fp_round+0x20>
    6d18:	6f 5f       	subi	r22, 0xFF	; 255
    6d1a:	7f 4f       	sbci	r23, 0xFF	; 255
    6d1c:	8f 4f       	sbci	r24, 0xFF	; 255
    6d1e:	9f 4f       	sbci	r25, 0xFF	; 255
    6d20:	08 95       	ret

00006d22 <__fp_sinus>:
    6d22:	ef 93       	push	r30
    6d24:	e0 ff       	sbrs	r30, 0
    6d26:	06 c0       	rjmp	.+12     	; 0x6d34 <__fp_sinus+0x12>
    6d28:	a2 ea       	ldi	r26, 0xA2	; 162
    6d2a:	2a ed       	ldi	r18, 0xDA	; 218
    6d2c:	3f e0       	ldi	r19, 0x0F	; 15
    6d2e:	49 ec       	ldi	r20, 0xC9	; 201
    6d30:	5f eb       	ldi	r21, 0xBF	; 191
    6d32:	7d dd       	rcall	.-1286   	; 0x682e <__addsf3x>
    6d34:	e5 df       	rcall	.-54     	; 0x6d00 <__fp_round>
    6d36:	0f 90       	pop	r0
    6d38:	03 94       	inc	r0
    6d3a:	01 fc       	sbrc	r0, 1
    6d3c:	90 58       	subi	r25, 0x80	; 128
    6d3e:	e3 e5       	ldi	r30, 0x53	; 83
    6d40:	f1 e0       	ldi	r31, 0x01	; 1
    6d42:	57 c1       	rjmp	.+686    	; 0x6ff2 <__fp_powsodd>

00006d44 <__fp_split3>:
    6d44:	57 fd       	sbrc	r21, 7
    6d46:	90 58       	subi	r25, 0x80	; 128
    6d48:	44 0f       	add	r20, r20
    6d4a:	55 1f       	adc	r21, r21
    6d4c:	59 f0       	breq	.+22     	; 0x6d64 <__fp_splitA+0x10>
    6d4e:	5f 3f       	cpi	r21, 0xFF	; 255
    6d50:	71 f0       	breq	.+28     	; 0x6d6e <__fp_splitA+0x1a>
    6d52:	47 95       	ror	r20

00006d54 <__fp_splitA>:
    6d54:	88 0f       	add	r24, r24
    6d56:	97 fb       	bst	r25, 7
    6d58:	99 1f       	adc	r25, r25
    6d5a:	61 f0       	breq	.+24     	; 0x6d74 <__fp_splitA+0x20>
    6d5c:	9f 3f       	cpi	r25, 0xFF	; 255
    6d5e:	79 f0       	breq	.+30     	; 0x6d7e <__fp_splitA+0x2a>
    6d60:	87 95       	ror	r24
    6d62:	08 95       	ret
    6d64:	12 16       	cp	r1, r18
    6d66:	13 06       	cpc	r1, r19
    6d68:	14 06       	cpc	r1, r20
    6d6a:	55 1f       	adc	r21, r21
    6d6c:	f2 cf       	rjmp	.-28     	; 0x6d52 <__fp_split3+0xe>
    6d6e:	46 95       	lsr	r20
    6d70:	f1 df       	rcall	.-30     	; 0x6d54 <__fp_splitA>
    6d72:	08 c0       	rjmp	.+16     	; 0x6d84 <__fp_splitA+0x30>
    6d74:	16 16       	cp	r1, r22
    6d76:	17 06       	cpc	r1, r23
    6d78:	18 06       	cpc	r1, r24
    6d7a:	99 1f       	adc	r25, r25
    6d7c:	f1 cf       	rjmp	.-30     	; 0x6d60 <__fp_splitA+0xc>
    6d7e:	86 95       	lsr	r24
    6d80:	71 05       	cpc	r23, r1
    6d82:	61 05       	cpc	r22, r1
    6d84:	08 94       	sec
    6d86:	08 95       	ret

00006d88 <__fp_trunc>:
    6d88:	e5 df       	rcall	.-54     	; 0x6d54 <__fp_splitA>
    6d8a:	a0 f0       	brcs	.+40     	; 0x6db4 <__fp_trunc+0x2c>
    6d8c:	be e7       	ldi	r27, 0x7E	; 126
    6d8e:	b9 17       	cp	r27, r25
    6d90:	88 f4       	brcc	.+34     	; 0x6db4 <__fp_trunc+0x2c>
    6d92:	bb 27       	eor	r27, r27
    6d94:	9f 38       	cpi	r25, 0x8F	; 143
    6d96:	60 f4       	brcc	.+24     	; 0x6db0 <__fp_trunc+0x28>
    6d98:	16 16       	cp	r1, r22
    6d9a:	b1 1d       	adc	r27, r1
    6d9c:	67 2f       	mov	r22, r23
    6d9e:	78 2f       	mov	r23, r24
    6da0:	88 27       	eor	r24, r24
    6da2:	98 5f       	subi	r25, 0xF8	; 248
    6da4:	f7 cf       	rjmp	.-18     	; 0x6d94 <__fp_trunc+0xc>
    6da6:	86 95       	lsr	r24
    6da8:	77 95       	ror	r23
    6daa:	67 95       	ror	r22
    6dac:	b1 1d       	adc	r27, r1
    6dae:	93 95       	inc	r25
    6db0:	96 39       	cpi	r25, 0x96	; 150
    6db2:	c8 f3       	brcs	.-14     	; 0x6da6 <__fp_trunc+0x1e>
    6db4:	08 95       	ret

00006db6 <__fp_zero>:
    6db6:	e8 94       	clt

00006db8 <__fp_szero>:
    6db8:	bb 27       	eor	r27, r27
    6dba:	66 27       	eor	r22, r22
    6dbc:	77 27       	eor	r23, r23
    6dbe:	cb 01       	movw	r24, r22
    6dc0:	97 f9       	bld	r25, 7
    6dc2:	08 95       	ret

00006dc4 <__gesf2>:
    6dc4:	ec de       	rcall	.-552    	; 0x6b9e <__fp_cmp>
    6dc6:	08 f4       	brcc	.+2      	; 0x6dca <__gesf2+0x6>
    6dc8:	8f ef       	ldi	r24, 0xFF	; 255
    6dca:	08 95       	ret

00006dcc <inverse>:
    6dcc:	9b 01       	movw	r18, r22
    6dce:	ac 01       	movw	r20, r24
    6dd0:	60 e0       	ldi	r22, 0x00	; 0
    6dd2:	70 e0       	ldi	r23, 0x00	; 0
    6dd4:	80 e8       	ldi	r24, 0x80	; 128
    6dd6:	9f e3       	ldi	r25, 0x3F	; 63
    6dd8:	f9 cd       	rjmp	.-1038   	; 0x69cc <__divsf3>

00006dda <lround>:
    6dda:	bc df       	rcall	.-136    	; 0x6d54 <__fp_splitA>
    6ddc:	58 f1       	brcs	.+86     	; 0x6e34 <lround+0x5a>
    6dde:	9e 57       	subi	r25, 0x7E	; 126
    6de0:	58 f1       	brcs	.+86     	; 0x6e38 <lround+0x5e>
    6de2:	98 51       	subi	r25, 0x18	; 24
    6de4:	a0 f0       	brcs	.+40     	; 0x6e0e <lround+0x34>
    6de6:	e9 f0       	breq	.+58     	; 0x6e22 <lround+0x48>
    6de8:	98 30       	cpi	r25, 0x08	; 8
    6dea:	20 f5       	brcc	.+72     	; 0x6e34 <lround+0x5a>
    6dec:	09 2e       	mov	r0, r25
    6dee:	99 27       	eor	r25, r25
    6df0:	66 0f       	add	r22, r22
    6df2:	77 1f       	adc	r23, r23
    6df4:	88 1f       	adc	r24, r24
    6df6:	99 1f       	adc	r25, r25
    6df8:	0a 94       	dec	r0
    6dfa:	d1 f7       	brne	.-12     	; 0x6df0 <lround+0x16>
    6dfc:	12 c0       	rjmp	.+36     	; 0x6e22 <lround+0x48>
    6dfe:	06 2e       	mov	r0, r22
    6e00:	67 2f       	mov	r22, r23
    6e02:	78 2f       	mov	r23, r24
    6e04:	88 27       	eor	r24, r24
    6e06:	98 5f       	subi	r25, 0xF8	; 248
    6e08:	11 f4       	brne	.+4      	; 0x6e0e <lround+0x34>
    6e0a:	00 0c       	add	r0, r0
    6e0c:	07 c0       	rjmp	.+14     	; 0x6e1c <lround+0x42>
    6e0e:	99 3f       	cpi	r25, 0xF9	; 249
    6e10:	b4 f3       	brlt	.-20     	; 0x6dfe <lround+0x24>
    6e12:	86 95       	lsr	r24
    6e14:	77 95       	ror	r23
    6e16:	67 95       	ror	r22
    6e18:	93 95       	inc	r25
    6e1a:	d9 f7       	brne	.-10     	; 0x6e12 <lround+0x38>
    6e1c:	61 1d       	adc	r22, r1
    6e1e:	71 1d       	adc	r23, r1
    6e20:	81 1d       	adc	r24, r1
    6e22:	3e f4       	brtc	.+14     	; 0x6e32 <lround+0x58>
    6e24:	90 95       	com	r25
    6e26:	80 95       	com	r24
    6e28:	70 95       	com	r23
    6e2a:	61 95       	neg	r22
    6e2c:	7f 4f       	sbci	r23, 0xFF	; 255
    6e2e:	8f 4f       	sbci	r24, 0xFF	; 255
    6e30:	9f 4f       	sbci	r25, 0xFF	; 255
    6e32:	08 95       	ret
    6e34:	68 94       	set
    6e36:	c0 cf       	rjmp	.-128    	; 0x6db8 <__fp_szero>
    6e38:	be cf       	rjmp	.-132    	; 0x6db6 <__fp_zero>

00006e3a <__mulsf3>:
    6e3a:	0b d0       	rcall	.+22     	; 0x6e52 <__mulsf3x>
    6e3c:	61 cf       	rjmp	.-318    	; 0x6d00 <__fp_round>
    6e3e:	2a df       	rcall	.-428    	; 0x6c94 <__fp_pscA>
    6e40:	28 f0       	brcs	.+10     	; 0x6e4c <__mulsf3+0x12>
    6e42:	2f df       	rcall	.-418    	; 0x6ca2 <__fp_pscB>
    6e44:	18 f0       	brcs	.+6      	; 0x6e4c <__mulsf3+0x12>
    6e46:	95 23       	and	r25, r21
    6e48:	09 f0       	breq	.+2      	; 0x6e4c <__mulsf3+0x12>
    6e4a:	cd ce       	rjmp	.-614    	; 0x6be6 <__fp_inf>
    6e4c:	fb ce       	rjmp	.-522    	; 0x6c44 <__fp_nan>
    6e4e:	11 24       	eor	r1, r1
    6e50:	b3 cf       	rjmp	.-154    	; 0x6db8 <__fp_szero>

00006e52 <__mulsf3x>:
    6e52:	78 df       	rcall	.-272    	; 0x6d44 <__fp_split3>
    6e54:	a0 f3       	brcs	.-24     	; 0x6e3e <__mulsf3+0x4>

00006e56 <__mulsf3_pse>:
    6e56:	95 9f       	mul	r25, r21
    6e58:	d1 f3       	breq	.-12     	; 0x6e4e <__mulsf3+0x14>
    6e5a:	95 0f       	add	r25, r21
    6e5c:	50 e0       	ldi	r21, 0x00	; 0
    6e5e:	55 1f       	adc	r21, r21
    6e60:	62 9f       	mul	r22, r18
    6e62:	f0 01       	movw	r30, r0
    6e64:	72 9f       	mul	r23, r18
    6e66:	bb 27       	eor	r27, r27
    6e68:	f0 0d       	add	r31, r0
    6e6a:	b1 1d       	adc	r27, r1
    6e6c:	63 9f       	mul	r22, r19
    6e6e:	aa 27       	eor	r26, r26
    6e70:	f0 0d       	add	r31, r0
    6e72:	b1 1d       	adc	r27, r1
    6e74:	aa 1f       	adc	r26, r26
    6e76:	64 9f       	mul	r22, r20
    6e78:	66 27       	eor	r22, r22
    6e7a:	b0 0d       	add	r27, r0
    6e7c:	a1 1d       	adc	r26, r1
    6e7e:	66 1f       	adc	r22, r22
    6e80:	82 9f       	mul	r24, r18
    6e82:	22 27       	eor	r18, r18
    6e84:	b0 0d       	add	r27, r0
    6e86:	a1 1d       	adc	r26, r1
    6e88:	62 1f       	adc	r22, r18
    6e8a:	73 9f       	mul	r23, r19
    6e8c:	b0 0d       	add	r27, r0
    6e8e:	a1 1d       	adc	r26, r1
    6e90:	62 1f       	adc	r22, r18
    6e92:	83 9f       	mul	r24, r19
    6e94:	a0 0d       	add	r26, r0
    6e96:	61 1d       	adc	r22, r1
    6e98:	22 1f       	adc	r18, r18
    6e9a:	74 9f       	mul	r23, r20
    6e9c:	33 27       	eor	r19, r19
    6e9e:	a0 0d       	add	r26, r0
    6ea0:	61 1d       	adc	r22, r1
    6ea2:	23 1f       	adc	r18, r19
    6ea4:	84 9f       	mul	r24, r20
    6ea6:	60 0d       	add	r22, r0
    6ea8:	21 1d       	adc	r18, r1
    6eaa:	82 2f       	mov	r24, r18
    6eac:	76 2f       	mov	r23, r22
    6eae:	6a 2f       	mov	r22, r26
    6eb0:	11 24       	eor	r1, r1
    6eb2:	9f 57       	subi	r25, 0x7F	; 127
    6eb4:	50 40       	sbci	r21, 0x00	; 0
    6eb6:	8a f0       	brmi	.+34     	; 0x6eda <__mulsf3_pse+0x84>
    6eb8:	e1 f0       	breq	.+56     	; 0x6ef2 <__mulsf3_pse+0x9c>
    6eba:	88 23       	and	r24, r24
    6ebc:	4a f0       	brmi	.+18     	; 0x6ed0 <__mulsf3_pse+0x7a>
    6ebe:	ee 0f       	add	r30, r30
    6ec0:	ff 1f       	adc	r31, r31
    6ec2:	bb 1f       	adc	r27, r27
    6ec4:	66 1f       	adc	r22, r22
    6ec6:	77 1f       	adc	r23, r23
    6ec8:	88 1f       	adc	r24, r24
    6eca:	91 50       	subi	r25, 0x01	; 1
    6ecc:	50 40       	sbci	r21, 0x00	; 0
    6ece:	a9 f7       	brne	.-22     	; 0x6eba <__mulsf3_pse+0x64>
    6ed0:	9e 3f       	cpi	r25, 0xFE	; 254
    6ed2:	51 05       	cpc	r21, r1
    6ed4:	70 f0       	brcs	.+28     	; 0x6ef2 <__mulsf3_pse+0x9c>
    6ed6:	87 ce       	rjmp	.-754    	; 0x6be6 <__fp_inf>
    6ed8:	6f cf       	rjmp	.-290    	; 0x6db8 <__fp_szero>
    6eda:	5f 3f       	cpi	r21, 0xFF	; 255
    6edc:	ec f3       	brlt	.-6      	; 0x6ed8 <__mulsf3_pse+0x82>
    6ede:	98 3e       	cpi	r25, 0xE8	; 232
    6ee0:	dc f3       	brlt	.-10     	; 0x6ed8 <__mulsf3_pse+0x82>
    6ee2:	86 95       	lsr	r24
    6ee4:	77 95       	ror	r23
    6ee6:	67 95       	ror	r22
    6ee8:	b7 95       	ror	r27
    6eea:	f7 95       	ror	r31
    6eec:	e7 95       	ror	r30
    6eee:	9f 5f       	subi	r25, 0xFF	; 255
    6ef0:	c1 f7       	brne	.-16     	; 0x6ee2 <__mulsf3_pse+0x8c>
    6ef2:	fe 2b       	or	r31, r30
    6ef4:	88 0f       	add	r24, r24
    6ef6:	91 1d       	adc	r25, r1
    6ef8:	96 95       	lsr	r25
    6efa:	87 95       	ror	r24
    6efc:	97 f9       	bld	r25, 7
    6efe:	08 95       	ret

00006f00 <round>:
    6f00:	29 df       	rcall	.-430    	; 0x6d54 <__fp_splitA>
    6f02:	e0 f0       	brcs	.+56     	; 0x6f3c <round+0x3c>
    6f04:	9e 37       	cpi	r25, 0x7E	; 126
    6f06:	d8 f0       	brcs	.+54     	; 0x6f3e <round+0x3e>
    6f08:	96 39       	cpi	r25, 0x96	; 150
    6f0a:	b8 f4       	brcc	.+46     	; 0x6f3a <round+0x3a>
    6f0c:	9e 38       	cpi	r25, 0x8E	; 142
    6f0e:	48 f4       	brcc	.+18     	; 0x6f22 <round+0x22>
    6f10:	67 2f       	mov	r22, r23
    6f12:	78 2f       	mov	r23, r24
    6f14:	88 27       	eor	r24, r24
    6f16:	98 5f       	subi	r25, 0xF8	; 248
    6f18:	f9 cf       	rjmp	.-14     	; 0x6f0c <round+0xc>
    6f1a:	86 95       	lsr	r24
    6f1c:	77 95       	ror	r23
    6f1e:	67 95       	ror	r22
    6f20:	93 95       	inc	r25
    6f22:	95 39       	cpi	r25, 0x95	; 149
    6f24:	d0 f3       	brcs	.-12     	; 0x6f1a <round+0x1a>
    6f26:	b6 2f       	mov	r27, r22
    6f28:	b1 70       	andi	r27, 0x01	; 1
    6f2a:	6b 0f       	add	r22, r27
    6f2c:	71 1d       	adc	r23, r1
    6f2e:	81 1d       	adc	r24, r1
    6f30:	20 f4       	brcc	.+8      	; 0x6f3a <round+0x3a>
    6f32:	87 95       	ror	r24
    6f34:	77 95       	ror	r23
    6f36:	67 95       	ror	r22
    6f38:	93 95       	inc	r25
    6f3a:	5b ce       	rjmp	.-842    	; 0x6bf2 <__fp_mintl>
    6f3c:	75 ce       	rjmp	.-790    	; 0x6c28 <__fp_mpack>
    6f3e:	3c cf       	rjmp	.-392    	; 0x6db8 <__fp_szero>

00006f40 <sin>:
    6f40:	9f 93       	push	r25
    6f42:	b7 de       	rcall	.-658    	; 0x6cb2 <__fp_rempio2>
    6f44:	0f 90       	pop	r0
    6f46:	07 fc       	sbrc	r0, 7
    6f48:	ee 5f       	subi	r30, 0xFE	; 254
    6f4a:	eb ce       	rjmp	.-554    	; 0x6d22 <__fp_sinus>
    6f4c:	11 f4       	brne	.+4      	; 0x6f52 <sin+0x12>
    6f4e:	0e f4       	brtc	.+2      	; 0x6f52 <sin+0x12>
    6f50:	79 ce       	rjmp	.-782    	; 0x6c44 <__fp_nan>
    6f52:	6a ce       	rjmp	.-812    	; 0x6c28 <__fp_mpack>

00006f54 <sqrt>:
    6f54:	ff de       	rcall	.-514    	; 0x6d54 <__fp_splitA>
    6f56:	d0 f3       	brcs	.-12     	; 0x6f4c <sin+0xc>
    6f58:	99 23       	and	r25, r25
    6f5a:	d9 f3       	breq	.-10     	; 0x6f52 <sin+0x12>
    6f5c:	ce f3       	brts	.-14     	; 0x6f50 <sin+0x10>
    6f5e:	9f 57       	subi	r25, 0x7F	; 127
    6f60:	55 0b       	sbc	r21, r21
    6f62:	87 ff       	sbrs	r24, 7
    6f64:	3f d0       	rcall	.+126    	; 0x6fe4 <__fp_norm2>
    6f66:	00 24       	eor	r0, r0
    6f68:	a0 e6       	ldi	r26, 0x60	; 96
    6f6a:	40 ea       	ldi	r20, 0xA0	; 160
    6f6c:	90 01       	movw	r18, r0
    6f6e:	80 58       	subi	r24, 0x80	; 128
    6f70:	56 95       	lsr	r21
    6f72:	97 95       	ror	r25
    6f74:	28 f4       	brcc	.+10     	; 0x6f80 <sqrt+0x2c>
    6f76:	80 5c       	subi	r24, 0xC0	; 192
    6f78:	66 0f       	add	r22, r22
    6f7a:	77 1f       	adc	r23, r23
    6f7c:	88 1f       	adc	r24, r24
    6f7e:	20 f0       	brcs	.+8      	; 0x6f88 <sqrt+0x34>
    6f80:	26 17       	cp	r18, r22
    6f82:	37 07       	cpc	r19, r23
    6f84:	48 07       	cpc	r20, r24
    6f86:	30 f4       	brcc	.+12     	; 0x6f94 <sqrt+0x40>
    6f88:	62 1b       	sub	r22, r18
    6f8a:	73 0b       	sbc	r23, r19
    6f8c:	84 0b       	sbc	r24, r20
    6f8e:	20 29       	or	r18, r0
    6f90:	31 29       	or	r19, r1
    6f92:	4a 2b       	or	r20, r26
    6f94:	a6 95       	lsr	r26
    6f96:	17 94       	ror	r1
    6f98:	07 94       	ror	r0
    6f9a:	20 25       	eor	r18, r0
    6f9c:	31 25       	eor	r19, r1
    6f9e:	4a 27       	eor	r20, r26
    6fa0:	58 f7       	brcc	.-42     	; 0x6f78 <sqrt+0x24>
    6fa2:	66 0f       	add	r22, r22
    6fa4:	77 1f       	adc	r23, r23
    6fa6:	88 1f       	adc	r24, r24
    6fa8:	20 f0       	brcs	.+8      	; 0x6fb2 <sqrt+0x5e>
    6faa:	26 17       	cp	r18, r22
    6fac:	37 07       	cpc	r19, r23
    6fae:	48 07       	cpc	r20, r24
    6fb0:	30 f4       	brcc	.+12     	; 0x6fbe <sqrt+0x6a>
    6fb2:	62 0b       	sbc	r22, r18
    6fb4:	73 0b       	sbc	r23, r19
    6fb6:	84 0b       	sbc	r24, r20
    6fb8:	20 0d       	add	r18, r0
    6fba:	31 1d       	adc	r19, r1
    6fbc:	41 1d       	adc	r20, r1
    6fbe:	a0 95       	com	r26
    6fc0:	81 f7       	brne	.-32     	; 0x6fa2 <sqrt+0x4e>
    6fc2:	b9 01       	movw	r22, r18
    6fc4:	84 2f       	mov	r24, r20
    6fc6:	91 58       	subi	r25, 0x81	; 129
    6fc8:	88 0f       	add	r24, r24
    6fca:	96 95       	lsr	r25
    6fcc:	87 95       	ror	r24
    6fce:	08 95       	ret

00006fd0 <square>:
    6fd0:	9b 01       	movw	r18, r22
    6fd2:	ac 01       	movw	r20, r24
    6fd4:	32 cf       	rjmp	.-412    	; 0x6e3a <__mulsf3>

00006fd6 <trunc>:
    6fd6:	d8 de       	rcall	.-592    	; 0x6d88 <__fp_trunc>
    6fd8:	20 f0       	brcs	.+8      	; 0x6fe2 <trunc+0xc>
    6fda:	9f 37       	cpi	r25, 0x7F	; 127
    6fdc:	08 f4       	brcc	.+2      	; 0x6fe0 <trunc+0xa>
    6fde:	ec ce       	rjmp	.-552    	; 0x6db8 <__fp_szero>
    6fe0:	08 ce       	rjmp	.-1008   	; 0x6bf2 <__fp_mintl>
    6fe2:	22 ce       	rjmp	.-956    	; 0x6c28 <__fp_mpack>

00006fe4 <__fp_norm2>:
    6fe4:	91 50       	subi	r25, 0x01	; 1
    6fe6:	50 40       	sbci	r21, 0x00	; 0
    6fe8:	66 0f       	add	r22, r22
    6fea:	77 1f       	adc	r23, r23
    6fec:	88 1f       	adc	r24, r24
    6fee:	d2 f7       	brpl	.-12     	; 0x6fe4 <__fp_norm2>
    6ff0:	08 95       	ret

00006ff2 <__fp_powsodd>:
    6ff2:	9f 93       	push	r25
    6ff4:	8f 93       	push	r24
    6ff6:	7f 93       	push	r23
    6ff8:	6f 93       	push	r22
    6ffa:	ff 93       	push	r31
    6ffc:	ef 93       	push	r30
    6ffe:	9b 01       	movw	r18, r22
    7000:	ac 01       	movw	r20, r24
    7002:	1b df       	rcall	.-458    	; 0x6e3a <__mulsf3>
    7004:	ef 91       	pop	r30
    7006:	ff 91       	pop	r31
    7008:	20 de       	rcall	.-960    	; 0x6c4a <__fp_powser>
    700a:	2f 91       	pop	r18
    700c:	3f 91       	pop	r19
    700e:	4f 91       	pop	r20
    7010:	5f 91       	pop	r21
    7012:	13 cf       	rjmp	.-474    	; 0x6e3a <__mulsf3>

00007014 <__udivmodqi4>:
    7014:	99 1b       	sub	r25, r25
    7016:	79 e0       	ldi	r23, 0x09	; 9
    7018:	04 c0       	rjmp	.+8      	; 0x7022 <__udivmodqi4_ep>

0000701a <__udivmodqi4_loop>:
    701a:	99 1f       	adc	r25, r25
    701c:	96 17       	cp	r25, r22
    701e:	08 f0       	brcs	.+2      	; 0x7022 <__udivmodqi4_ep>
    7020:	96 1b       	sub	r25, r22

00007022 <__udivmodqi4_ep>:
    7022:	88 1f       	adc	r24, r24
    7024:	7a 95       	dec	r23
    7026:	c9 f7       	brne	.-14     	; 0x701a <__udivmodqi4_loop>
    7028:	80 95       	com	r24
    702a:	08 95       	ret

0000702c <__udivmodsi4>:
    702c:	a1 e2       	ldi	r26, 0x21	; 33
    702e:	1a 2e       	mov	r1, r26
    7030:	aa 1b       	sub	r26, r26
    7032:	bb 1b       	sub	r27, r27
    7034:	fd 01       	movw	r30, r26
    7036:	0d c0       	rjmp	.+26     	; 0x7052 <__udivmodsi4_ep>

00007038 <__udivmodsi4_loop>:
    7038:	aa 1f       	adc	r26, r26
    703a:	bb 1f       	adc	r27, r27
    703c:	ee 1f       	adc	r30, r30
    703e:	ff 1f       	adc	r31, r31
    7040:	a2 17       	cp	r26, r18
    7042:	b3 07       	cpc	r27, r19
    7044:	e4 07       	cpc	r30, r20
    7046:	f5 07       	cpc	r31, r21
    7048:	20 f0       	brcs	.+8      	; 0x7052 <__udivmodsi4_ep>
    704a:	a2 1b       	sub	r26, r18
    704c:	b3 0b       	sbc	r27, r19
    704e:	e4 0b       	sbc	r30, r20
    7050:	f5 0b       	sbc	r31, r21

00007052 <__udivmodsi4_ep>:
    7052:	66 1f       	adc	r22, r22
    7054:	77 1f       	adc	r23, r23
    7056:	88 1f       	adc	r24, r24
    7058:	99 1f       	adc	r25, r25
    705a:	1a 94       	dec	r1
    705c:	69 f7       	brne	.-38     	; 0x7038 <__udivmodsi4_loop>
    705e:	60 95       	com	r22
    7060:	70 95       	com	r23
    7062:	80 95       	com	r24
    7064:	90 95       	com	r25
    7066:	9b 01       	movw	r18, r22
    7068:	ac 01       	movw	r20, r24
    706a:	bd 01       	movw	r22, r26
    706c:	cf 01       	movw	r24, r30
    706e:	08 95       	ret

00007070 <__tablejump2__>:
    7070:	ee 0f       	add	r30, r30
    7072:	ff 1f       	adc	r31, r31

00007074 <__tablejump__>:
    7074:	05 90       	lpm	r0, Z+
    7076:	f4 91       	lpm	r31, Z
    7078:	e0 2d       	mov	r30, r0
    707a:	09 94       	ijmp

0000707c <__muluhisi3>:
    707c:	0e 94 49 38 	call	0x7092	; 0x7092 <__umulhisi3>
    7080:	a5 9f       	mul	r26, r21
    7082:	90 0d       	add	r25, r0
    7084:	b4 9f       	mul	r27, r20
    7086:	90 0d       	add	r25, r0
    7088:	a4 9f       	mul	r26, r20
    708a:	80 0d       	add	r24, r0
    708c:	91 1d       	adc	r25, r1
    708e:	11 24       	eor	r1, r1
    7090:	08 95       	ret

00007092 <__umulhisi3>:
    7092:	a2 9f       	mul	r26, r18
    7094:	b0 01       	movw	r22, r0
    7096:	b3 9f       	mul	r27, r19
    7098:	c0 01       	movw	r24, r0
    709a:	a3 9f       	mul	r26, r19
    709c:	70 0d       	add	r23, r0
    709e:	81 1d       	adc	r24, r1
    70a0:	11 24       	eor	r1, r1
    70a2:	91 1d       	adc	r25, r1
    70a4:	b2 9f       	mul	r27, r18
    70a6:	70 0d       	add	r23, r0
    70a8:	81 1d       	adc	r24, r1
    70aa:	11 24       	eor	r1, r1
    70ac:	91 1d       	adc	r25, r1
    70ae:	08 95       	ret

000070b0 <_exit>:
    70b0:	f8 94       	cli

000070b2 <__stop_program>:
    70b2:	ff cf       	rjmp	.-2      	; 0x70b2 <__stop_program>
